Archive member included because of file (symbol)

f:/PSDK3/ps3dev/portlibs/ppu/lib\libfont.a(libfont.o)
                              main.o (ResetFont)
f:/PSDK3/ps3dev/portlibs/ppu/lib\libtiny3d.a(tiny3d.o)
                              main.o (tiny3d_Init)
f:/PSDK3/ps3dev/portlibs/ppu/lib\libtiny3d.a(vshader_text_normal.vcg.o)
                              f:/PSDK3/ps3dev/portlibs/ppu/lib\libtiny3d.a(tiny3d.o) (vshader_text_normal_bin)
f:/PSDK3/ps3dev/portlibs/ppu/lib\libtiny3d.a(commands.o)
                              f:/PSDK3/ps3dev/portlibs/ppu/lib\libtiny3d.a(tiny3d.o) (rsxtiny_MakeCmdSpace)
f:/PSDK3/ps3dev/portlibs/ppu/lib\libtiny3d.a(glue.o)
                              f:/PSDK3/ps3dev/portlibs/ppu/lib\libtiny3d.a(tiny3d.o) (rsxtiny_FlushBuffer)
f:/PSDK3/ps3dev/portlibs/ppu/lib\libtiny3d.a(matrix.o)
                              f:/PSDK3/ps3dev/portlibs/ppu/lib\libtiny3d.a(tiny3d.o) (MatrixVectorMultiply)
f:/PSDK3/ps3dev/portlibs/ppu/lib\libtiny3d.a(mm.o)
                              f:/PSDK3/ps3dev/portlibs/ppu/lib\libtiny3d.a(tiny3d.o) (rsxtiny_MemAlign)
f:/PSDK3/ps3dev/portlibs/ppu/lib\libtiny3d.a(realityVP.o)
                              f:/PSDK3/ps3dev/portlibs/ppu/lib\libtiny3d.a(commands.o) (rsxtiny_VertexProgramGetUCode)
f:/PSDK3/ps3dev/portlibs/ppu/lib\libtiny3d.a(rsxutil.o)
                              f:/PSDK3/ps3dev/portlibs/ppu/lib\libtiny3d.a(tiny3d.o) (waitFlip)
f:/PSDK3/ps3dev/portlibs/ppu/lib\libtiny3d.a(buffer.o)
                              f:/PSDK3/ps3dev/portlibs/ppu/lib\libtiny3d.a(commands.o) (tiny_rsxContextCallback)
f:/PSDK3/psl1ght/ppu/lib\libgcm_sys.a(sprx.o)
                              f:/PSDK3/ps3dev/portlibs/ppu/lib\libtiny3d.a(rsxutil.o) (gcmSetFlip)
f:/PSDK3/psl1ght/ppu/lib\libio.a(sprx.o)
                              main.o (ioPadInit)
f:/PSDK3/psl1ght/ppu/lib\libsysutil.a(sprx.o)
                              f:/PSDK3/ps3dev/portlibs/ppu/lib\libtiny3d.a(rsxutil.o) (videoConfigure)
f:/PSDK3/psl1ght/ppu/lib\libsysutil.a(sysutil_wrapper.o)
                              f:/PSDK3/ps3dev/portlibs/ppu/lib\libtiny3d.a(tiny3d.o) (sysUtilRegisterCallback)
f:/PSDK3/psl1ght/ppu/lib\librt.a(sbrk.o)
                              f:/psdk3/ps3dev/ppu/bin/../lib/gcc/powerpc64-ps3-elf/4.5.2/../../../../powerpc64-ps3-elf/lib/lv2-crt0.o (__librt_sbrk_r)
f:/PSDK3/psl1ght/ppu/lib\librt.a(exit.o)
                              f:/psdk3/ps3dev/ppu/bin/../lib/gcc/powerpc64-ps3-elf/4.5.2/../../../../powerpc64-ps3-elf/lib/lv2-crt0.o (__librt_exit)
f:/PSDK3/psl1ght/ppu/lib\librt.a(close.o)
                              f:/psdk3/ps3dev/ppu/bin/../lib/gcc/powerpc64-ps3-elf/4.5.2/../../../../powerpc64-ps3-elf/lib/lv2-crt0.o (__librt_close_r)
f:/PSDK3/psl1ght/ppu/lib\librt.a(lseek.o)
                              f:/psdk3/ps3dev/ppu/bin/../lib/gcc/powerpc64-ps3-elf/4.5.2/../../../../powerpc64-ps3-elf/lib/lv2-crt0.o (__librt_lseek_r)
f:/PSDK3/psl1ght/ppu/lib\librt.a(read.o)
                              f:/psdk3/ps3dev/ppu/bin/../lib/gcc/powerpc64-ps3-elf/4.5.2/../../../../powerpc64-ps3-elf/lib/lv2-crt0.o (__librt_read_r)
f:/PSDK3/psl1ght/ppu/lib\librt.a(open.o)
                              f:/psdk3/ps3dev/ppu/bin/../lib/gcc/powerpc64-ps3-elf/4.5.2/../../../../powerpc64-ps3-elf/lib/lv2-crt0.o (__librt_open_r)
f:/PSDK3/psl1ght/ppu/lib\librt.a(sleep.o)
                              f:/psdk3/ps3dev/ppu/bin/../lib/gcc/powerpc64-ps3-elf/4.5.2/../../../../powerpc64-ps3-elf/lib/lv2-crt0.o (__librt_usleep_r)
f:/PSDK3/psl1ght/ppu/lib\librt.a(write.o)
                              f:/psdk3/ps3dev/ppu/bin/../lib/gcc/powerpc64-ps3-elf/4.5.2/../../../../powerpc64-ps3-elf/lib/lv2-crt0.o (__librt_write_r)
f:/PSDK3/psl1ght/ppu/lib\librt.a(fstat.o)
                              f:/psdk3/ps3dev/ppu/bin/../lib/gcc/powerpc64-ps3-elf/4.5.2/../../../../powerpc64-ps3-elf/lib/lv2-crt0.o (__librt_fstat_r)
f:/PSDK3/psl1ght/ppu/lib\librt.a(socket.o)
                              f:/PSDK3/psl1ght/ppu/lib\librt.a(write.o) (send)
f:/PSDK3/psl1ght/ppu/lib\librt.a(lock.o)
                              f:/psdk3/ps3dev/ppu/bin/../lib/gcc/powerpc64-ps3-elf/4.5.2/../../../../powerpc64-ps3-elf/lib/lv2-crt0.o (__librt_sys_lwmutex_create_r)
f:/PSDK3/psl1ght/ppu/lib\librt.a(dirent.o)
                              f:/psdk3/ps3dev/ppu/bin/../lib/gcc/powerpc64-ps3-elf/4.5.2/../../../../powerpc64-ps3-elf/lib/lv2-crt0.o (__librt_opendir_r)
f:/PSDK3/psl1ght/ppu/lib\librt.a(mkdir.o)
                              f:/psdk3/ps3dev/ppu/bin/../lib/gcc/powerpc64-ps3-elf/4.5.2/../../../../powerpc64-ps3-elf/lib/lv2-crt0.o (__librt_mkdir_r)
f:/PSDK3/psl1ght/ppu/lib\librt.a(times.o)
                              f:/psdk3/ps3dev/ppu/bin/../lib/gcc/powerpc64-ps3-elf/4.5.2/../../../../powerpc64-ps3-elf/lib/lv2-crt0.o (__librt_times_r)
f:/PSDK3/psl1ght/ppu/lib\librt.a(umask.o)
                              f:/psdk3/ps3dev/ppu/bin/../lib/gcc/powerpc64-ps3-elf/4.5.2/../../../../powerpc64-ps3-elf/lib/lv2-crt0.o (__librt_umask_r)
f:/PSDK3/psl1ght/ppu/lib\librt.a(lv2errno.o)
                              f:/PSDK3/psl1ght/ppu/lib\librt.a(socket.o) (lv2errno)
f:/PSDK3/psl1ght/ppu/lib\librt.a(heap.o)
                              f:/PSDK3/psl1ght/ppu/lib\librt.a(sbrk.o) (heapInit)
f:/PSDK3/psl1ght/ppu/lib\librt.a(chmod.o)
                              f:/psdk3/ps3dev/ppu/bin/../lib/gcc/powerpc64-ps3-elf/4.5.2/../../../../powerpc64-ps3-elf/lib/lv2-crt0.o (__librt_chmod_r)
f:/PSDK3/psl1ght/ppu/lib\librt.a(rmdir.o)
                              f:/psdk3/ps3dev/ppu/bin/../lib/gcc/powerpc64-ps3-elf/4.5.2/../../../../powerpc64-ps3-elf/lib/lv2-crt0.o (__librt_rmdir_r)
f:/PSDK3/psl1ght/ppu/lib\librt.a(isatty.o)
                              f:/psdk3/ps3dev/ppu/bin/../lib/gcc/powerpc64-ps3-elf/4.5.2/../../../../powerpc64-ps3-elf/lib/lv2-crt0.o (__librt_isatty_r)
f:/PSDK3/psl1ght/ppu/lib\librt.a(gettod.o)
                              f:/psdk3/ps3dev/ppu/bin/../lib/gcc/powerpc64-ps3-elf/4.5.2/../../../../powerpc64-ps3-elf/lib/lv2-crt0.o (__librt_gettod_r)
f:/PSDK3/psl1ght/ppu/lib\librt.a(settod.o)
                              f:/psdk3/ps3dev/ppu/bin/../lib/gcc/powerpc64-ps3-elf/4.5.2/../../../../powerpc64-ps3-elf/lib/lv2-crt0.o (__librt_settod_r)
f:/PSDK3/psl1ght/ppu/lib\liblv2.a(sprx.o)
                              f:/PSDK3/psl1ght/ppu/lib\librt.a(sbrk.o) (sysSpinlockInitialize)
f:/PSDK3/psl1ght/ppu/lib\libpngdec.a(pngdec.o)
                              main.o (pngLoadFromBuffer)
f:/PSDK3/psl1ght/ppu/lib\libpngdec.a(sprx.o)
                              f:/PSDK3/psl1ght/ppu/lib\libpngdec.a(pngdec.o) (pngDecDestroy)
f:/PSDK3/psl1ght/ppu/lib\libsysmodule.a(sprx.o)
                              main.o (sysModuleLoad)
f:/psdk3/ps3dev/ppu/bin/../lib/gcc/powerpc64-ps3-elf/4.5.2/../../../../powerpc64-ps3-elf/lib\libm.a(lib_a-s_sqrt.o)
                              f:/PSDK3/ps3dev/portlibs/ppu/lib\libtiny3d.a(matrix.o) (sqrt)
f:/psdk3/ps3dev/ppu/bin/../lib/gcc/powerpc64-ps3-elf/4.5.2/../../../../powerpc64-ps3-elf/lib\libm.a(lib_a-sf_cos.o)
                              f:/PSDK3/ps3dev/portlibs/ppu/lib\libtiny3d.a(matrix.o) (cosf)
f:/psdk3/ps3dev/ppu/bin/../lib/gcc/powerpc64-ps3-elf/4.5.2/../../../../powerpc64-ps3-elf/lib\libm.a(lib_a-sf_sin.o)
                              f:/PSDK3/ps3dev/portlibs/ppu/lib\libtiny3d.a(matrix.o) (sinf)
f:/psdk3/ps3dev/ppu/bin/../lib/gcc/powerpc64-ps3-elf/4.5.2/../../../../powerpc64-ps3-elf/lib\libm.a(lib_a-sf_sine.o)
                              f:/psdk3/ps3dev/ppu/bin/../lib/gcc/powerpc64-ps3-elf/4.5.2/../../../../powerpc64-ps3-elf/lib\libm.a(lib_a-sf_cos.o) (sinef)
f:/psdk3/ps3dev/ppu/bin/../lib/gcc/powerpc64-ps3-elf/4.5.2/../../../../powerpc64-ps3-elf/lib\libm.a(lib_a-sf_sqrt.o)
                              f:/PSDK3/ps3dev/portlibs/ppu/lib\libtiny3d.a(matrix.o) (sqrtf)
f:/psdk3/ps3dev/ppu/bin/../lib/gcc/powerpc64-ps3-elf/4.5.2/../../../../powerpc64-ps3-elf/lib\libm.a(lib_a-sf_tan.o)
                              f:/PSDK3/ps3dev/portlibs/ppu/lib\libtiny3d.a(matrix.o) (tanf)
f:/psdk3/ps3dev/ppu/bin/../lib/gcc/powerpc64-ps3-elf/4.5.2/../../../../powerpc64-ps3-elf/lib\libm.a(lib_a-s_frexp.o)
                              f:/psdk3/ps3dev/ppu/bin/../lib/gcc/powerpc64-ps3-elf/4.5.2/../../../../powerpc64-ps3-elf/lib\libm.a(lib_a-s_sqrt.o) (frexp)
f:/psdk3/ps3dev/ppu/bin/../lib/gcc/powerpc64-ps3-elf/4.5.2/../../../../powerpc64-ps3-elf/lib\libm.a(lib_a-s_ispos.o)
                              f:/psdk3/ps3dev/ppu/bin/../lib/gcc/powerpc64-ps3-elf/4.5.2/../../../../powerpc64-ps3-elf/lib\libm.a(lib_a-s_sqrt.o) (ispos)
f:/psdk3/ps3dev/ppu/bin/../lib/gcc/powerpc64-ps3-elf/4.5.2/../../../../powerpc64-ps3-elf/lib\libm.a(lib_a-s_ldexp.o)
                              f:/psdk3/ps3dev/ppu/bin/../lib/gcc/powerpc64-ps3-elf/4.5.2/../../../../powerpc64-ps3-elf/lib\libm.a(lib_a-s_sqrt.o) (ldexp)
f:/psdk3/ps3dev/ppu/bin/../lib/gcc/powerpc64-ps3-elf/4.5.2/../../../../powerpc64-ps3-elf/lib\libm.a(lib_a-s_mathcnst.o)
                              f:/psdk3/ps3dev/ppu/bin/../lib/gcc/powerpc64-ps3-elf/4.5.2/../../../../powerpc64-ps3-elf/lib\libm.a(lib_a-sf_sine.o) (z_rooteps_f)
f:/psdk3/ps3dev/ppu/bin/../lib/gcc/powerpc64-ps3-elf/4.5.2/../../../../powerpc64-ps3-elf/lib\libm.a(lib_a-s_numtest.o)
                              f:/psdk3/ps3dev/ppu/bin/../lib/gcc/powerpc64-ps3-elf/4.5.2/../../../../powerpc64-ps3-elf/lib\libm.a(lib_a-s_sqrt.o) (numtest)
f:/psdk3/ps3dev/ppu/bin/../lib/gcc/powerpc64-ps3-elf/4.5.2/../../../../powerpc64-ps3-elf/lib\libm.a(lib_a-sf_fabs.o)
                              f:/psdk3/ps3dev/ppu/bin/../lib/gcc/powerpc64-ps3-elf/4.5.2/../../../../powerpc64-ps3-elf/lib\libm.a(lib_a-sf_sine.o) (fabsf)
f:/psdk3/ps3dev/ppu/bin/../lib/gcc/powerpc64-ps3-elf/4.5.2/../../../../powerpc64-ps3-elf/lib\libm.a(lib_a-sf_frexp.o)
                              f:/psdk3/ps3dev/ppu/bin/../lib/gcc/powerpc64-ps3-elf/4.5.2/../../../../powerpc64-ps3-elf/lib\libm.a(lib_a-sf_sqrt.o) (frexpf)
f:/psdk3/ps3dev/ppu/bin/../lib/gcc/powerpc64-ps3-elf/4.5.2/../../../../powerpc64-ps3-elf/lib\libm.a(lib_a-sf_ispos.o)
                              f:/psdk3/ps3dev/ppu/bin/../lib/gcc/powerpc64-ps3-elf/4.5.2/../../../../powerpc64-ps3-elf/lib\libm.a(lib_a-sf_sqrt.o) (isposf)
f:/psdk3/ps3dev/ppu/bin/../lib/gcc/powerpc64-ps3-elf/4.5.2/../../../../powerpc64-ps3-elf/lib\libm.a(lib_a-sf_ldexp.o)
                              f:/psdk3/ps3dev/ppu/bin/../lib/gcc/powerpc64-ps3-elf/4.5.2/../../../../powerpc64-ps3-elf/lib\libm.a(lib_a-sf_sqrt.o) (ldexpf)
f:/psdk3/ps3dev/ppu/bin/../lib/gcc/powerpc64-ps3-elf/4.5.2/../../../../powerpc64-ps3-elf/lib\libm.a(lib_a-sf_numtest.o)
                              f:/psdk3/ps3dev/ppu/bin/../lib/gcc/powerpc64-ps3-elf/4.5.2/../../../../powerpc64-ps3-elf/lib\libm.a(lib_a-sf_sine.o) (numtestf)
f:/psdk3/ps3dev/ppu/bin/../lib/gcc/powerpc64-ps3-elf/4.5.2/../../../../powerpc64-ps3-elf/lib\libsysbase.a(syscalls.o)
                              f:/psdk3/ps3dev/ppu/bin/../lib/gcc/powerpc64-ps3-elf/4.5.2/../../../../powerpc64-ps3-elf/lib/lv2-crt0.o (__syscalls)
f:/psdk3/ps3dev/ppu/bin/../lib/gcc/powerpc64-ps3-elf/4.5.2/../../../../powerpc64-ps3-elf/lib\libsysbase.a(sleep.o)
                              f:/PSDK3/ps3dev/portlibs/ppu/lib\libtiny3d.a(tiny3d.o) (usleep)
f:/psdk3/ps3dev/ppu/bin/../lib/gcc/powerpc64-ps3-elf/4.5.2/../../../../powerpc64-ps3-elf/lib\libc.a(lib_a-atexit.o)
                              main.o (atexit)
f:/psdk3/ps3dev/ppu/bin/../lib/gcc/powerpc64-ps3-elf/4.5.2/../../../../powerpc64-ps3-elf/lib\libc.a(lib_a-errno.o)
                              f:/PSDK3/psl1ght/ppu/lib\librt.a(socket.o) (__errno)
f:/psdk3/ps3dev/ppu/bin/../lib/gcc/powerpc64-ps3-elf/4.5.2/../../../../powerpc64-ps3-elf/lib\libc.a(lib_a-exit.o)
                              f:/psdk3/ps3dev/ppu/bin/../lib/gcc/powerpc64-ps3-elf/4.5.2/../../../../powerpc64-ps3-elf/lib/lv2-crt0.o (exit)
f:/psdk3/ps3dev/ppu/bin/../lib/gcc/powerpc64-ps3-elf/4.5.2/../../../../powerpc64-ps3-elf/lib\libc.a(lib_a-getreent.o)
                              f:/psdk3/ps3dev/ppu/bin/../lib/gcc/powerpc64-ps3-elf/4.5.2/../../../../powerpc64-ps3-elf/lib\libsysbase.a(sleep.o) (__getreent)
f:/psdk3/ps3dev/ppu/bin/../lib/gcc/powerpc64-ps3-elf/4.5.2/../../../../powerpc64-ps3-elf/lib\libc.a(lib_a-impure.o)
                              f:/psdk3/ps3dev/ppu/bin/../lib/gcc/powerpc64-ps3-elf/4.5.2/../../../../powerpc64-ps3-elf/lib\libc.a(lib_a-exit.o) (_global_impure_ptr)
f:/psdk3/ps3dev/ppu/bin/../lib/gcc/powerpc64-ps3-elf/4.5.2/../../../../powerpc64-ps3-elf/lib\libc.a(lib_a-malign.o)
                              f:/PSDK3/ps3dev/portlibs/ppu/lib\libtiny3d.a(rsxutil.o) (memalign)
f:/psdk3/ps3dev/ppu/bin/../lib/gcc/powerpc64-ps3-elf/4.5.2/../../../../powerpc64-ps3-elf/lib\libc.a(lib_a-malignr.o)
                              f:/psdk3/ps3dev/ppu/bin/../lib/gcc/powerpc64-ps3-elf/4.5.2/../../../../powerpc64-ps3-elf/lib\libc.a(lib_a-malign.o) (_memalign_r)
f:/psdk3/ps3dev/ppu/bin/../lib/gcc/powerpc64-ps3-elf/4.5.2/../../../../powerpc64-ps3-elf/lib\libc.a(lib_a-malloc.o)
                              f:/PSDK3/ps3dev/portlibs/ppu/lib\libtiny3d.a(tiny3d.o) (malloc)
f:/psdk3/ps3dev/ppu/bin/../lib/gcc/powerpc64-ps3-elf/4.5.2/../../../../powerpc64-ps3-elf/lib\libc.a(lib_a-mallocr.o)
                              f:/psdk3/ps3dev/ppu/bin/../lib/gcc/powerpc64-ps3-elf/4.5.2/../../../../powerpc64-ps3-elf/lib\libc.a(lib_a-malignr.o) (_malloc_r)
f:/psdk3/ps3dev/ppu/bin/../lib/gcc/powerpc64-ps3-elf/4.5.2/../../../../powerpc64-ps3-elf/lib\libc.a(lib_a-memcpy.o)
                              f:/PSDK3/ps3dev/portlibs/ppu/lib\libtiny3d.a(tiny3d.o) (memcpy)
f:/psdk3/ps3dev/ppu/bin/../lib/gcc/powerpc64-ps3-elf/4.5.2/../../../../powerpc64-ps3-elf/lib\libc.a(lib_a-memset.o)
                              f:/PSDK3/ps3dev/portlibs/ppu/lib\libfont.a(libfont.o) (memset)
f:/psdk3/ps3dev/ppu/bin/../lib/gcc/powerpc64-ps3-elf/4.5.2/../../../../powerpc64-ps3-elf/lib\libc.a(lib_a-mlock.o)
                              f:/psdk3/ps3dev/ppu/bin/../lib/gcc/powerpc64-ps3-elf/4.5.2/../../../../powerpc64-ps3-elf/lib\libc.a(lib_a-malignr.o) (__malloc_lock)
f:/psdk3/ps3dev/ppu/bin/../lib/gcc/powerpc64-ps3-elf/4.5.2/../../../../powerpc64-ps3-elf/lib\libc.a(lib_a-sscanf.o)
                              f:/PSDK3/psl1ght/ppu/lib\librt.a(socket.o) (sscanf)
f:/psdk3/ps3dev/ppu/bin/../lib/gcc/powerpc64-ps3-elf/4.5.2/../../../../powerpc64-ps3-elf/lib\libc.a(lib_a-stdio.o)
                              f:/psdk3/ps3dev/ppu/bin/../lib/gcc/powerpc64-ps3-elf/4.5.2/../../../../powerpc64-ps3-elf/lib\libc.a(lib_a-sscanf.o) (__seofread)
f:/psdk3/ps3dev/ppu/bin/../lib/gcc/powerpc64-ps3-elf/4.5.2/../../../../powerpc64-ps3-elf/lib\libc.a(lib_a-strcasecmp.o)
                              f:/PSDK3/ps3dev/portlibs/ppu/lib\libtiny3d.a(realityVP.o) (strcasecmp)
f:/psdk3/ps3dev/ppu/bin/../lib/gcc/powerpc64-ps3-elf/4.5.2/../../../../powerpc64-ps3-elf/lib\libc.a(lib_a-strlen.o)
                              f:/psdk3/ps3dev/ppu/bin/../lib/gcc/powerpc64-ps3-elf/4.5.2/../../../../powerpc64-ps3-elf/lib\libc.a(lib_a-sscanf.o) (strlen)
f:/psdk3/ps3dev/ppu/bin/../lib/gcc/powerpc64-ps3-elf/4.5.2/../../../../powerpc64-ps3-elf/lib\libc.a(lib_a-strncpy.o)
                              f:/PSDK3/psl1ght/ppu/lib\librt.a(dirent.o) (strncpy)
f:/psdk3/ps3dev/ppu/bin/../lib/gcc/powerpc64-ps3-elf/4.5.2/../../../../powerpc64-ps3-elf/lib\libc.a(lib_a-svfscanf.o)
                              f:/psdk3/ps3dev/ppu/bin/../lib/gcc/powerpc64-ps3-elf/4.5.2/../../../../powerpc64-ps3-elf/lib\libc.a(lib_a-sscanf.o) (__ssvfscanf_r)
f:/psdk3/ps3dev/ppu/bin/../lib/gcc/powerpc64-ps3-elf/4.5.2/../../../../powerpc64-ps3-elf/lib\libc.a(lib_a-vsprintf.o)
                              f:/PSDK3/ps3dev/portlibs/ppu/lib\libfont.a(libfont.o) (vsprintf)
f:/psdk3/ps3dev/ppu/bin/../lib/gcc/powerpc64-ps3-elf/4.5.2/../../../../powerpc64-ps3-elf/lib\libc.a(lib_a-__atexit.o)
                              f:/psdk3/ps3dev/ppu/bin/../lib/gcc/powerpc64-ps3-elf/4.5.2/../../../../powerpc64-ps3-elf/lib\libc.a(lib_a-atexit.o) (__register_exitproc)
f:/psdk3/ps3dev/ppu/bin/../lib/gcc/powerpc64-ps3-elf/4.5.2/../../../../powerpc64-ps3-elf/lib\libc.a(lib_a-__call_atexit.o)
                              f:/psdk3/ps3dev/ppu/bin/../lib/gcc/powerpc64-ps3-elf/4.5.2/../../../../powerpc64-ps3-elf/lib\libc.a(lib_a-exit.o) (__call_exitprocs)
f:/psdk3/ps3dev/ppu/bin/../lib/gcc/powerpc64-ps3-elf/4.5.2/../../../../powerpc64-ps3-elf/lib\libc.a(lib_a-ctype_.o)
                              f:/psdk3/ps3dev/ppu/bin/../lib/gcc/powerpc64-ps3-elf/4.5.2/../../../../powerpc64-ps3-elf/lib\libc.a(lib_a-strcasecmp.o) (__ctype_ptr__)
f:/psdk3/ps3dev/ppu/bin/../lib/gcc/powerpc64-ps3-elf/4.5.2/../../../../powerpc64-ps3-elf/lib\libc.a(lib_a-findfp.o)
                              f:/psdk3/ps3dev/ppu/bin/../lib/gcc/powerpc64-ps3-elf/4.5.2/../../../../powerpc64-ps3-elf/lib\libc.a(lib_a-svfscanf.o) (__sfp_lock_acquire)
f:/psdk3/ps3dev/ppu/bin/../lib/gcc/powerpc64-ps3-elf/4.5.2/../../../../powerpc64-ps3-elf/lib\libc.a(lib_a-freer.o)
                              f:/psdk3/ps3dev/ppu/bin/../lib/gcc/powerpc64-ps3-elf/4.5.2/../../../../powerpc64-ps3-elf/lib\libc.a(lib_a-malignr.o) (_free_r)
f:/psdk3/ps3dev/ppu/bin/../lib/gcc/powerpc64-ps3-elf/4.5.2/../../../../powerpc64-ps3-elf/lib\libc.a(lib_a-fwalk.o)
                              f:/psdk3/ps3dev/ppu/bin/../lib/gcc/powerpc64-ps3-elf/4.5.2/../../../../powerpc64-ps3-elf/lib\libc.a(lib_a-findfp.o) (_fwalk)
f:/psdk3/ps3dev/ppu/bin/../lib/gcc/powerpc64-ps3-elf/4.5.2/../../../../powerpc64-ps3-elf/lib\libc.a(lib_a-iswspace.o)
                              f:/psdk3/ps3dev/ppu/bin/../lib/gcc/powerpc64-ps3-elf/4.5.2/../../../../powerpc64-ps3-elf/lib\libc.a(lib_a-svfscanf.o) (iswspace)
f:/psdk3/ps3dev/ppu/bin/../lib/gcc/powerpc64-ps3-elf/4.5.2/../../../../powerpc64-ps3-elf/lib\libc.a(lib_a-locale.o)
                              f:/psdk3/ps3dev/ppu/bin/../lib/gcc/powerpc64-ps3-elf/4.5.2/../../../../powerpc64-ps3-elf/lib\libc.a(lib_a-svfscanf.o) (__locale_mb_cur_max)
f:/psdk3/ps3dev/ppu/bin/../lib/gcc/powerpc64-ps3-elf/4.5.2/../../../../powerpc64-ps3-elf/lib\libc.a(lib_a-lock_recursive.o)
                              f:/psdk3/ps3dev/ppu/bin/../lib/gcc/powerpc64-ps3-elf/4.5.2/../../../../powerpc64-ps3-elf/lib\libc.a(lib_a-findfp.o) (__libc_lock_init_recursive)
f:/psdk3/ps3dev/ppu/bin/../lib/gcc/powerpc64-ps3-elf/4.5.2/../../../../powerpc64-ps3-elf/lib\libc.a(lib_a-mbrtowc.o)
                              f:/psdk3/ps3dev/ppu/bin/../lib/gcc/powerpc64-ps3-elf/4.5.2/../../../../powerpc64-ps3-elf/lib\libc.a(lib_a-svfscanf.o) (_mbrtowc_r)
f:/psdk3/ps3dev/ppu/bin/../lib/gcc/powerpc64-ps3-elf/4.5.2/../../../../powerpc64-ps3-elf/lib\libc.a(lib_a-mbtowc_r.o)
                              f:/psdk3/ps3dev/ppu/bin/../lib/gcc/powerpc64-ps3-elf/4.5.2/../../../../powerpc64-ps3-elf/lib\libc.a(lib_a-mbrtowc.o) (__mbtowc)
f:/psdk3/ps3dev/ppu/bin/../lib/gcc/powerpc64-ps3-elf/4.5.2/../../../../powerpc64-ps3-elf/lib\libc.a(lib_a-s_fpclassify.o)
                              f:/psdk3/ps3dev/ppu/bin/../lib/gcc/powerpc64-ps3-elf/4.5.2/../../../../powerpc64-ps3-elf/lib\libc.a(lib_a-svfscanf.o) (__fpclassifyd)
f:/psdk3/ps3dev/ppu/bin/../lib/gcc/powerpc64-ps3-elf/4.5.2/../../../../powerpc64-ps3-elf/lib\libc.a(lib_a-sccl.o)
                              f:/psdk3/ps3dev/ppu/bin/../lib/gcc/powerpc64-ps3-elf/4.5.2/../../../../powerpc64-ps3-elf/lib\libc.a(lib_a-svfscanf.o) (__sccl)
f:/psdk3/ps3dev/ppu/bin/../lib/gcc/powerpc64-ps3-elf/4.5.2/../../../../powerpc64-ps3-elf/lib\libc.a(lib_a-sf_nan.o)
                              f:/psdk3/ps3dev/ppu/bin/../lib/gcc/powerpc64-ps3-elf/4.5.2/../../../../powerpc64-ps3-elf/lib\libc.a(lib_a-svfscanf.o) (nanf)
f:/psdk3/ps3dev/ppu/bin/../lib/gcc/powerpc64-ps3-elf/4.5.2/../../../../powerpc64-ps3-elf/lib\libc.a(lib_a-sprintf.o)
                              f:/psdk3/ps3dev/ppu/bin/../lib/gcc/powerpc64-ps3-elf/4.5.2/../../../../powerpc64-ps3-elf/lib\libc.a(lib_a-svfscanf.o) (sprintf)
f:/psdk3/ps3dev/ppu/bin/../lib/gcc/powerpc64-ps3-elf/4.5.2/../../../../powerpc64-ps3-elf/lib\libc.a(lib_a-strcmp.o)
                              f:/psdk3/ps3dev/ppu/bin/../lib/gcc/powerpc64-ps3-elf/4.5.2/../../../../powerpc64-ps3-elf/lib\libc.a(lib_a-locale.o) (strcmp)
f:/psdk3/ps3dev/ppu/bin/../lib/gcc/powerpc64-ps3-elf/4.5.2/../../../../powerpc64-ps3-elf/lib\libc.a(lib_a-strtod.o)
                              f:/psdk3/ps3dev/ppu/bin/../lib/gcc/powerpc64-ps3-elf/4.5.2/../../../../powerpc64-ps3-elf/lib\libc.a(lib_a-svfscanf.o) (_strtod_r)
f:/psdk3/ps3dev/ppu/bin/../lib/gcc/powerpc64-ps3-elf/4.5.2/../../../../powerpc64-ps3-elf/lib\libc.a(lib_a-strtol.o)
                              f:/psdk3/ps3dev/ppu/bin/../lib/gcc/powerpc64-ps3-elf/4.5.2/../../../../powerpc64-ps3-elf/lib\libc.a(lib_a-svfscanf.o) (_strtol_r)
f:/psdk3/ps3dev/ppu/bin/../lib/gcc/powerpc64-ps3-elf/4.5.2/../../../../powerpc64-ps3-elf/lib\libc.a(lib_a-strtoll_r.o)
                              f:/psdk3/ps3dev/ppu/bin/../lib/gcc/powerpc64-ps3-elf/4.5.2/../../../../powerpc64-ps3-elf/lib\libc.a(lib_a-svfscanf.o) (_strtoll_r)
f:/psdk3/ps3dev/ppu/bin/../lib/gcc/powerpc64-ps3-elf/4.5.2/../../../../powerpc64-ps3-elf/lib\libc.a(lib_a-strtoul.o)
                              f:/psdk3/ps3dev/ppu/bin/../lib/gcc/powerpc64-ps3-elf/4.5.2/../../../../powerpc64-ps3-elf/lib\libc.a(lib_a-svfscanf.o) (_strtoul_r)
f:/psdk3/ps3dev/ppu/bin/../lib/gcc/powerpc64-ps3-elf/4.5.2/../../../../powerpc64-ps3-elf/lib\libc.a(lib_a-strtoull_r.o)
                              f:/psdk3/ps3dev/ppu/bin/../lib/gcc/powerpc64-ps3-elf/4.5.2/../../../../powerpc64-ps3-elf/lib\libc.a(lib_a-svfscanf.o) (_strtoull_r)
f:/psdk3/ps3dev/ppu/bin/../lib/gcc/powerpc64-ps3-elf/4.5.2/../../../../powerpc64-ps3-elf/lib\libc.a(lib_a-svfiscanf.o)
                              f:/psdk3/ps3dev/ppu/bin/../lib/gcc/powerpc64-ps3-elf/4.5.2/../../../../powerpc64-ps3-elf/lib\libc.a(lib_a-svfscanf.o) (_sungetc_r)
f:/psdk3/ps3dev/ppu/bin/../lib/gcc/powerpc64-ps3-elf/4.5.2/../../../../powerpc64-ps3-elf/lib\libc.a(lib_a-svfprintf.o)
                              f:/psdk3/ps3dev/ppu/bin/../lib/gcc/powerpc64-ps3-elf/4.5.2/../../../../powerpc64-ps3-elf/lib\libc.a(lib_a-vsprintf.o) (_svfprintf_r)
f:/psdk3/ps3dev/ppu/bin/../lib/gcc/powerpc64-ps3-elf/4.5.2/../../../../powerpc64-ps3-elf/lib\libc.a(lib_a-ungetc.o)
                              f:/psdk3/ps3dev/ppu/bin/../lib/gcc/powerpc64-ps3-elf/4.5.2/../../../../powerpc64-ps3-elf/lib\libc.a(lib_a-svfiscanf.o) (__submore)
f:/psdk3/ps3dev/ppu/bin/../lib/gcc/powerpc64-ps3-elf/4.5.2/../../../../powerpc64-ps3-elf/lib\libc.a(lib_a-dtoa.o)
                              f:/psdk3/ps3dev/ppu/bin/../lib/gcc/powerpc64-ps3-elf/4.5.2/../../../../powerpc64-ps3-elf/lib\libc.a(lib_a-svfprintf.o) (_dtoa_r)
f:/psdk3/ps3dev/ppu/bin/../lib/gcc/powerpc64-ps3-elf/4.5.2/../../../../powerpc64-ps3-elf/lib\libc.a(lib_a-fclose.o)
                              f:/psdk3/ps3dev/ppu/bin/../lib/gcc/powerpc64-ps3-elf/4.5.2/../../../../powerpc64-ps3-elf/lib\libc.a(lib_a-findfp.o) (fclose)
f:/psdk3/ps3dev/ppu/bin/../lib/gcc/powerpc64-ps3-elf/4.5.2/../../../../powerpc64-ps3-elf/lib\libc.a(lib_a-fflush.o)
                              f:/psdk3/ps3dev/ppu/bin/../lib/gcc/powerpc64-ps3-elf/4.5.2/../../../../powerpc64-ps3-elf/lib\libc.a(lib_a-ungetc.o) (_fflush_r)
f:/psdk3/ps3dev/ppu/bin/../lib/gcc/powerpc64-ps3-elf/4.5.2/../../../../powerpc64-ps3-elf/lib\libc.a(lib_a-gdtoa-gethex.o)
                              f:/psdk3/ps3dev/ppu/bin/../lib/gcc/powerpc64-ps3-elf/4.5.2/../../../../powerpc64-ps3-elf/lib\libc.a(lib_a-strtod.o) (__gethex)
f:/psdk3/ps3dev/ppu/bin/../lib/gcc/powerpc64-ps3-elf/4.5.2/../../../../powerpc64-ps3-elf/lib\libc.a(lib_a-gdtoa-hexnan.o)
                              f:/psdk3/ps3dev/ppu/bin/../lib/gcc/powerpc64-ps3-elf/4.5.2/../../../../powerpc64-ps3-elf/lib\libc.a(lib_a-strtod.o) (__hexnan)
f:/psdk3/ps3dev/ppu/bin/../lib/gcc/powerpc64-ps3-elf/4.5.2/../../../../powerpc64-ps3-elf/lib\libc.a(lib_a-lock_internal.o)
                              f:/psdk3/ps3dev/ppu/bin/../lib/gcc/powerpc64-ps3-elf/4.5.2/../../../../powerpc64-ps3-elf/lib\libc.a(lib_a-lock_recursive.o) (__libc_auto_lock_allocate)
f:/psdk3/ps3dev/ppu/bin/../lib/gcc/powerpc64-ps3-elf/4.5.2/../../../../powerpc64-ps3-elf/lib\libc.a(lib_a-memchr.o)
                              f:/psdk3/ps3dev/ppu/bin/../lib/gcc/powerpc64-ps3-elf/4.5.2/../../../../powerpc64-ps3-elf/lib\libc.a(lib_a-svfprintf.o) (memchr)
f:/psdk3/ps3dev/ppu/bin/../lib/gcc/powerpc64-ps3-elf/4.5.2/../../../../powerpc64-ps3-elf/lib\libc.a(lib_a-mprec.o)
                              f:/psdk3/ps3dev/ppu/bin/../lib/gcc/powerpc64-ps3-elf/4.5.2/../../../../powerpc64-ps3-elf/lib\libc.a(lib_a-strtod.o) (_Balloc)
f:/psdk3/ps3dev/ppu/bin/../lib/gcc/powerpc64-ps3-elf/4.5.2/../../../../powerpc64-ps3-elf/lib\libc.a(lib_a-reallocr.o)
                              f:/psdk3/ps3dev/ppu/bin/../lib/gcc/powerpc64-ps3-elf/4.5.2/../../../../powerpc64-ps3-elf/lib\libc.a(lib_a-ungetc.o) (_realloc_r)
f:/psdk3/ps3dev/ppu/bin/../lib/gcc/powerpc64-ps3-elf/4.5.2/../../../../powerpc64-ps3-elf/lib\libc.a(lib_a-strncmp.o)
                              f:/psdk3/ps3dev/ppu/bin/../lib/gcc/powerpc64-ps3-elf/4.5.2/../../../../powerpc64-ps3-elf/lib\libc.a(lib_a-strtod.o) (strncmp)
f:/psdk3/ps3dev/ppu/bin/../lib/gcc/powerpc64-ps3-elf/4.5.2/../../../../powerpc64-ps3-elf/lib\libc.a(lib_a-svfiprintf.o)
                              f:/psdk3/ps3dev/ppu/bin/../lib/gcc/powerpc64-ps3-elf/4.5.2/../../../../powerpc64-ps3-elf/lib\libc.a(lib_a-svfprintf.o) (__ssprint_r)
f:/psdk3/ps3dev/ppu/bin/../lib/gcc/powerpc64-ps3-elf/4.5.2/../../../../powerpc64-ps3-elf/lib\libc.a(lib_a-abort.o)
                              f:/psdk3/ps3dev/ppu/bin/../lib/gcc/powerpc64-ps3-elf/4.5.2/../../../../powerpc64-ps3-elf/lib\libc.a(lib_a-lock_internal.o) (abort)
f:/psdk3/ps3dev/ppu/bin/../lib/gcc/powerpc64-ps3-elf/4.5.2/../../../../powerpc64-ps3-elf/lib\libc.a(lib_a-callocr.o)
                              f:/psdk3/ps3dev/ppu/bin/../lib/gcc/powerpc64-ps3-elf/4.5.2/../../../../powerpc64-ps3-elf/lib\libc.a(lib_a-mprec.o) (_calloc_r)
f:/psdk3/ps3dev/ppu/bin/../lib/gcc/powerpc64-ps3-elf/4.5.2/../../../../powerpc64-ps3-elf/lib\libc.a(lib_a-memmove.o)
                              f:/psdk3/ps3dev/ppu/bin/../lib/gcc/powerpc64-ps3-elf/4.5.2/../../../../powerpc64-ps3-elf/lib\libc.a(lib_a-reallocr.o) (memmove)
f:/psdk3/ps3dev/ppu/bin/../lib/gcc/powerpc64-ps3-elf/4.5.2/../../../../powerpc64-ps3-elf/lib\libc.a(lib_a-signal.o)
                              f:/psdk3/ps3dev/ppu/bin/../lib/gcc/powerpc64-ps3-elf/4.5.2/../../../../powerpc64-ps3-elf/lib\libc.a(lib_a-abort.o) (raise)
f:/psdk3/ps3dev/ppu/bin/../lib/gcc/powerpc64-ps3-elf/4.5.2/../../../../powerpc64-ps3-elf/lib\libsysbase.a(close.o)
                              f:/psdk3/ps3dev/ppu/bin/../lib/gcc/powerpc64-ps3-elf/4.5.2/../../../../powerpc64-ps3-elf/lib\libc.a(lib_a-stdio.o) (_close_r)
f:/psdk3/ps3dev/ppu/bin/../lib/gcc/powerpc64-ps3-elf/4.5.2/../../../../powerpc64-ps3-elf/lib\libsysbase.a(sbrk.o)
                              f:/psdk3/ps3dev/ppu/bin/../lib/gcc/powerpc64-ps3-elf/4.5.2/../../../../powerpc64-ps3-elf/lib\libc.a(lib_a-mallocr.o) (_sbrk_r)
f:/psdk3/ps3dev/ppu/bin/../lib/gcc/powerpc64-ps3-elf/4.5.2/../../../../powerpc64-ps3-elf/lib\libsysbase.a(_exit.o)
                              f:/psdk3/ps3dev/ppu/bin/../lib/gcc/powerpc64-ps3-elf/4.5.2/../../../../powerpc64-ps3-elf/lib\libc.a(lib_a-exit.o) (_exit)
f:/psdk3/ps3dev/ppu/bin/../lib/gcc/powerpc64-ps3-elf/4.5.2/../../../../powerpc64-ps3-elf/lib\libsysbase.a(lseek.o)
                              f:/psdk3/ps3dev/ppu/bin/../lib/gcc/powerpc64-ps3-elf/4.5.2/../../../../powerpc64-ps3-elf/lib\libc.a(lib_a-stdio.o) (_lseek_r)
f:/psdk3/ps3dev/ppu/bin/../lib/gcc/powerpc64-ps3-elf/4.5.2/../../../../powerpc64-ps3-elf/lib\libsysbase.a(read.o)
                              f:/psdk3/ps3dev/ppu/bin/../lib/gcc/powerpc64-ps3-elf/4.5.2/../../../../powerpc64-ps3-elf/lib\libc.a(lib_a-stdio.o) (_read_r)
f:/psdk3/ps3dev/ppu/bin/../lib/gcc/powerpc64-ps3-elf/4.5.2/../../../../powerpc64-ps3-elf/lib\libsysbase.a(write.o)
                              f:/psdk3/ps3dev/ppu/bin/../lib/gcc/powerpc64-ps3-elf/4.5.2/../../../../powerpc64-ps3-elf/lib\libc.a(lib_a-stdio.o) (_write_r)
f:/psdk3/ps3dev/ppu/bin/../lib/gcc/powerpc64-ps3-elf/4.5.2/../../../../powerpc64-ps3-elf/lib\libsysbase.a(lock.o)
                              f:/psdk3/ps3dev/ppu/bin/../lib/gcc/powerpc64-ps3-elf/4.5.2/../../../../powerpc64-ps3-elf/lib\libc.a(lib_a-lock_recursive.o) (sys_lwmutex_create)
f:/psdk3/ps3dev/ppu/bin/../lib/gcc/powerpc64-ps3-elf/4.5.2/../../../../powerpc64-ps3-elf/lib\libsysbase.a(getpid.o)
                              f:/psdk3/ps3dev/ppu/bin/../lib/gcc/powerpc64-ps3-elf/4.5.2/../../../../powerpc64-ps3-elf/lib\libc.a(lib_a-signal.o) (_getpid_r)
f:/psdk3/ps3dev/ppu/bin/../lib/gcc/powerpc64-ps3-elf/4.5.2/../../../../powerpc64-ps3-elf/lib\libsysbase.a(kill.o)
                              f:/psdk3/ps3dev/ppu/bin/../lib/gcc/powerpc64-ps3-elf/4.5.2/../../../../powerpc64-ps3-elf/lib\libc.a(lib_a-signal.o) (_kill_r)

Allocating common symbols
Common symbol       size              file

Video_buffer        0x10              f:/PSDK3/ps3dev/portlibs/ppu/lib\libtiny3d.a(rsxutil.o)
Video_aspect        0x1               f:/PSDK3/ps3dev/portlibs/ppu/lib\libtiny3d.a(rsxutil.o)
Video_pitch         0x4               f:/PSDK3/ps3dev/portlibs/ppu/lib\libtiny3d.a(rsxutil.o)
__hexdig            0x100             f:/psdk3/ps3dev/ppu/bin/../lib/gcc/powerpc64-ps3-elf/4.5.2/../../../../powerpc64-ps3-elf/lib\libc.a(lib_a-gdtoa-gethex.o)
texture             0x60              main.o
context             0x8               f:/PSDK3/ps3dev/portlibs/ppu/lib\libtiny3d.a(rsxutil.o)
heap_pointer        0x8               f:/PSDK3/ps3dev/portlibs/ppu/lib\libtiny3d.a(mm.o)
Video_Resolution    0x4               f:/PSDK3/ps3dev/portlibs/ppu/lib\libtiny3d.a(rsxutil.o)
png1                0x18              main.o
config              0x18              f:/PSDK3/ps3dev/portlibs/ppu/lib\libtiny3d.a(mm.o)

Discarded input sections

 .note.GNU-stack
                0x0000000000000000        0x0 f:/PSDK3/psl1ght/ppu/lib\libgcm_sys.a(sprx.o)
 .note.GNU-stack
                0x0000000000000000        0x0 f:/PSDK3/psl1ght/ppu/lib\libio.a(sprx.o)
 .note.GNU-stack
                0x0000000000000000        0x0 f:/PSDK3/psl1ght/ppu/lib\libsysutil.a(sprx.o)
 .note.GNU-stack
                0x0000000000000000        0x0 f:/PSDK3/psl1ght/ppu/lib\liblv2.a(sprx.o)
 .note.GNU-stack
                0x0000000000000000        0x0 f:/PSDK3/psl1ght/ppu/lib\libpngdec.a(sprx.o)
 .note.GNU-stack
                0x0000000000000000        0x0 f:/PSDK3/psl1ght/ppu/lib\libsysmodule.a(sprx.o)

Memory Configuration

Name             Origin             Length             Attributes
*default*        0x0000000000000000 0xffffffffffffffff

Linker script and memory map

                0x0000000000010000                PROVIDE (__executable_start, 0x10000)
                0x0000000000010200                . = (0x10000 + SIZEOF_HEADERS)

.interp
 *(.interp)

.hash
 *(.hash)

.dynsym
 *(.dynsym)

.dynstr
 *(.dynstr)

.gnu.version
 *(.gnu.version)

.gnu.version_d
 *(.gnu.version_d)

.gnu.version_r
 *(.gnu.version_r)

.rel.dyn
 *(.rel.init)
 *(.rel.text .rel.text.* .rel.gnu.linkonce.t.*)
 *(.rel.fini)
 *(.rel.rodata .rel.rodata.* .rel.gnu.linkonce.r.*)
 *(.rel.data.rel.ro*)
 *(.rel.data .rel.data.* .rel.gnu.linkonce.d.*)
 *(.rel.tdata .rel.tdata.* .rel.gnu.linkonce.td.*)
 *(.rel.tbss .rel.tbss.* .rel.gnu.linkonce.tb.*)
 *(.rel.ctors)
 *(.rel.dtors)
 *(.rel.got)
 *(.rel.sdata .rel.sdata.* .rel.gnu.linkonce.s.*)
 *(.rel.sbss .rel.sbss.* .rel.gnu.linkonce.sb.*)
 *(.rel.sdata2 .rel.sdata2.* .rel.gnu.linkonce.s2.*)
 *(.rel.sbss2 .rel.sbss2.* .rel.gnu.linkonce.sb2.*)
 *(.rel.bss .rel.bss.* .rel.gnu.linkonce.b.*)

.rela.dyn       0x0000000000010200        0x0
 *(.rela.init)
 *(.rela.text .rela.text.* .rela.gnu.linkonce.t.*)
 *(.rela.fini)
 *(.rela.rodata .rela.rodata.* .rela.gnu.linkonce.r.*)
 *(.rela.data .rela.data.* .rela.gnu.linkonce.d.*)
 *(.rela.tdata .rela.tdata.* .rela.gnu.linkonce.td.*)
 *(.rela.tbss .rela.tbss.* .rela.gnu.linkonce.tb.*)
 *(.rela.ctors)
 *(.rela.dtors)
 *(.rela.got)
 *(.rela.toc)
 .rela.toc      0x0000000000000000        0x0 linker stubs
 *(.rela.sdata .rela.sdata.* .rela.gnu.linkonce.s.*)
 *(.rela.sbss .rela.sbss.* .rela.gnu.linkonce.sb.*)
 *(.rela.sdata2 .rela.sdata2.* .rela.gnu.linkonce.s2.*)
 *(.rela.sbss2 .rela.sbss2.* .rela.gnu.linkonce.sb2.*)
 *(.rela.bss .rela.bss.* .rela.gnu.linkonce.b.*)
 .rela.iplt     0x0000000000000000        0x0 linker stubs
 .rela.sys_proc_prx_param
                0x0000000000000000        0x0 linker stubs
 .rela.opd      0x0000000000000000        0x0 linker stubs

.rel.plt
 *(.rel.plt)

.rela.plt
 *(.rela.plt)

.rela.tocbss
 *(.rela.tocbss)

.init           0x0000000000010200       0x2c
 *(.init)
 .init          0x0000000000010200        0xc f:/psdk3/ps3dev/ppu/bin/../lib/gcc/powerpc64-ps3-elf/4.5.2/../../../../powerpc64-ps3-elf/lib/lv2-crti.o
                0x0000000000010200                ._init
 .init          0x000000000001020c        0x8 f:/psdk3/ps3dev/ppu/bin/../lib/gcc/powerpc64-ps3-elf/4.5.2/crtbegin.o
 .init          0x0000000000010214        0x8 f:/psdk3/ps3dev/ppu/bin/../lib/gcc/powerpc64-ps3-elf/4.5.2/crtend.o
 .init          0x000000000001021c       0x10 f:/psdk3/ps3dev/ppu/bin/../lib/gcc/powerpc64-ps3-elf/4.5.2/../../../../powerpc64-ps3-elf/lib/lv2-crtn.o

.text           0x0000000000010230    0x221f4
 *(.text .stub .text.* .gnu.linkonce.t.*)
 .text          0x0000000000010230        0x0 f:/psdk3/ps3dev/ppu/bin/../lib/gcc/powerpc64-ps3-elf/4.5.2/../../../../powerpc64-ps3-elf/lib/lv2-crti.o
 .text          0x0000000000010230        0x0 f:/psdk3/ps3dev/ppu/bin/../lib/gcc/powerpc64-ps3-elf/4.5.2/crtbegin.o
 .text.__do_global_dtors_aux
                0x0000000000010230       0xc8 f:/psdk3/ps3dev/ppu/bin/../lib/gcc/powerpc64-ps3-elf/4.5.2/crtbegin.o
 .text.frame_dummy
                0x00000000000102f8       0x70 f:/psdk3/ps3dev/ppu/bin/../lib/gcc/powerpc64-ps3-elf/4.5.2/crtbegin.o
 .text          0x0000000000010368       0x58 f:/psdk3/ps3dev/ppu/bin/../lib/gcc/powerpc64-ps3-elf/4.5.2/../../../../powerpc64-ps3-elf/lib/lv2-crt0.o
                0x0000000000010368                ._start
 .text.__syscalls_init
                0x00000000000103c0      0x15c f:/psdk3/ps3dev/ppu/bin/../lib/gcc/powerpc64-ps3-elf/4.5.2/../../../../powerpc64-ps3-elf/lib/lv2-crt0.o
 *fill*         0x000000000001051c        0x4 60000000
 .text._initialize
                0x0000000000010520       0x40 f:/psdk3/ps3dev/ppu/bin/../lib/gcc/powerpc64-ps3-elf/4.5.2/../../../../powerpc64-ps3-elf/lib/lv2-crt0.o
                0x0000000000010520                ._initialize
 .text          0x0000000000010560        0x0 f:/psdk3/ps3dev/ppu/bin/../lib/gcc/powerpc64-ps3-elf/4.5.2/../../../../powerpc64-ps3-elf/lib/lv2-sprx.o
 .text          0x0000000000010560        0x0 picture_png.bin.o
 .text          0x0000000000010560        0x0 main.o
 .text.exiting  0x0000000000010560       0x34 main.o
                0x0000000000010560                .exiting
 *fill*         0x0000000000010594        0x4 60000000
 .text.DrawSquare
                0x0000000000010598      0x130 main.o
                0x0000000000010598                .DrawSquare
 .text.DrawColorSquare
                0x00000000000106c8      0x168 main.o
                0x00000000000106c8                .DrawColorSquare
 .text.drawScene
                0x0000000000010830      0x2bc main.o
                0x0000000000010830                .drawScene
 *fill*         0x0000000000010aec        0x4 60000000
 .text.Load_PNG
                0x0000000000010af0       0x40 main.o
                0x0000000000010af0                .Load_PNG
 .text.build_AYUV_32bits
                0x0000000000010b30      0x200 main.o
                0x0000000000010b30                .build_AYUV_32bits
 .text.build_Y_8bits
                0x0000000000010d30      0x134 main.o
                0x0000000000010d30                .build_Y_8bits
 *fill*         0x0000000000010e64        0x4 60000000
 .text.build_U_8bits
                0x0000000000010e68      0x130 main.o
                0x0000000000010e68                .build_U_8bits
 .text.build_V_8bits
                0x0000000000010f98      0x130 main.o
                0x0000000000010f98                .build_V_8bits
 .text.LoadTexture
                0x00000000000110c8      0x1b8 main.o
                0x00000000000110c8                .LoadTexture
 .text.main     0x0000000000011280      0x160 main.o
                0x0000000000011280                .main
 .text          0x00000000000113e0        0x0 msxfont.o
 .text          0x00000000000113e0        0x0 f:/PSDK3/ps3dev/portlibs/ppu/lib\libfont.a(libfont.o)
 .text.i_must_break_line
                0x00000000000113e0      0x130 f:/PSDK3/ps3dev/portlibs/ppu/lib\libfont.a(libfont.o)
 .text.ResetFont
                0x0000000000011510       0x7c f:/PSDK3/ps3dev/portlibs/ppu/lib\libfont.a(libfont.o)
                0x0000000000011510                .ResetFont
 *fill*         0x000000000001158c        0x4 60000000
 .text.AddFontFromBitmapArray
                0x0000000000011590      0x428 f:/PSDK3/ps3dev/portlibs/ppu/lib\libfont.a(libfont.o)
                0x0000000000011590                .AddFontFromBitmapArray
 .text.AddFontFromTTF
                0x00000000000119b8      0x3a8 f:/PSDK3/ps3dev/portlibs/ppu/lib\libfont.a(libfont.o)
                0x00000000000119b8                .AddFontFromTTF
 .text.SetCurrentFont
                0x0000000000011d60       0x4c f:/PSDK3/ps3dev/portlibs/ppu/lib\libfont.a(libfont.o)
                0x0000000000011d60                .SetCurrentFont
 *fill*         0x0000000000011dac        0x4 60000000
 .text.SetFontSize
                0x0000000000011db0       0x34 f:/PSDK3/ps3dev/portlibs/ppu/lib\libfont.a(libfont.o)
                0x0000000000011db0                .SetFontSize
 *fill*         0x0000000000011de4        0x4 60000000
 .text.SetFontColor
                0x0000000000011de8       0x1c f:/PSDK3/ps3dev/portlibs/ppu/lib\libfont.a(libfont.o)
                0x0000000000011de8                .SetFontColor
 *fill*         0x0000000000011e04        0x4 60000000
 .text.SetFontTextureMethod
                0x0000000000011e08       0x18 f:/PSDK3/ps3dev/portlibs/ppu/lib\libfont.a(libfont.o)
                0x0000000000011e08                .SetFontTextureMethod
 .text.SetDoubleTextureModule
                0x0000000000011e20       0x1c f:/PSDK3/ps3dev/portlibs/ppu/lib\libfont.a(libfont.o)
                0x0000000000011e20                .SetDoubleTextureModule
 *fill*         0x0000000000011e3c        0x4 60000000
 .text.SetFontAutoCenter
                0x0000000000011e40       0x20 f:/PSDK3/ps3dev/portlibs/ppu/lib\libfont.a(libfont.o)
                0x0000000000011e40                .SetFontAutoCenter
 .text.SetFontAutoNewLine
                0x0000000000011e60       0x20 f:/PSDK3/ps3dev/portlibs/ppu/lib\libfont.a(libfont.o)
                0x0000000000011e60                .SetFontAutoNewLine
 .text.SetFontZ
                0x0000000000011e80       0x18 f:/PSDK3/ps3dev/portlibs/ppu/lib\libfont.a(libfont.o)
                0x0000000000011e80                .SetFontZ
 .text.GetFontX
                0x0000000000011e98       0x18 f:/PSDK3/ps3dev/portlibs/ppu/lib\libfont.a(libfont.o)
                0x0000000000011e98                .GetFontX
 .text.GetFontY
                0x0000000000011eb0       0x18 f:/PSDK3/ps3dev/portlibs/ppu/lib\libfont.a(libfont.o)
                0x0000000000011eb0                .GetFontY
 .text.SetFontScreenLimits
                0x0000000000011ec8       0x1c f:/PSDK3/ps3dev/portlibs/ppu/lib\libfont.a(libfont.o)
                0x0000000000011ec8                .SetFontScreenLimits
 *fill*         0x0000000000011ee4        0x4 60000000
 .text.DrawChar
                0x0000000000011ee8      0xa34 f:/PSDK3/ps3dev/portlibs/ppu/lib\libfont.a(libfont.o)
                0x0000000000011ee8                .DrawChar
 *fill*         0x000000000001291c        0x4 60000000
 .text.DrawString
                0x0000000000012920      0x2f0 f:/PSDK3/ps3dev/portlibs/ppu/lib\libfont.a(libfont.o)
                0x0000000000012920                .DrawString
 .text.DrawFormatString
                0x0000000000012c10      0x320 f:/PSDK3/ps3dev/portlibs/ppu/lib\libfont.a(libfont.o)
                0x0000000000012c10                .DrawFormatString
 .text          0x0000000000012f30        0x0 f:/PSDK3/ps3dev/portlibs/ppu/lib\libtiny3d.a(tiny3d.o)
 .text.push_list_cmd
                0x0000000000012f30      0x154 f:/PSDK3/ps3dev/portlibs/ppu/lib\libtiny3d.a(tiny3d.o)
 *fill*         0x0000000000013084        0x4 60000000
 .text.rsxtiny_SetVertexProgramConstant3f
                0x0000000000013088       0x58 f:/PSDK3/ps3dev/portlibs/ppu/lib\libtiny3d.a(tiny3d.o)
 .text.Update_With_Normal
                0x00000000000130e0      0x2a0 f:/PSDK3/ps3dev/portlibs/ppu/lib\libtiny3d.a(tiny3d.o)
 .text.set_shader_context
                0x0000000000013380      0x398 f:/PSDK3/ps3dev/portlibs/ppu/lib\libtiny3d.a(tiny3d.o)
 .text.put_vertex
                0x0000000000013718      0x258 f:/PSDK3/ps3dev/portlibs/ppu/lib\libtiny3d.a(tiny3d.o)
 .text.push_normal_list
                0x0000000000013970      0x1c4 f:/PSDK3/ps3dev/portlibs/ppu/lib\libtiny3d.a(tiny3d.o)
 *fill*         0x0000000000013b34        0x4 60000000
 .text.push_position_list
                0x0000000000013b38      0x1f0 f:/PSDK3/ps3dev/portlibs/ppu/lib\libtiny3d.a(tiny3d.o)
 .text.tiny3d_callback
                0x0000000000013d28      0x1a0 f:/PSDK3/ps3dev/portlibs/ppu/lib\libtiny3d.a(tiny3d.o)
 .text.tiny3d_Exit
                0x0000000000013ec8      0x1ec f:/PSDK3/ps3dev/portlibs/ppu/lib\libtiny3d.a(tiny3d.o)
                0x0000000000013ec8                .tiny3d_Exit
 *fill*         0x00000000000140b4        0x4 60000000
 .text.tiny3d_alarm
                0x00000000000140b8       0x10 f:/PSDK3/ps3dev/portlibs/ppu/lib\libtiny3d.a(tiny3d.o)
                0x00000000000140b8                .tiny3d_alarm
 .text.tiny3d_RecordList
                0x00000000000140c8       0xa4 f:/PSDK3/ps3dev/portlibs/ppu/lib\libtiny3d.a(tiny3d.o)
                0x00000000000140c8                .tiny3d_RecordList
 *fill*         0x000000000001416c        0x4 60000000
 .text.tiny3d_StopList
                0x0000000000014170      0x138 f:/PSDK3/ps3dev/portlibs/ppu/lib\libtiny3d.a(tiny3d.o)
                0x0000000000014170                .tiny3d_StopList
 .text.tiny3d_FreeList
                0x00000000000142a8       0xcc f:/PSDK3/ps3dev/portlibs/ppu/lib\libtiny3d.a(tiny3d.o)
                0x00000000000142a8                .tiny3d_FreeList
 *fill*         0x0000000000014374        0x4 60000000
 .text.tiny3d_DynamicMatrixList
                0x0000000000014378       0xec f:/PSDK3/ps3dev/portlibs/ppu/lib\libtiny3d.a(tiny3d.o)
                0x0000000000014378                .tiny3d_DynamicMatrixList
 *fill*         0x0000000000014464        0x4 60000000
 .text.tiny3d_ApplyMatrixList
                0x0000000000014468       0xc8 f:/PSDK3/ps3dev/portlibs/ppu/lib\libtiny3d.a(tiny3d.o)
                0x0000000000014468                .tiny3d_ApplyMatrixList
 .text.tiny3d_Init
                0x0000000000014530      0x4ec f:/PSDK3/ps3dev/portlibs/ppu/lib\libtiny3d.a(tiny3d.o)
                0x0000000000014530                .tiny3d_Init
 *fill*         0x0000000000014a1c        0x4 60000000
 .text.tiny3d_SetPolygon
                0x0000000000014a20      0x228 f:/PSDK3/ps3dev/portlibs/ppu/lib\libtiny3d.a(tiny3d.o)
                0x0000000000014a20                .tiny3d_SetPolygon
 .text.tiny3d_VertexPos
                0x0000000000014c48       0xcc f:/PSDK3/ps3dev/portlibs/ppu/lib\libtiny3d.a(tiny3d.o)
                0x0000000000014c48                .tiny3d_VertexPos
 *fill*         0x0000000000014d14        0x4 60000000
 .text.tiny3d_VertexPos4
                0x0000000000014d18       0xd0 f:/PSDK3/ps3dev/portlibs/ppu/lib\libtiny3d.a(tiny3d.o)
                0x0000000000014d18                .tiny3d_VertexPos4
 .text.tiny3d_VertexPosVector
                0x0000000000014de8       0xe0 f:/PSDK3/ps3dev/portlibs/ppu/lib\libtiny3d.a(tiny3d.o)
                0x0000000000014de8                .tiny3d_VertexPosVector
 .text.tiny3d_VertexColor
                0x0000000000014ec8       0xb4 f:/PSDK3/ps3dev/portlibs/ppu/lib\libtiny3d.a(tiny3d.o)
                0x0000000000014ec8                .tiny3d_VertexColor
 *fill*         0x0000000000014f7c        0x4 60000000
 .text.tiny3d_VertexFcolor
                0x0000000000014f80      0x104 f:/PSDK3/ps3dev/portlibs/ppu/lib\libtiny3d.a(tiny3d.o)
                0x0000000000014f80                .tiny3d_VertexFcolor
 *fill*         0x0000000000015084        0x4 60000000
 .text.tiny3d_VertexTexture
                0x0000000000015088       0xbc f:/PSDK3/ps3dev/portlibs/ppu/lib\libtiny3d.a(tiny3d.o)
                0x0000000000015088                .tiny3d_VertexTexture
 *fill*         0x0000000000015144        0x4 60000000
 .text.tiny3d_VertexTexture2
                0x0000000000015148       0xcc f:/PSDK3/ps3dev/portlibs/ppu/lib\libtiny3d.a(tiny3d.o)
                0x0000000000015148                .tiny3d_VertexTexture2
 *fill*         0x0000000000015214        0x4 60000000
 .text.tiny3d_Normal
                0x0000000000015218       0x48 f:/PSDK3/ps3dev/portlibs/ppu/lib\libtiny3d.a(tiny3d.o)
                0x0000000000015218                .tiny3d_Normal
 .text.tiny3d_NormalVector
                0x0000000000015260       0x58 f:/PSDK3/ps3dev/portlibs/ppu/lib\libtiny3d.a(tiny3d.o)
                0x0000000000015260                .tiny3d_NormalVector
 .text.tiny3d_End
                0x00000000000152b8      0x690 f:/PSDK3/ps3dev/portlibs/ppu/lib\libtiny3d.a(tiny3d.o)
                0x00000000000152b8                .tiny3d_End
 .text.tiny3d_SetMatrixModelView
                0x0000000000015948      0x278 f:/PSDK3/ps3dev/portlibs/ppu/lib\libtiny3d.a(tiny3d.o)
                0x0000000000015948                .tiny3d_SetMatrixModelView
 .text.tiny3d_SetProjectionMatrix
                0x0000000000015bc0       0xd8 f:/PSDK3/ps3dev/portlibs/ppu/lib\libtiny3d.a(tiny3d.o)
                0x0000000000015bc0                .tiny3d_SetProjectionMatrix
 .text.tiny3d_Flip
                0x0000000000015c98       0xf8 f:/PSDK3/ps3dev/portlibs/ppu/lib\libtiny3d.a(tiny3d.o)
                0x0000000000015c98                .tiny3d_Flip
 .text.tiny3d_UserViewport
                0x0000000000015d90       0x5c f:/PSDK3/ps3dev/portlibs/ppu/lib\libtiny3d.a(tiny3d.o)
                0x0000000000015d90                .tiny3d_UserViewport
 *fill*         0x0000000000015dec        0x4 60000000
 .text.tiny3d_UserViewport2
                0x0000000000015df0       0x58 f:/PSDK3/ps3dev/portlibs/ppu/lib\libtiny3d.a(tiny3d.o)
                0x0000000000015df0                .tiny3d_UserViewport2
 .text.tiny3d_UserViewportSurface
                0x0000000000015e48       0x28 f:/PSDK3/ps3dev/portlibs/ppu/lib\libtiny3d.a(tiny3d.o)
                0x0000000000015e48                .tiny3d_UserViewportSurface
 .text.tiny3d_Project2D
                0x0000000000015e70      0x310 f:/PSDK3/ps3dev/portlibs/ppu/lib\libtiny3d.a(tiny3d.o)
                0x0000000000015e70                .tiny3d_Project2D
 .text.tiny3d_Project3D
                0x0000000000016180      0x254 f:/PSDK3/ps3dev/portlibs/ppu/lib\libtiny3d.a(tiny3d.o)
                0x0000000000016180                .tiny3d_Project3D
 *fill*         0x00000000000163d4        0x4 60000000
 .text.tiny3d_Clear
                0x00000000000163d8      0x330 f:/PSDK3/ps3dev/portlibs/ppu/lib\libtiny3d.a(tiny3d.o)
                0x00000000000163d8                .tiny3d_Clear
 .text.tiny3d_ClearSurface
                0x0000000000016708      0x204 f:/PSDK3/ps3dev/portlibs/ppu/lib\libtiny3d.a(tiny3d.o)
                0x0000000000016708                .tiny3d_ClearSurface
 *fill*         0x000000000001690c        0x4 60000000
 .text.tiny3d_AlphaTest
                0x0000000000016910       0x88 f:/PSDK3/ps3dev/portlibs/ppu/lib\libtiny3d.a(tiny3d.o)
                0x0000000000016910                .tiny3d_AlphaTest
 .text.tiny3d_BlendFunc
                0x0000000000016998       0x84 f:/PSDK3/ps3dev/portlibs/ppu/lib\libtiny3d.a(tiny3d.o)
                0x0000000000016998                .tiny3d_BlendFunc
 *fill*         0x0000000000016a1c        0x4 60000000
 .text.tiny3d_SetTextureWrap
                0x0000000000016a20      0x288 f:/PSDK3/ps3dev/portlibs/ppu/lib\libtiny3d.a(tiny3d.o)
                0x0000000000016a20                .tiny3d_SetTextureWrap
 .text.tiny3d_SetTexture
                0x0000000000016ca8      0x1e4 f:/PSDK3/ps3dev/portlibs/ppu/lib\libtiny3d.a(tiny3d.o)
                0x0000000000016ca8                .tiny3d_SetTexture
 *fill*         0x0000000000016e8c        0x4 60000000
 .text.tiny3d_AllocTexture
                0x0000000000016e90       0x38 f:/PSDK3/ps3dev/portlibs/ppu/lib\libtiny3d.a(tiny3d.o)
                0x0000000000016e90                .tiny3d_AllocTexture
 .text.tiny3d_TextureOffset
                0x0000000000016ec8       0x40 f:/PSDK3/ps3dev/portlibs/ppu/lib\libtiny3d.a(tiny3d.o)
                0x0000000000016ec8                .tiny3d_TextureOffset
 .text.tiny3d_EmissiveMaterial
                0x0000000000016f08       0xf4 f:/PSDK3/ps3dev/portlibs/ppu/lib\libtiny3d.a(tiny3d.o)
                0x0000000000016f08                .tiny3d_EmissiveMaterial
 *fill*         0x0000000000016ffc        0x4 60000000
 .text.tiny3d_AmbientMaterial
                0x0000000000017000       0xf4 f:/PSDK3/ps3dev/portlibs/ppu/lib\libtiny3d.a(tiny3d.o)
                0x0000000000017000                .tiny3d_AmbientMaterial
 *fill*         0x00000000000170f4        0x4 60000000
 .text.tiny3d_DiffuseMaterial
                0x00000000000170f8       0xf4 f:/PSDK3/ps3dev/portlibs/ppu/lib\libtiny3d.a(tiny3d.o)
                0x00000000000170f8                .tiny3d_DiffuseMaterial
 *fill*         0x00000000000171ec        0x4 60000000
 .text.tiny3d_SpecularMaterial
                0x00000000000171f0       0xf4 f:/PSDK3/ps3dev/portlibs/ppu/lib\libtiny3d.a(tiny3d.o)
                0x00000000000171f0                .tiny3d_SpecularMaterial
 *fill*         0x00000000000172e4        0x4 60000000
 .text.tiny3d_SetLightCameraPosition
                0x00000000000172e8       0x38 f:/PSDK3/ps3dev/portlibs/ppu/lib\libtiny3d.a(tiny3d.o)
                0x00000000000172e8                .tiny3d_SetLightCameraPosition
 .text.tiny3d_SetLight
                0x0000000000017320       0x90 f:/PSDK3/ps3dev/portlibs/ppu/lib\libtiny3d.a(tiny3d.o)
                0x0000000000017320                .tiny3d_SetLight
 .text.tiny3d_SetLightsOff
                0x00000000000173b0       0x38 f:/PSDK3/ps3dev/portlibs/ppu/lib\libtiny3d.a(tiny3d.o)
                0x00000000000173b0                .tiny3d_SetLightsOff
 .text.tiny3d_SetAmbientLight
                0x00000000000173e8       0x38 f:/PSDK3/ps3dev/portlibs/ppu/lib\libtiny3d.a(tiny3d.o)
                0x00000000000173e8                .tiny3d_SetAmbientLight
 .text.tiny3d_SelMultiTexturesMethod
                0x0000000000017420       0xac f:/PSDK3/ps3dev/portlibs/ppu/lib\libtiny3d.a(tiny3d.o)
                0x0000000000017420                .tiny3d_SelMultiTexturesMethod
 *fill*         0x00000000000174cc        0x4 60000000
 .text.tiny3d_DrawList
                0x00000000000174d0      0x65c f:/PSDK3/ps3dev/portlibs/ppu/lib\libtiny3d.a(tiny3d.o)
                0x00000000000174d0                .tiny3d_DrawList
 *fill*         0x0000000000017b2c        0x4 60000000
 .text.tiny3d_MenuActive
                0x0000000000017b30       0x1c f:/PSDK3/ps3dev/portlibs/ppu/lib\libtiny3d.a(tiny3d.o)
                0x0000000000017b30                .tiny3d_MenuActive
 *fill*         0x0000000000017b4c        0x4 60000000
 .text.tiny3d_Enable_YUV
                0x0000000000017b50       0x2c f:/PSDK3/ps3dev/portlibs/ppu/lib\libtiny3d.a(tiny3d.o)
                0x0000000000017b50                .tiny3d_Enable_YUV
 *fill*         0x0000000000017b7c        0x4 60000000
 .text.tiny3d_Disable_YUV
                0x0000000000017b80       0x28 f:/PSDK3/ps3dev/portlibs/ppu/lib\libtiny3d.a(tiny3d.o)
                0x0000000000017b80                .tiny3d_Disable_YUV
 .text.tiny3d_Dirty_Status
                0x0000000000017ba8       0x78 f:/PSDK3/ps3dev/portlibs/ppu/lib\libtiny3d.a(tiny3d.o)
                0x0000000000017ba8                .tiny3d_Dirty_Status
 .text.tiny3d_Get_GCM_Context
                0x0000000000017c20       0x18 f:/PSDK3/ps3dev/portlibs/ppu/lib\libtiny3d.a(tiny3d.o)
                0x0000000000017c20                .tiny3d_Get_GCM_Context
 .text.tiny3d_DoCmd_Space
                0x0000000000017c38       0x4c f:/PSDK3/ps3dev/portlibs/ppu/lib\libtiny3d.a(tiny3d.o)
                0x0000000000017c38                .tiny3d_DoCmd_Space
 .text          0x0000000000017c84        0x0 f:/PSDK3/ps3dev/portlibs/ppu/lib\libtiny3d.a(vshader_text_normal.vcg.o)
 .text          0x0000000000017c84        0x0 f:/PSDK3/ps3dev/portlibs/ppu/lib\libtiny3d.a(commands.o)
 *fill*         0x0000000000017c84        0x4 60000000
 .text.rsxtiny_MakeCmdSpace
                0x0000000000017c88       0xec f:/PSDK3/ps3dev/portlibs/ppu/lib\libtiny3d.a(commands.o)
                0x0000000000017c88                .rsxtiny_MakeCmdSpace
 *fill*         0x0000000000017d74        0x4 60000000
 .text.rsxtiny_SetReferenceCommand
                0x0000000000017d78      0x10c f:/PSDK3/ps3dev/portlibs/ppu/lib\libtiny3d.a(commands.o)
                0x0000000000017d78                .rsxtiny_SetReferenceCommand
 *fill*         0x0000000000017e84        0x4 60000000
 .text.rsxtiny_SetWriteBackendLabel
                0x0000000000017e88      0x154 f:/PSDK3/ps3dev/portlibs/ppu/lib\libtiny3d.a(commands.o)
                0x0000000000017e88                .rsxtiny_SetWriteBackendLabel
 *fill*         0x0000000000017fdc        0x4 60000000
 .text.rsxtiny_SetWaitLabel
                0x0000000000017fe0      0x134 f:/PSDK3/ps3dev/portlibs/ppu/lib\libtiny3d.a(commands.o)
                0x0000000000017fe0                .rsxtiny_SetWaitLabel
 *fill*         0x0000000000018114        0x4 60000000
 .text.rsxtiny_SetScissor
                0x0000000000018118      0x154 f:/PSDK3/ps3dev/portlibs/ppu/lib\libtiny3d.a(commands.o)
                0x0000000000018118                .rsxtiny_SetScissor
 *fill*         0x000000000001826c        0x4 60000000
 .text.rsxtiny_SetClearColor
                0x0000000000018270      0x10c f:/PSDK3/ps3dev/portlibs/ppu/lib\libtiny3d.a(commands.o)
                0x0000000000018270                .rsxtiny_SetClearColor
 *fill*         0x000000000001837c        0x4 60000000
 .text.rsxtiny_SetClearDepthValue
                0x0000000000018380      0x10c f:/PSDK3/ps3dev/portlibs/ppu/lib\libtiny3d.a(commands.o)
                0x0000000000018380                .rsxtiny_SetClearDepthValue
 *fill*         0x000000000001848c        0x4 60000000
 .text.rsxtiny_Nop
                0x0000000000018490       0xfc f:/PSDK3/ps3dev/portlibs/ppu/lib\libtiny3d.a(commands.o)
                0x0000000000018490                .rsxtiny_Nop
 *fill*         0x000000000001858c        0x4 60000000
 .text.rsxtiny_ClearBuffers
                0x0000000000018590      0x12c f:/PSDK3/ps3dev/portlibs/ppu/lib\libtiny3d.a(commands.o)
                0x0000000000018590                .rsxtiny_ClearBuffers
 *fill*         0x00000000000186bc        0x4 60000000
 .text.rsxtiny_SetRenderSurface
                0x00000000000186c0      0x17c f:/PSDK3/ps3dev/portlibs/ppu/lib\libtiny3d.a(commands.o)
                0x00000000000186c0                .rsxtiny_SetRenderSurface
 *fill*         0x000000000001883c        0x4 60000000
 .text.rsxtiny_SelectRenderTarget
                0x0000000000018840      0x204 f:/PSDK3/ps3dev/portlibs/ppu/lib\libtiny3d.a(commands.o)
                0x0000000000018840                .rsxtiny_SelectRenderTarget
 *fill*         0x0000000000018a44        0x4 60000000
 .text.rsxtiny_Viewport
                0x0000000000018a48      0x12c f:/PSDK3/ps3dev/portlibs/ppu/lib\libtiny3d.a(commands.o)
                0x0000000000018a48                .rsxtiny_Viewport
 *fill*         0x0000000000018b74        0x4 60000000
 .text.rsxtiny_ViewportClip
                0x0000000000018b78      0x14c f:/PSDK3/ps3dev/portlibs/ppu/lib\libtiny3d.a(commands.o)
                0x0000000000018b78                .rsxtiny_ViewportClip
 *fill*         0x0000000000018cc4        0x4 60000000
 .text.rsxtiny_VertexBegin
                0x0000000000018cc8      0x10c f:/PSDK3/ps3dev/portlibs/ppu/lib\libtiny3d.a(commands.o)
                0x0000000000018cc8                .rsxtiny_VertexBegin
 *fill*         0x0000000000018dd4        0x4 60000000
 .text.rsxtiny_VertexEnd
                0x0000000000018dd8       0xfc f:/PSDK3/ps3dev/portlibs/ppu/lib\libtiny3d.a(commands.o)
                0x0000000000018dd8                .rsxtiny_VertexEnd
 *fill*         0x0000000000018ed4        0x4 60000000
 .text.rsxtiny_Vertex4f
                0x0000000000018ed8      0x134 f:/PSDK3/ps3dev/portlibs/ppu/lib\libtiny3d.a(commands.o)
                0x0000000000018ed8                .rsxtiny_Vertex4f
 *fill*         0x000000000001900c        0x4 60000000
 .text.rsxtiny_TexCoord2f
                0x0000000000019010      0x114 f:/PSDK3/ps3dev/portlibs/ppu/lib\libtiny3d.a(commands.o)
                0x0000000000019010                .rsxtiny_TexCoord2f
 *fill*         0x0000000000019124        0x4 60000000
 .text.rsxtiny_SetVertexProgramConstant4f
                0x0000000000019128      0x14c f:/PSDK3/ps3dev/portlibs/ppu/lib\libtiny3d.a(commands.o)
                0x0000000000019128                .rsxtiny_SetVertexProgramConstant4f
 *fill*         0x0000000000019274        0x4 60000000
 .text.rsxtiny_LoadVertexProgram
                0x0000000000019278      0x2f4 f:/PSDK3/ps3dev/portlibs/ppu/lib\libtiny3d.a(commands.o)
                0x0000000000019278                .rsxtiny_LoadVertexProgram
 *fill*         0x000000000001956c        0x4 60000000
 .text.rsxtiny_SetVertexProgramConstant4fBlock
                0x0000000000019570      0x160 f:/PSDK3/ps3dev/portlibs/ppu/lib\libtiny3d.a(commands.o)
                0x0000000000019570                .rsxtiny_SetVertexProgramConstant4fBlock
 .text.rsxtiny_InstallFragmentProgram
                0x00000000000196d0       0x70 f:/PSDK3/ps3dev/portlibs/ppu/lib\libtiny3d.a(commands.o)
                0x00000000000196d0                .rsxtiny_InstallFragmentProgram
 .text.rsxtiny_LoadFragmentProgram
                0x0000000000019740      0x13c f:/PSDK3/ps3dev/portlibs/ppu/lib\libtiny3d.a(commands.o)
                0x0000000000019740                .rsxtiny_LoadFragmentProgram
 *fill*         0x000000000001987c        0x4 60000000
 .text.rsxtiny_InvalidateTextureCache
                0x0000000000019880      0x10c f:/PSDK3/ps3dev/portlibs/ppu/lib\libtiny3d.a(commands.o)
                0x0000000000019880                .rsxtiny_InvalidateTextureCache
 *fill*         0x000000000001998c        0x4 60000000
 .text.rsxtiny_SetTexture
                0x0000000000019990      0x204 f:/PSDK3/ps3dev/portlibs/ppu/lib\libtiny3d.a(commands.o)
                0x0000000000019990                .rsxtiny_SetTexture
 *fill*         0x0000000000019b94        0x4 60000000
 .text.rsxtiny_ViewportTranslate
                0x0000000000019b98      0x134 f:/PSDK3/ps3dev/portlibs/ppu/lib\libtiny3d.a(commands.o)
                0x0000000000019b98                .rsxtiny_ViewportTranslate
 *fill*         0x0000000000019ccc        0x4 60000000
 .text.rsxtiny_ViewportScale
                0x0000000000019cd0      0x134 f:/PSDK3/ps3dev/portlibs/ppu/lib\libtiny3d.a(commands.o)
                0x0000000000019cd0                .rsxtiny_ViewportScale
 *fill*         0x0000000000019e04        0x4 60000000
 .text.rsxtiny_CullFace
                0x0000000000019e08      0x10c f:/PSDK3/ps3dev/portlibs/ppu/lib\libtiny3d.a(commands.o)
                0x0000000000019e08                .rsxtiny_CullFace
 *fill*         0x0000000000019f14        0x4 60000000
 .text.rsxtiny_FrontFace
                0x0000000000019f18      0x10c f:/PSDK3/ps3dev/portlibs/ppu/lib\libtiny3d.a(commands.o)
                0x0000000000019f18                .rsxtiny_FrontFace
 *fill*         0x000000000001a024        0x4 60000000
 .text.rsxtiny_CullEnable
                0x000000000001a028      0x10c f:/PSDK3/ps3dev/portlibs/ppu/lib\libtiny3d.a(commands.o)
                0x000000000001a028                .rsxtiny_CullEnable
 *fill*         0x000000000001a134        0x4 60000000
 .text.rsxtiny_AlphaEnable
                0x000000000001a138      0x10c f:/PSDK3/ps3dev/portlibs/ppu/lib\libtiny3d.a(commands.o)
                0x000000000001a138                .rsxtiny_AlphaEnable
 *fill*         0x000000000001a244        0x4 60000000
 .text.rsxtiny_AlphaRef
                0x000000000001a248      0x10c f:/PSDK3/ps3dev/portlibs/ppu/lib\libtiny3d.a(commands.o)
                0x000000000001a248                .rsxtiny_AlphaRef
 *fill*         0x000000000001a354        0x4 60000000
 .text.rsxtiny_AlphaFunc
                0x000000000001a358      0x10c f:/PSDK3/ps3dev/portlibs/ppu/lib\libtiny3d.a(commands.o)
                0x000000000001a358                .rsxtiny_AlphaFunc
 *fill*         0x000000000001a464        0x4 60000000
 .text.rsxtiny_BlendEnable
                0x000000000001a468      0x10c f:/PSDK3/ps3dev/portlibs/ppu/lib\libtiny3d.a(commands.o)
                0x000000000001a468                .rsxtiny_BlendEnable
 *fill*         0x000000000001a574        0x4 60000000
 .text.rsxtiny_BlendEquation
                0x000000000001a578      0x10c f:/PSDK3/ps3dev/portlibs/ppu/lib\libtiny3d.a(commands.o)
                0x000000000001a578                .rsxtiny_BlendEquation
 *fill*         0x000000000001a684        0x4 60000000
 .text.rsxtiny_BlendFunc
                0x000000000001a688      0x124 f:/PSDK3/ps3dev/portlibs/ppu/lib\libtiny3d.a(commands.o)
                0x000000000001a688                .rsxtiny_BlendFunc
 *fill*         0x000000000001a7ac        0x4 60000000
 .text.rsxtiny_ZControl
                0x000000000001a7b0      0x13c f:/PSDK3/ps3dev/portlibs/ppu/lib\libtiny3d.a(commands.o)
                0x000000000001a7b0                .rsxtiny_ZControl
 *fill*         0x000000000001a8ec        0x4 60000000
 .text.rsxtiny_BindVertexBufferAttribute
                0x000000000001a8f0      0x194 f:/PSDK3/ps3dev/portlibs/ppu/lib\libtiny3d.a(commands.o)
                0x000000000001a8f0                .rsxtiny_BindVertexBufferAttribute
 *fill*         0x000000000001aa84        0x4 60000000
 .text.rsxtiny_VertexInvalidate
                0x000000000001aa88      0x10c f:/PSDK3/ps3dev/portlibs/ppu/lib\libtiny3d.a(commands.o)
                0x000000000001aa88                .rsxtiny_VertexInvalidate
 *fill*         0x000000000001ab94        0x4 60000000
 .text.rsxtiny_DrawVertexBuffer
                0x000000000001ab98      0x2f0 f:/PSDK3/ps3dev/portlibs/ppu/lib\libtiny3d.a(commands.o)
                0x000000000001ab98                .rsxtiny_DrawVertexBuffer
 .text.rsxtiny_DrawVertexBufferIndex
                0x000000000001ae88      0x33c f:/PSDK3/ps3dev/portlibs/ppu/lib\libtiny3d.a(commands.o)
                0x000000000001ae88                .rsxtiny_DrawVertexBufferIndex
 *fill*         0x000000000001b1c4        0x4 60000000
 .text.rsxtiny_DepthTestEnable
                0x000000000001b1c8      0x10c f:/PSDK3/ps3dev/portlibs/ppu/lib\libtiny3d.a(commands.o)
                0x000000000001b1c8                .rsxtiny_DepthTestEnable
 *fill*         0x000000000001b2d4        0x4 60000000
 .text.rsxtiny_DepthTestFunc
                0x000000000001b2d8      0x10c f:/PSDK3/ps3dev/portlibs/ppu/lib\libtiny3d.a(commands.o)
                0x000000000001b2d8                .rsxtiny_DepthTestFunc
 *fill*         0x000000000001b3e4        0x4 60000000
 .text.rsxtiny_DepthWriteEnable
                0x000000000001b3e8      0x10c f:/PSDK3/ps3dev/portlibs/ppu/lib\libtiny3d.a(commands.o)
                0x000000000001b3e8                .rsxtiny_DepthWriteEnable
 .text          0x000000000001b4f4        0x0 f:/PSDK3/ps3dev/portlibs/ppu/lib\libtiny3d.a(glue.o)
 *fill*         0x000000000001b4f4        0x4 60000000
 .text.rsxtiny_FlushBuffer
                0x000000000001b4f8       0x78 f:/PSDK3/ps3dev/portlibs/ppu/lib\libtiny3d.a(glue.o)
                0x000000000001b4f8                .rsxtiny_FlushBuffer
 .text.rsxtiny_Init
                0x000000000001b570       0x58 f:/PSDK3/ps3dev/portlibs/ppu/lib\libtiny3d.a(glue.o)
                0x000000000001b570                .rsxtiny_Init
 .text.rsxtiny_AddressToOffset
                0x000000000001b5c8       0x30 f:/PSDK3/ps3dev/portlibs/ppu/lib\libtiny3d.a(glue.o)
                0x000000000001b5c8                .rsxtiny_AddressToOffset
 .text          0x000000000001b5f8        0x0 f:/PSDK3/ps3dev/portlibs/ppu/lib\libtiny3d.a(matrix.o)
 .text.MatrixProjPerspective
                0x000000000001b5f8      0x120 f:/PSDK3/ps3dev/portlibs/ppu/lib\libtiny3d.a(matrix.o)
                0x000000000001b5f8                .MatrixProjPerspective
 .text.MatrixVectorMultiply
                0x000000000001b718       0xa8 f:/PSDK3/ps3dev/portlibs/ppu/lib\libtiny3d.a(matrix.o)
                0x000000000001b718                .MatrixVectorMultiply
 .text.MatrixVectorMultiply3x3
                0x000000000001b7c0       0x90 f:/PSDK3/ps3dev/portlibs/ppu/lib\libtiny3d.a(matrix.o)
                0x000000000001b7c0                .MatrixVectorMultiply3x3
 .text.MatrixMultiply
                0x000000000001b850      0x3d8 f:/PSDK3/ps3dev/portlibs/ppu/lib\libtiny3d.a(matrix.o)
                0x000000000001b850                .MatrixMultiply
 .text.MatrixIdentity
                0x000000000001bc28       0x54 f:/PSDK3/ps3dev/portlibs/ppu/lib\libtiny3d.a(matrix.o)
                0x000000000001bc28                .MatrixIdentity
 *fill*         0x000000000001bc7c        0x4 60000000
 .text.MatrixTranslation
                0x000000000001bc80       0x58 f:/PSDK3/ps3dev/portlibs/ppu/lib\libtiny3d.a(matrix.o)
                0x000000000001bc80                .MatrixTranslation
 .text.MatrixTranspose
                0x000000000001bcd8       0xb0 f:/PSDK3/ps3dev/portlibs/ppu/lib\libtiny3d.a(matrix.o)
                0x000000000001bcd8                .MatrixTranspose
 .text.MatrixScale
                0x000000000001bd88       0x60 f:/PSDK3/ps3dev/portlibs/ppu/lib\libtiny3d.a(matrix.o)
                0x000000000001bd88                .MatrixScale
 .text.MatrixRotationX
                0x000000000001bde8       0xfc f:/PSDK3/ps3dev/portlibs/ppu/lib\libtiny3d.a(matrix.o)
                0x000000000001bde8                .MatrixRotationX
 *fill*         0x000000000001bee4        0x4 60000000
 .text.MatrixRotationY
                0x000000000001bee8       0xfc f:/PSDK3/ps3dev/portlibs/ppu/lib\libtiny3d.a(matrix.o)
                0x000000000001bee8                .MatrixRotationY
 *fill*         0x000000000001bfe4        0x4 60000000
 .text.MatrixRotationZ
                0x000000000001bfe8       0xdc f:/PSDK3/ps3dev/portlibs/ppu/lib\libtiny3d.a(matrix.o)
                0x000000000001bfe8                .MatrixRotationZ
 *fill*         0x000000000001c0c4        0x4 60000000
 .text.MatrixRotationAxis
                0x000000000001c0c8      0x2dc f:/PSDK3/ps3dev/portlibs/ppu/lib\libtiny3d.a(matrix.o)
                0x000000000001c0c8                .MatrixRotationAxis
 *fill*         0x000000000001c3a4        0x4 60000000
 .text.VectorToUnit
                0x000000000001c3a8       0xbc f:/PSDK3/ps3dev/portlibs/ppu/lib\libtiny3d.a(matrix.o)
                0x000000000001c3a8                .VectorToUnit
 *fill*         0x000000000001c464        0x4 60000000
 .text.VectorNormalPlane
                0x000000000001c468       0xd8 f:/PSDK3/ps3dev/portlibs/ppu/lib\libtiny3d.a(matrix.o)
                0x000000000001c468                .VectorNormalPlane
 .text.MakeLookAtMatrix
                0x000000000001c540      0x2ec f:/PSDK3/ps3dev/portlibs/ppu/lib\libtiny3d.a(matrix.o)
                0x000000000001c540                .MakeLookAtMatrix
 .text          0x000000000001c82c        0x0 f:/PSDK3/ps3dev/portlibs/ppu/lib\libtiny3d.a(mm.o)
 *fill*         0x000000000001c82c        0x4 60000000
 .text.rsxtiny_MemAlign
                0x000000000001c830      0x134 f:/PSDK3/ps3dev/portlibs/ppu/lib\libtiny3d.a(mm.o)
                0x000000000001c830                .rsxtiny_MemAlign
 *fill*         0x000000000001c964        0x4 60000000
 .text.rsxtiny_Mem
                0x000000000001c968       0x18 f:/PSDK3/ps3dev/portlibs/ppu/lib\libtiny3d.a(mm.o)
                0x000000000001c968                .rsxtiny_Mem
 .text          0x000000000001c980        0x0 f:/PSDK3/ps3dev/portlibs/ppu/lib\libtiny3d.a(realityVP.o)
 .text.rsxtiny_VertexProgramGetUCode
                0x000000000001c980       0x18 f:/PSDK3/ps3dev/portlibs/ppu/lib\libtiny3d.a(realityVP.o)
                0x000000000001c980                .rsxtiny_VertexProgramGetUCode
 .text.rsxtiny_VertexProgramGetInputMask
                0x000000000001c998       0x14 f:/PSDK3/ps3dev/portlibs/ppu/lib\libtiny3d.a(realityVP.o)
                0x000000000001c998                .rsxtiny_VertexProgramGetInputMask
 *fill*         0x000000000001c9ac        0x4 60000000
 .text.rsxtiny_VertexProgramGetOutputMask
                0x000000000001c9b0       0x14 f:/PSDK3/ps3dev/portlibs/ppu/lib\libtiny3d.a(realityVP.o)
                0x000000000001c9b0                .rsxtiny_VertexProgramGetOutputMask
 *fill*         0x000000000001c9c4        0x4 60000000
 .text.rsxtiny_VertexProgramGetAttributes
                0x000000000001c9c8       0x18 f:/PSDK3/ps3dev/portlibs/ppu/lib\libtiny3d.a(realityVP.o)
                0x000000000001c9c8                .rsxtiny_VertexProgramGetAttributes
 .text.rsxtiny_VertexProgramGetInputAttribute
                0x000000000001c9e0       0xe4 f:/PSDK3/ps3dev/portlibs/ppu/lib\libtiny3d.a(realityVP.o)
                0x000000000001c9e0                .rsxtiny_VertexProgramGetInputAttribute
 *fill*         0x000000000001cac4        0x4 60000000
 .text.rsxtiny_VertexProgramGetConstants
                0x000000000001cac8       0x18 f:/PSDK3/ps3dev/portlibs/ppu/lib\libtiny3d.a(realityVP.o)
                0x000000000001cac8                .rsxtiny_VertexProgramGetConstants
 .text.rsxtiny_VertexProgramGetConstant
                0x000000000001cae0       0xe4 f:/PSDK3/ps3dev/portlibs/ppu/lib\libtiny3d.a(realityVP.o)
                0x000000000001cae0                .rsxtiny_VertexProgramGetConstant
 .text          0x000000000001cbc4        0x0 f:/PSDK3/ps3dev/portlibs/ppu/lib\libtiny3d.a(rsxutil.o)
 *fill*         0x000000000001cbc4        0x4 60000000
 .text.waitFlip
                0x000000000001cbc8       0xcc f:/PSDK3/ps3dev/portlibs/ppu/lib\libtiny3d.a(rsxutil.o)
                0x000000000001cbc8                .waitFlip
 *fill*         0x000000000001cc94        0x4 60000000
 .text.flip     0x000000000001cc98       0x5c f:/PSDK3/ps3dev/portlibs/ppu/lib\libtiny3d.a(rsxutil.o)
                0x000000000001cc98                .flip
 *fill*         0x000000000001ccf4        0x4 60000000
 .text.init_screen
                0x000000000001ccf8      0x364 f:/PSDK3/ps3dev/portlibs/ppu/lib\libtiny3d.a(rsxutil.o)
                0x000000000001ccf8                .init_screen
 *fill*         0x000000000001d05c        0x4 60000000
 .text.setupRenderTarget
                0x000000000001d060      0x108 f:/PSDK3/ps3dev/portlibs/ppu/lib\libtiny3d.a(rsxutil.o)
                0x000000000001d060                .setupRenderTarget
 .text.setupRenderTarget2
                0x000000000001d168      0x13c f:/PSDK3/ps3dev/portlibs/ppu/lib\libtiny3d.a(rsxutil.o)
                0x000000000001d168                .setupRenderTarget2
 .text          0x000000000001d2a4        0x0 f:/PSDK3/ps3dev/portlibs/ppu/lib\libtiny3d.a(buffer.o)
 *fill*         0x000000000001d2a4        0x4 60000000
 .text.tiny_rsxContextCallback
                0x000000000001d2a8       0x50 f:/PSDK3/ps3dev/portlibs/ppu/lib\libtiny3d.a(buffer.o)
                0x000000000001d2a8                .tiny_rsxContextCallback
 .text.commandBufferPut
                0x000000000001d2f8       0x20 f:/PSDK3/ps3dev/portlibs/ppu/lib\libtiny3d.a(buffer.o)
                0x000000000001d2f8                .commandBufferPut
 .text          0x000000000001d318        0x0 f:/PSDK3/psl1ght/ppu/lib\libgcm_sys.a(sprx.o)
 .text          0x000000000001d318        0x0 f:/PSDK3/psl1ght/ppu/lib\libio.a(sprx.o)
 .text          0x000000000001d318        0x0 f:/PSDK3/psl1ght/ppu/lib\libsysutil.a(sprx.o)
 .text          0x000000000001d318        0x0 f:/PSDK3/psl1ght/ppu/lib\libsysutil.a(sysutil_wrapper.o)
 .text.sysUtilRegisterCallback
                0x000000000001d318       0x34 f:/PSDK3/psl1ght/ppu/lib\libsysutil.a(sysutil_wrapper.o)
                0x000000000001d318                .sysUtilRegisterCallback
 *fill*         0x000000000001d34c        0x4 60000000
 .text.msgDialogOpen
                0x000000000001d350       0x34 f:/PSDK3/psl1ght/ppu/lib\libsysutil.a(sysutil_wrapper.o)
                0x000000000001d350                .msgDialogOpen
 *fill*         0x000000000001d384        0x4 60000000
 .text.msgDialogOpen2
                0x000000000001d388       0x34 f:/PSDK3/psl1ght/ppu/lib\libsysutil.a(sysutil_wrapper.o)
                0x000000000001d388                .msgDialogOpen2
 *fill*         0x000000000001d3bc        0x4 60000000
 .text.msgDialogOpenErrorCode
                0x000000000001d3c0       0x34 f:/PSDK3/psl1ght/ppu/lib\libsysutil.a(sysutil_wrapper.o)
                0x000000000001d3c0                .msgDialogOpenErrorCode
 *fill*         0x000000000001d3f4        0x4 60000000
 .text.sysSaveListLoad2
                0x000000000001d3f8       0x3c f:/PSDK3/psl1ght/ppu/lib\libsysutil.a(sysutil_wrapper.o)
                0x000000000001d3f8                .sysSaveListLoad2
 *fill*         0x000000000001d434        0x4 60000000
 .text.sysSaveListSave2
                0x000000000001d438       0x3c f:/PSDK3/psl1ght/ppu/lib\libsysutil.a(sysutil_wrapper.o)
                0x000000000001d438                .sysSaveListSave2
 *fill*         0x000000000001d474        0x4 60000000
 .text.sysSaveListAutoLoad
                0x000000000001d478       0x44 f:/PSDK3/psl1ght/ppu/lib\libsysutil.a(sysutil_wrapper.o)
                0x000000000001d478                .sysSaveListAutoLoad
 *fill*         0x000000000001d4bc        0x4 60000000
 .text.sysSaveListAutoSave
                0x000000000001d4c0       0x44 f:/PSDK3/psl1ght/ppu/lib\libsysutil.a(sysutil_wrapper.o)
                0x000000000001d4c0                .sysSaveListAutoSave
 *fill*         0x000000000001d504        0x4 60000000
 .text.sysSaveFixedLoad2
                0x000000000001d508       0x3c f:/PSDK3/psl1ght/ppu/lib\libsysutil.a(sysutil_wrapper.o)
                0x000000000001d508                .sysSaveFixedLoad2
 *fill*         0x000000000001d544        0x4 60000000
 .text.sysSaveFixedSave2
                0x000000000001d548       0x3c f:/PSDK3/psl1ght/ppu/lib\libsysutil.a(sysutil_wrapper.o)
                0x000000000001d548                .sysSaveFixedSave2
 *fill*         0x000000000001d584        0x4 60000000
 .text.sysSaveAutoLoad2
                0x000000000001d588       0x38 f:/PSDK3/psl1ght/ppu/lib\libsysutil.a(sysutil_wrapper.o)
                0x000000000001d588                .sysSaveAutoLoad2
 .text.sysSaveAutoSave2
                0x000000000001d5c0       0x38 f:/PSDK3/psl1ght/ppu/lib\libsysutil.a(sysutil_wrapper.o)
                0x000000000001d5c0                .sysSaveAutoSave2
 .text.sysGameThemeInstallFromBuffer
                0x000000000001d5f8       0x34 f:/PSDK3/psl1ght/ppu/lib\libsysutil.a(sysutil_wrapper.o)
                0x000000000001d5f8                .sysGameThemeInstallFromBuffer
 *fill*         0x000000000001d62c        0x4 60000000
 .text.sysGameDiscRegisterDiscChangeCallback
                0x000000000001d630       0x38 f:/PSDK3/psl1ght/ppu/lib\libsysutil.a(sysutil_wrapper.o)
                0x000000000001d630                .sysGameDiscRegisterDiscChangeCallback
 .text.sysDiscRegisterDiscChangeCallback
                0x000000000001d668       0x38 f:/PSDK3/psl1ght/ppu/lib\libsysutil.a(sysutil_wrapper.o)
                0x000000000001d668                .sysDiscRegisterDiscChangeCallback
 .text          0x000000000001d6a0        0x0 f:/PSDK3/psl1ght/ppu/lib\librt.a(sbrk.o)
 .text.sbrk_init
                0x000000000001d6a0       0xc4 f:/PSDK3/psl1ght/ppu/lib\librt.a(sbrk.o)
 *fill*         0x000000000001d764        0x4 60000000
 .text.sbrk_deinit
                0x000000000001d768       0xbc f:/PSDK3/psl1ght/ppu/lib\librt.a(sbrk.o)
 *fill*         0x000000000001d824        0x4 60000000
 .text.__librt_sbrk_r
                0x000000000001d828      0x324 f:/PSDK3/psl1ght/ppu/lib\librt.a(sbrk.o)
                0x000000000001d828                .__librt_sbrk_r
 .text          0x000000000001db4c        0x0 f:/PSDK3/psl1ght/ppu/lib\librt.a(exit.o)
 *fill*         0x000000000001db4c        0x4 60000000
 .text.__librt_exit
                0x000000000001db50       0x30 f:/PSDK3/psl1ght/ppu/lib\librt.a(exit.o)
                0x000000000001db50                .__librt_exit
 .text          0x000000000001db80        0x0 f:/PSDK3/psl1ght/ppu/lib\librt.a(close.o)
 .text.__librt_close_r
                0x000000000001db80       0x8c f:/PSDK3/psl1ght/ppu/lib\librt.a(close.o)
                0x000000000001db80                .__librt_close_r
 .text          0x000000000001dc0c        0x0 f:/PSDK3/psl1ght/ppu/lib\librt.a(lseek.o)
 *fill*         0x000000000001dc0c        0x4 60000000
 .text.__librt_lseek_r
                0x000000000001dc10       0x8c f:/PSDK3/psl1ght/ppu/lib\librt.a(lseek.o)
                0x000000000001dc10                .__librt_lseek_r
 *fill*         0x000000000001dc9c        0x4 60000000
 .text.__librt_lseek64_r
                0x000000000001dca0       0x8c f:/PSDK3/psl1ght/ppu/lib\librt.a(lseek.o)
                0x000000000001dca0                .__librt_lseek64_r
 .text          0x000000000001dd2c        0x0 f:/PSDK3/psl1ght/ppu/lib\librt.a(read.o)
 *fill*         0x000000000001dd2c        0x4 60000000
 .text.__librt_read_r
                0x000000000001dd30      0x11c f:/PSDK3/psl1ght/ppu/lib\librt.a(read.o)
                0x000000000001dd30                .__librt_read_r
 .text          0x000000000001de4c        0x0 f:/PSDK3/psl1ght/ppu/lib\librt.a(open.o)
 *fill*         0x000000000001de4c        0x4 60000000
 .text.__librt_open_r
                0x000000000001de50      0x180 f:/PSDK3/psl1ght/ppu/lib\librt.a(open.o)
                0x000000000001de50                .__librt_open_r
 .text          0x000000000001dfd0        0x0 f:/PSDK3/psl1ght/ppu/lib\librt.a(sleep.o)
 .text.__librt_usleep_r
                0x000000000001dfd0       0x50 f:/PSDK3/psl1ght/ppu/lib\librt.a(sleep.o)
                0x000000000001dfd0                .__librt_usleep_r
 .text.__librt_sleep_r
                0x000000000001e020       0x8c f:/PSDK3/psl1ght/ppu/lib\librt.a(sleep.o)
                0x000000000001e020                .__librt_sleep_r
 .text          0x000000000001e0ac        0x0 f:/PSDK3/psl1ght/ppu/lib\librt.a(write.o)
 *fill*         0x000000000001e0ac        0x4 60000000
 .text.__librt_write_r
                0x000000000001e0b0      0x11c f:/PSDK3/psl1ght/ppu/lib\librt.a(write.o)
                0x000000000001e0b0                .__librt_write_r
 .text          0x000000000001e1cc        0x0 f:/PSDK3/psl1ght/ppu/lib\librt.a(fstat.o)
 *fill*         0x000000000001e1cc        0x4 60000000
 .text.__librt_fstat_r
                0x000000000001e1d0       0xd0 f:/PSDK3/psl1ght/ppu/lib\librt.a(fstat.o)
                0x000000000001e1d0                .__librt_fstat_r
 .text.__librt_fstat64_r
                0x000000000001e2a0       0xd0 f:/PSDK3/psl1ght/ppu/lib\librt.a(fstat.o)
                0x000000000001e2a0                .__librt_fstat64_r
 .text.__librt_stat_r
                0x000000000001e370       0xd0 f:/PSDK3/psl1ght/ppu/lib\librt.a(fstat.o)
                0x000000000001e370                .__librt_stat_r
 .text.__librt_stat64_r
                0x000000000001e440       0xd0 f:/PSDK3/psl1ght/ppu/lib\librt.a(fstat.o)
                0x000000000001e440                .__librt_stat64_r
 .text          0x000000000001e510        0x0 f:/PSDK3/psl1ght/ppu/lib\librt.a(socket.o)
 .text.accept   0x000000000001e510       0xa0 f:/PSDK3/psl1ght/ppu/lib\librt.a(socket.o)
                0x000000000001e510                .accept
 .text.bind     0x000000000001e5b0       0x48 f:/PSDK3/psl1ght/ppu/lib\librt.a(socket.o)
                0x000000000001e5b0                .bind
 .text.connect  0x000000000001e5f8       0x48 f:/PSDK3/psl1ght/ppu/lib\librt.a(socket.o)
                0x000000000001e5f8                .connect
 .text.listen   0x000000000001e640       0x48 f:/PSDK3/psl1ght/ppu/lib\librt.a(socket.o)
                0x000000000001e640                .listen
 .text.socket   0x000000000001e688       0x54 f:/PSDK3/psl1ght/ppu/lib\librt.a(socket.o)
                0x000000000001e688                .socket
 *fill*         0x000000000001e6dc        0x4 60000000
 .text.send     0x000000000001e6e0       0x50 f:/PSDK3/psl1ght/ppu/lib\librt.a(socket.o)
                0x000000000001e6e0                .send
 .text.sendto   0x000000000001e730       0x48 f:/PSDK3/psl1ght/ppu/lib\librt.a(socket.o)
                0x000000000001e730                .sendto
 .text.recv     0x000000000001e778       0x50 f:/PSDK3/psl1ght/ppu/lib\librt.a(socket.o)
                0x000000000001e778                .recv
 .text.recvfrom
                0x000000000001e7c8       0x98 f:/PSDK3/psl1ght/ppu/lib\librt.a(socket.o)
                0x000000000001e7c8                .recvfrom
 .text.shutdown
                0x000000000001e860       0x48 f:/PSDK3/psl1ght/ppu/lib\librt.a(socket.o)
                0x000000000001e860                .shutdown
 .text.inet_aton
                0x000000000001e8a8       0xb8 f:/PSDK3/psl1ght/ppu/lib\librt.a(socket.o)
                0x000000000001e8a8                .inet_aton
 .text.inet_pton
                0x000000000001e960       0x54 f:/PSDK3/psl1ght/ppu/lib\librt.a(socket.o)
                0x000000000001e960                .inet_pton
 *fill*         0x000000000001e9b4        0x4 60000000
 .text.select   0x000000000001e9b8       0x3c f:/PSDK3/psl1ght/ppu/lib\librt.a(socket.o)
                0x000000000001e9b8                .select
 *fill*         0x000000000001e9f4        0x4 60000000
 .text.closesocket
                0x000000000001e9f8       0x48 f:/PSDK3/psl1ght/ppu/lib\librt.a(socket.o)
                0x000000000001e9f8                .closesocket
 .text          0x000000000001ea40        0x0 f:/PSDK3/psl1ght/ppu/lib\librt.a(lock.o)
 .text.__librt_sys_lwmutex_create_r
                0x000000000001ea40       0x38 f:/PSDK3/psl1ght/ppu/lib\librt.a(lock.o)
                0x000000000001ea40                .__librt_sys_lwmutex_create_r
 .text.__librt_sys_lwmutex_destroy_r
                0x000000000001ea78       0x34 f:/PSDK3/psl1ght/ppu/lib\librt.a(lock.o)
                0x000000000001ea78                .__librt_sys_lwmutex_destroy_r
 *fill*         0x000000000001eaac        0x4 60000000
 .text.__librt_sys_lwmutex_lock_r
                0x000000000001eab0       0x38 f:/PSDK3/psl1ght/ppu/lib\librt.a(lock.o)
                0x000000000001eab0                .__librt_sys_lwmutex_lock_r
 .text.__librt_sys_lwmutex_trylock_r
                0x000000000001eae8       0x34 f:/PSDK3/psl1ght/ppu/lib\librt.a(lock.o)
                0x000000000001eae8                .__librt_sys_lwmutex_trylock_r
 *fill*         0x000000000001eb1c        0x4 60000000
 .text.__librt_sys_lwmutex_unlock_r
                0x000000000001eb20       0x34 f:/PSDK3/psl1ght/ppu/lib\librt.a(lock.o)
                0x000000000001eb20                .__librt_sys_lwmutex_unlock_r
 .text          0x000000000001eb54        0x0 f:/PSDK3/psl1ght/ppu/lib\librt.a(dirent.o)
 *fill*         0x000000000001eb54        0x4 60000000
 .text.readdir_i
                0x000000000001eb58      0x10c f:/PSDK3/psl1ght/ppu/lib\librt.a(dirent.o)
 *fill*         0x000000000001ec64        0x4 60000000
 .text.__librt_opendir_r
                0x000000000001ec68      0x144 f:/PSDK3/psl1ght/ppu/lib\librt.a(dirent.o)
                0x000000000001ec68                .__librt_opendir_r
 *fill*         0x000000000001edac        0x4 60000000
 .text.__librt_readdir_r
                0x000000000001edb0       0x80 f:/PSDK3/psl1ght/ppu/lib\librt.a(dirent.o)
                0x000000000001edb0                .__librt_readdir_r
 .text.__librt_readdir_r_r
                0x000000000001ee30       0x54 f:/PSDK3/psl1ght/ppu/lib\librt.a(dirent.o)
                0x000000000001ee30                .__librt_readdir_r_r
 *fill*         0x000000000001ee84        0x4 60000000
 .text.__librt_closedir_r
                0x000000000001ee88       0x84 f:/PSDK3/psl1ght/ppu/lib\librt.a(dirent.o)
                0x000000000001ee88                .__librt_closedir_r
 *fill*         0x000000000001ef0c        0x4 60000000
 .text.__librt_telldir_r
                0x000000000001ef10       0x24 f:/PSDK3/psl1ght/ppu/lib\librt.a(dirent.o)
                0x000000000001ef10                .__librt_telldir_r
 *fill*         0x000000000001ef34        0x4 60000000
 .text.__librt_rewinddir_r
                0x000000000001ef38       0x18 f:/PSDK3/psl1ght/ppu/lib\librt.a(dirent.o)
                0x000000000001ef38                .__librt_rewinddir_r
 .text.__librt_seekdir_r
                0x000000000001ef50       0x18 f:/PSDK3/psl1ght/ppu/lib\librt.a(dirent.o)
                0x000000000001ef50                .__librt_seekdir_r
 .text          0x000000000001ef68        0x0 f:/PSDK3/psl1ght/ppu/lib\librt.a(mkdir.o)
 .text.__librt_mkdir_r
                0x000000000001ef68       0x60 f:/PSDK3/psl1ght/ppu/lib\librt.a(mkdir.o)
                0x000000000001ef68                .__librt_mkdir_r
 .text          0x000000000001efc8        0x0 f:/PSDK3/psl1ght/ppu/lib\librt.a(times.o)
 .text.__librt_times_r
                0x000000000001efc8       0x1c f:/PSDK3/psl1ght/ppu/lib\librt.a(times.o)
                0x000000000001efc8                .__librt_times_r
 .text          0x000000000001efe4        0x0 f:/PSDK3/psl1ght/ppu/lib\librt.a(umask.o)
 *fill*         0x000000000001efe4        0x4 60000000
 .text.__librt_umask_r
                0x000000000001efe8       0x20 f:/PSDK3/psl1ght/ppu/lib\librt.a(umask.o)
                0x000000000001efe8                .__librt_umask_r
 .text          0x000000000001f008        0x0 f:/PSDK3/psl1ght/ppu/lib\librt.a(lv2errno.o)
 .text.lv2error
                0x000000000001f008      0x3dc f:/PSDK3/psl1ght/ppu/lib\librt.a(lv2errno.o)
                0x000000000001f008                .lv2error
 *fill*         0x000000000001f3e4        0x4 60000000
 .text.lv2errno
                0x000000000001f3e8       0x68 f:/PSDK3/psl1ght/ppu/lib\librt.a(lv2errno.o)
                0x000000000001f3e8                .lv2errno
 .text.lv2errno_r
                0x000000000001f450       0x58 f:/PSDK3/psl1ght/ppu/lib\librt.a(lv2errno.o)
                0x000000000001f450                .lv2errno_r
 .text          0x000000000001f4a8        0x0 f:/PSDK3/psl1ght/ppu/lib\librt.a(heap.o)
 .text.heapInit
                0x000000000001f4a8       0xe8 f:/PSDK3/psl1ght/ppu/lib\librt.a(heap.o)
                0x000000000001f4a8                .heapInit
 .text.heapAllocate
                0x000000000001f590      0x174 f:/PSDK3/psl1ght/ppu/lib\librt.a(heap.o)
                0x000000000001f590                .heapAllocate
 *fill*         0x000000000001f704        0x4 60000000
 .text.heapAllocateAligned
                0x000000000001f708      0x224 f:/PSDK3/psl1ght/ppu/lib\librt.a(heap.o)
                0x000000000001f708                .heapAllocateAligned
 *fill*         0x000000000001f92c        0x4 60000000
 .text.heapFree
                0x000000000001f930      0x224 f:/PSDK3/psl1ght/ppu/lib\librt.a(heap.o)
                0x000000000001f930                .heapFree
 .text          0x000000000001fb54        0x0 f:/PSDK3/psl1ght/ppu/lib\librt.a(chmod.o)
 *fill*         0x000000000001fb54        0x4 60000000
 .text.__librt_chmod_r
                0x000000000001fb58       0x54 f:/PSDK3/psl1ght/ppu/lib\librt.a(chmod.o)
                0x000000000001fb58                .__librt_chmod_r
 .text          0x000000000001fbac        0x0 f:/PSDK3/psl1ght/ppu/lib\librt.a(rmdir.o)
 *fill*         0x000000000001fbac        0x4 60000000
 .text.__librt_rmdir_r
                0x000000000001fbb0       0x50 f:/PSDK3/psl1ght/ppu/lib\librt.a(rmdir.o)
                0x000000000001fbb0                .__librt_rmdir_r
 .text          0x000000000001fc00        0x0 f:/PSDK3/psl1ght/ppu/lib\librt.a(isatty.o)
 .text.__librt_isatty_r
                0x000000000001fc00       0x2c f:/PSDK3/psl1ght/ppu/lib\librt.a(isatty.o)
                0x000000000001fc00                .__librt_isatty_r
 .text          0x000000000001fc2c        0x0 f:/PSDK3/psl1ght/ppu/lib\librt.a(gettod.o)
 *fill*         0x000000000001fc2c        0x4 60000000
 .text.__librt_gettod_r
                0x000000000001fc30       0xb8 f:/PSDK3/psl1ght/ppu/lib\librt.a(gettod.o)
                0x000000000001fc30                .__librt_gettod_r
 .text          0x000000000001fce8        0x0 f:/PSDK3/psl1ght/ppu/lib\librt.a(settod.o)
 .text.__librt_settod_r
                0x000000000001fce8       0x58 f:/PSDK3/psl1ght/ppu/lib\librt.a(settod.o)
                0x000000000001fce8                .__librt_settod_r
 .text          0x000000000001fd40        0x0 f:/PSDK3/psl1ght/ppu/lib\liblv2.a(sprx.o)
 .text          0x000000000001fd40        0x0 f:/PSDK3/psl1ght/ppu/lib\libpngdec.a(pngdec.o)
 .text.png_malloc
                0x000000000001fd40       0x30 f:/PSDK3/psl1ght/ppu/lib\libpngdec.a(pngdec.o)
 .text.png_free
                0x000000000001fd70       0x30 f:/PSDK3/psl1ght/ppu/lib\libpngdec.a(pngdec.o)
 .text.decodePNG
                0x000000000001fda0      0x298 f:/PSDK3/psl1ght/ppu/lib\libpngdec.a(pngdec.o)
 .text.pngLoadFromFile
                0x0000000000020038       0x60 f:/PSDK3/psl1ght/ppu/lib\libpngdec.a(pngdec.o)
                0x0000000000020038                .pngLoadFromFile
 .text.pngLoadFromBuffer
                0x0000000000020098       0x70 f:/PSDK3/psl1ght/ppu/lib\libpngdec.a(pngdec.o)
                0x0000000000020098                .pngLoadFromBuffer
 .text          0x0000000000020108        0x0 f:/PSDK3/psl1ght/ppu/lib\libpngdec.a(sprx.o)
 .text          0x0000000000020108        0x0 f:/PSDK3/psl1ght/ppu/lib\libsysmodule.a(sprx.o)
 .text          0x0000000000020108        0x0 f:/psdk3/ps3dev/ppu/bin/../lib/gcc/powerpc64-ps3-elf/4.5.2/../../../../powerpc64-ps3-elf/lib\libm.a(lib_a-s_sqrt.o)
 .text.sqrt     0x0000000000020108      0x1b0 f:/psdk3/ps3dev/ppu/bin/../lib/gcc/powerpc64-ps3-elf/4.5.2/../../../../powerpc64-ps3-elf/lib\libm.a(lib_a-s_sqrt.o)
                0x0000000000020108                .sqrt
 .text          0x00000000000202b8        0x0 f:/psdk3/ps3dev/ppu/bin/../lib/gcc/powerpc64-ps3-elf/4.5.2/../../../../powerpc64-ps3-elf/lib\libm.a(lib_a-sf_cos.o)
 .text.cosf     0x00000000000202b8       0x34 f:/psdk3/ps3dev/ppu/bin/../lib/gcc/powerpc64-ps3-elf/4.5.2/../../../../powerpc64-ps3-elf/lib\libm.a(lib_a-sf_cos.o)
                0x00000000000202b8                .cosf
 .text          0x00000000000202ec        0x0 f:/psdk3/ps3dev/ppu/bin/../lib/gcc/powerpc64-ps3-elf/4.5.2/../../../../powerpc64-ps3-elf/lib\libm.a(lib_a-sf_sin.o)
 *fill*         0x00000000000202ec        0x4 60000000
 .text.sinf     0x00000000000202f0       0x34 f:/psdk3/ps3dev/ppu/bin/../lib/gcc/powerpc64-ps3-elf/4.5.2/../../../../powerpc64-ps3-elf/lib\libm.a(lib_a-sf_sin.o)
                0x00000000000202f0                .sinf
 .text          0x0000000000020324        0x0 f:/psdk3/ps3dev/ppu/bin/../lib/gcc/powerpc64-ps3-elf/4.5.2/../../../../powerpc64-ps3-elf/lib\libm.a(lib_a-sf_sine.o)
 *fill*         0x0000000000020324        0x4 60000000
 .text.sinef    0x0000000000020328      0x2d0 f:/psdk3/ps3dev/ppu/bin/../lib/gcc/powerpc64-ps3-elf/4.5.2/../../../../powerpc64-ps3-elf/lib\libm.a(lib_a-sf_sine.o)
                0x0000000000020328                .sinef
 .text          0x00000000000205f8        0x0 f:/psdk3/ps3dev/ppu/bin/../lib/gcc/powerpc64-ps3-elf/4.5.2/../../../../powerpc64-ps3-elf/lib\libm.a(lib_a-sf_sqrt.o)
 .text.sqrtf    0x00000000000205f8      0x1c8 f:/psdk3/ps3dev/ppu/bin/../lib/gcc/powerpc64-ps3-elf/4.5.2/../../../../powerpc64-ps3-elf/lib\libm.a(lib_a-sf_sqrt.o)
                0x00000000000205f8                .sqrtf
 .text          0x00000000000207c0        0x0 f:/psdk3/ps3dev/ppu/bin/../lib/gcc/powerpc64-ps3-elf/4.5.2/../../../../powerpc64-ps3-elf/lib\libm.a(lib_a-sf_tan.o)
 .text.tanf     0x00000000000207c0      0x23c f:/psdk3/ps3dev/ppu/bin/../lib/gcc/powerpc64-ps3-elf/4.5.2/../../../../powerpc64-ps3-elf/lib\libm.a(lib_a-sf_tan.o)
                0x00000000000207c0                .tanf
 .text          0x00000000000209fc        0x0 f:/psdk3/ps3dev/ppu/bin/../lib/gcc/powerpc64-ps3-elf/4.5.2/../../../../powerpc64-ps3-elf/lib\libm.a(lib_a-s_frexp.o)
 *fill*         0x00000000000209fc        0x4 60000000
 .text.frexp    0x0000000000020a00       0xd0 f:/psdk3/ps3dev/ppu/bin/../lib/gcc/powerpc64-ps3-elf/4.5.2/../../../../powerpc64-ps3-elf/lib\libm.a(lib_a-s_frexp.o)
                0x0000000000020a00                .frexp
 .text          0x0000000000020ad0        0x0 f:/psdk3/ps3dev/ppu/bin/../lib/gcc/powerpc64-ps3-elf/4.5.2/../../../../powerpc64-ps3-elf/lib\libm.a(lib_a-s_ispos.o)
 .text.ispos    0x0000000000020ad0       0x28 f:/psdk3/ps3dev/ppu/bin/../lib/gcc/powerpc64-ps3-elf/4.5.2/../../../../powerpc64-ps3-elf/lib\libm.a(lib_a-s_ispos.o)
                0x0000000000020ad0                .ispos
 .text          0x0000000000020af8        0x0 f:/psdk3/ps3dev/ppu/bin/../lib/gcc/powerpc64-ps3-elf/4.5.2/../../../../powerpc64-ps3-elf/lib\libm.a(lib_a-s_ldexp.o)
 .text.ldexp    0x0000000000020af8      0x17c f:/psdk3/ps3dev/ppu/bin/../lib/gcc/powerpc64-ps3-elf/4.5.2/../../../../powerpc64-ps3-elf/lib\libm.a(lib_a-s_ldexp.o)
                0x0000000000020af8                .ldexp
 .text          0x0000000000020c74        0x0 f:/psdk3/ps3dev/ppu/bin/../lib/gcc/powerpc64-ps3-elf/4.5.2/../../../../powerpc64-ps3-elf/lib\libm.a(lib_a-s_mathcnst.o)
 .text          0x0000000000020c74        0x0 f:/psdk3/ps3dev/ppu/bin/../lib/gcc/powerpc64-ps3-elf/4.5.2/../../../../powerpc64-ps3-elf/lib\libm.a(lib_a-s_numtest.o)
 *fill*         0x0000000000020c74        0x4 60000000
 .text.numtest  0x0000000000020c78       0x5c f:/psdk3/ps3dev/ppu/bin/../lib/gcc/powerpc64-ps3-elf/4.5.2/../../../../powerpc64-ps3-elf/lib\libm.a(lib_a-s_numtest.o)
                0x0000000000020c78                .numtest
 .text          0x0000000000020cd4        0x0 f:/psdk3/ps3dev/ppu/bin/../lib/gcc/powerpc64-ps3-elf/4.5.2/../../../../powerpc64-ps3-elf/lib\libm.a(lib_a-sf_fabs.o)
 *fill*         0x0000000000020cd4        0x4 60000000
 .text.fabsf    0x0000000000020cd8       0xe4 f:/psdk3/ps3dev/ppu/bin/../lib/gcc/powerpc64-ps3-elf/4.5.2/../../../../powerpc64-ps3-elf/lib\libm.a(lib_a-sf_fabs.o)
                0x0000000000020cd8                .fabsf
 .text          0x0000000000020dbc        0x0 f:/psdk3/ps3dev/ppu/bin/../lib/gcc/powerpc64-ps3-elf/4.5.2/../../../../powerpc64-ps3-elf/lib\libm.a(lib_a-sf_frexp.o)
 *fill*         0x0000000000020dbc        0x4 60000000
 .text.frexpf   0x0000000000020dc0       0xac f:/psdk3/ps3dev/ppu/bin/../lib/gcc/powerpc64-ps3-elf/4.5.2/../../../../powerpc64-ps3-elf/lib\libm.a(lib_a-sf_frexp.o)
                0x0000000000020dc0                .frexpf
 .text          0x0000000000020e6c        0x0 f:/psdk3/ps3dev/ppu/bin/../lib/gcc/powerpc64-ps3-elf/4.5.2/../../../../powerpc64-ps3-elf/lib\libm.a(lib_a-sf_ispos.o)
 *fill*         0x0000000000020e6c        0x4 60000000
 .text.isposf   0x0000000000020e70       0x24 f:/psdk3/ps3dev/ppu/bin/../lib/gcc/powerpc64-ps3-elf/4.5.2/../../../../powerpc64-ps3-elf/lib\libm.a(lib_a-sf_ispos.o)
                0x0000000000020e70                .isposf
 .text          0x0000000000020e94        0x0 f:/psdk3/ps3dev/ppu/bin/../lib/gcc/powerpc64-ps3-elf/4.5.2/../../../../powerpc64-ps3-elf/lib\libm.a(lib_a-sf_ldexp.o)
 *fill*         0x0000000000020e94        0x4 60000000
 .text.ldexpf   0x0000000000020e98      0x190 f:/psdk3/ps3dev/ppu/bin/../lib/gcc/powerpc64-ps3-elf/4.5.2/../../../../powerpc64-ps3-elf/lib\libm.a(lib_a-sf_ldexp.o)
                0x0000000000020e98                .ldexpf
 .text          0x0000000000021028        0x0 f:/psdk3/ps3dev/ppu/bin/../lib/gcc/powerpc64-ps3-elf/4.5.2/../../../../powerpc64-ps3-elf/lib\libm.a(lib_a-sf_numtest.o)
 .text.numtestf
                0x0000000000021028       0x30 f:/psdk3/ps3dev/ppu/bin/../lib/gcc/powerpc64-ps3-elf/4.5.2/../../../../powerpc64-ps3-elf/lib\libm.a(lib_a-sf_numtest.o)
                0x0000000000021028                .numtestf
 .text          0x0000000000021058        0x0 f:/psdk3/ps3dev/ppu/bin/../lib/gcc/powerpc64-ps3-elf/4.5.2/../../../../powerpc64-ps3-elf/lib\libsysbase.a(syscalls.o)
 .text          0x0000000000021058        0x0 f:/psdk3/ps3dev/ppu/bin/../lib/gcc/powerpc64-ps3-elf/4.5.2/../../../../powerpc64-ps3-elf/lib\libsysbase.a(sleep.o)
 .text.usleep   0x0000000000021058       0x84 f:/psdk3/ps3dev/ppu/bin/../lib/gcc/powerpc64-ps3-elf/4.5.2/../../../../powerpc64-ps3-elf/lib\libsysbase.a(sleep.o)
                0x0000000000021058                .usleep
 *fill*         0x00000000000210dc        0x4 60000000
 .text.sleep    0x00000000000210e0       0x98 f:/psdk3/ps3dev/ppu/bin/../lib/gcc/powerpc64-ps3-elf/4.5.2/../../../../powerpc64-ps3-elf/lib\libsysbase.a(sleep.o)
                0x00000000000210e0                .sleep
 .text          0x0000000000021178        0x0 f:/psdk3/ps3dev/ppu/bin/../lib/gcc/powerpc64-ps3-elf/4.5.2/../../../../powerpc64-ps3-elf/lib\libc.a(lib_a-atexit.o)
 .text.atexit   0x0000000000021178       0x40 f:/psdk3/ps3dev/ppu/bin/../lib/gcc/powerpc64-ps3-elf/4.5.2/../../../../powerpc64-ps3-elf/lib\libc.a(lib_a-atexit.o)
                0x0000000000021178                .atexit
 .text          0x00000000000211b8        0x0 f:/psdk3/ps3dev/ppu/bin/../lib/gcc/powerpc64-ps3-elf/4.5.2/../../../../powerpc64-ps3-elf/lib\libc.a(lib_a-errno.o)
 .text.__errno  0x00000000000211b8       0x30 f:/psdk3/ps3dev/ppu/bin/../lib/gcc/powerpc64-ps3-elf/4.5.2/../../../../powerpc64-ps3-elf/lib\libc.a(lib_a-errno.o)
                0x00000000000211b8                .__errno
 .text          0x00000000000211e8        0x0 f:/psdk3/ps3dev/ppu/bin/../lib/gcc/powerpc64-ps3-elf/4.5.2/../../../../powerpc64-ps3-elf/lib\libc.a(lib_a-exit.o)
 .text.exit     0x00000000000211e8       0x68 f:/psdk3/ps3dev/ppu/bin/../lib/gcc/powerpc64-ps3-elf/4.5.2/../../../../powerpc64-ps3-elf/lib\libc.a(lib_a-exit.o)
                0x00000000000211e8                .exit
 .text          0x0000000000021250        0x0 f:/psdk3/ps3dev/ppu/bin/../lib/gcc/powerpc64-ps3-elf/4.5.2/../../../../powerpc64-ps3-elf/lib\libc.a(lib_a-getreent.o)
 .text.__getreent
                0x0000000000021250      0x1f0 f:/psdk3/ps3dev/ppu/bin/../lib/gcc/powerpc64-ps3-elf/4.5.2/../../../../powerpc64-ps3-elf/lib\libc.a(lib_a-getreent.o)
                0x0000000000021250                .__getreent
 .text          0x0000000000021440        0x0 f:/psdk3/ps3dev/ppu/bin/../lib/gcc/powerpc64-ps3-elf/4.5.2/../../../../powerpc64-ps3-elf/lib\libc.a(lib_a-impure.o)
 .text          0x0000000000021440        0x0 f:/psdk3/ps3dev/ppu/bin/../lib/gcc/powerpc64-ps3-elf/4.5.2/../../../../powerpc64-ps3-elf/lib\libc.a(lib_a-malign.o)
 .text.memalign
                0x0000000000021440       0x58 f:/psdk3/ps3dev/ppu/bin/../lib/gcc/powerpc64-ps3-elf/4.5.2/../../../../powerpc64-ps3-elf/lib\libc.a(lib_a-malign.o)
                0x0000000000021440                .memalign
 .text          0x0000000000021498        0x0 f:/psdk3/ps3dev/ppu/bin/../lib/gcc/powerpc64-ps3-elf/4.5.2/../../../../powerpc64-ps3-elf/lib\libc.a(lib_a-malignr.o)
 .text._memalign_r
                0x0000000000021498      0x214 f:/psdk3/ps3dev/ppu/bin/../lib/gcc/powerpc64-ps3-elf/4.5.2/../../../../powerpc64-ps3-elf/lib\libc.a(lib_a-malignr.o)
                0x0000000000021498                ._memalign_r
 .text          0x00000000000216ac        0x0 f:/psdk3/ps3dev/ppu/bin/../lib/gcc/powerpc64-ps3-elf/4.5.2/../../../../powerpc64-ps3-elf/lib\libc.a(lib_a-malloc.o)
 *fill*         0x00000000000216ac        0x4 60000000
 .text.malloc   0x00000000000216b0       0x48 f:/psdk3/ps3dev/ppu/bin/../lib/gcc/powerpc64-ps3-elf/4.5.2/../../../../powerpc64-ps3-elf/lib\libc.a(lib_a-malloc.o)
                0x00000000000216b0                .malloc
 .text.free     0x00000000000216f8       0x48 f:/psdk3/ps3dev/ppu/bin/../lib/gcc/powerpc64-ps3-elf/4.5.2/../../../../powerpc64-ps3-elf/lib\libc.a(lib_a-malloc.o)
                0x00000000000216f8                .free
 .text          0x0000000000021740        0x0 f:/psdk3/ps3dev/ppu/bin/../lib/gcc/powerpc64-ps3-elf/4.5.2/../../../../powerpc64-ps3-elf/lib\libc.a(lib_a-mallocr.o)
 .text._malloc_r
                0x0000000000021740      0x944 f:/psdk3/ps3dev/ppu/bin/../lib/gcc/powerpc64-ps3-elf/4.5.2/../../../../powerpc64-ps3-elf/lib\libc.a(lib_a-mallocr.o)
                0x0000000000021740                ._malloc_r
 .text          0x0000000000022084        0x0 f:/psdk3/ps3dev/ppu/bin/../lib/gcc/powerpc64-ps3-elf/4.5.2/../../../../powerpc64-ps3-elf/lib\libc.a(lib_a-memcpy.o)
 *fill*         0x0000000000022084        0x4 60000000
 .text.memcpy   0x0000000000022088       0xf8 f:/psdk3/ps3dev/ppu/bin/../lib/gcc/powerpc64-ps3-elf/4.5.2/../../../../powerpc64-ps3-elf/lib\libc.a(lib_a-memcpy.o)
                0x0000000000022088                .memcpy
 .text          0x0000000000022180        0x0 f:/psdk3/ps3dev/ppu/bin/../lib/gcc/powerpc64-ps3-elf/4.5.2/../../../../powerpc64-ps3-elf/lib\libc.a(lib_a-memset.o)
 .text.memset   0x0000000000022180      0x130 f:/psdk3/ps3dev/ppu/bin/../lib/gcc/powerpc64-ps3-elf/4.5.2/../../../../powerpc64-ps3-elf/lib\libc.a(lib_a-memset.o)
                0x0000000000022180                .memset
 .text          0x00000000000222b0        0x0 f:/psdk3/ps3dev/ppu/bin/../lib/gcc/powerpc64-ps3-elf/4.5.2/../../../../powerpc64-ps3-elf/lib\libc.a(lib_a-mlock.o)
 .text.__malloc_lock
                0x00000000000222b0       0x34 f:/psdk3/ps3dev/ppu/bin/../lib/gcc/powerpc64-ps3-elf/4.5.2/../../../../powerpc64-ps3-elf/lib\libc.a(lib_a-mlock.o)
                0x00000000000222b0                .__malloc_lock
 *fill*         0x00000000000222e4        0x4 60000000
 .text.__malloc_unlock
                0x00000000000222e8       0x34 f:/psdk3/ps3dev/ppu/bin/../lib/gcc/powerpc64-ps3-elf/4.5.2/../../../../powerpc64-ps3-elf/lib\libc.a(lib_a-mlock.o)
                0x00000000000222e8                .__malloc_unlock
 .text          0x000000000002231c        0x0 f:/psdk3/ps3dev/ppu/bin/../lib/gcc/powerpc64-ps3-elf/4.5.2/../../../../powerpc64-ps3-elf/lib\libc.a(lib_a-sscanf.o)
 *fill*         0x000000000002231c        0x4 60000000
 .text.sscanf   0x0000000000022320       0xa8 f:/psdk3/ps3dev/ppu/bin/../lib/gcc/powerpc64-ps3-elf/4.5.2/../../../../powerpc64-ps3-elf/lib\libc.a(lib_a-sscanf.o)
                0x0000000000022320                .sscanf
 .text._sscanf_r
                0x00000000000223c8       0xa8 f:/psdk3/ps3dev/ppu/bin/../lib/gcc/powerpc64-ps3-elf/4.5.2/../../../../powerpc64-ps3-elf/lib\libc.a(lib_a-sscanf.o)
                0x00000000000223c8                ._sscanf_r
 .text          0x0000000000022470        0x0 f:/psdk3/ps3dev/ppu/bin/../lib/gcc/powerpc64-ps3-elf/4.5.2/../../../../powerpc64-ps3-elf/lib\libc.a(lib_a-stdio.o)
 .text.__sread  0x0000000000022470       0x80 f:/psdk3/ps3dev/ppu/bin/../lib/gcc/powerpc64-ps3-elf/4.5.2/../../../../powerpc64-ps3-elf/lib\libc.a(lib_a-stdio.o)
                0x0000000000022470                .__sread
 .text.__seofread
                0x00000000000224f0       0x14 f:/psdk3/ps3dev/ppu/bin/../lib/gcc/powerpc64-ps3-elf/4.5.2/../../../../powerpc64-ps3-elf/lib\libc.a(lib_a-stdio.o)
                0x00000000000224f0                .__seofread
 *fill*         0x0000000000022504        0x4 60000000
 .text.__swrite
                0x0000000000022508       0xbc f:/psdk3/ps3dev/ppu/bin/../lib/gcc/powerpc64-ps3-elf/4.5.2/../../../../powerpc64-ps3-elf/lib\libc.a(lib_a-stdio.o)
                0x0000000000022508                .__swrite
 *fill*         0x00000000000225c4        0x4 60000000
 .text.__sseek  0x00000000000225c8       0x88 f:/psdk3/ps3dev/ppu/bin/../lib/gcc/powerpc64-ps3-elf/4.5.2/../../../../powerpc64-ps3-elf/lib\libc.a(lib_a-stdio.o)
                0x00000000000225c8                .__sseek
 .text.__sclose
                0x0000000000022650       0x3c f:/psdk3/ps3dev/ppu/bin/../lib/gcc/powerpc64-ps3-elf/4.5.2/../../../../powerpc64-ps3-elf/lib\libc.a(lib_a-stdio.o)
                0x0000000000022650                .__sclose
 .text          0x000000000002268c        0x0 f:/psdk3/ps3dev/ppu/bin/../lib/gcc/powerpc64-ps3-elf/4.5.2/../../../../powerpc64-ps3-elf/lib\libc.a(lib_a-strcasecmp.o)
 *fill*         0x000000000002268c        0x4 60000000
 .text.strcasecmp
                0x0000000000022690       0xb8 f:/psdk3/ps3dev/ppu/bin/../lib/gcc/powerpc64-ps3-elf/4.5.2/../../../../powerpc64-ps3-elf/lib\libc.a(lib_a-strcasecmp.o)
                0x0000000000022690                .strcasecmp
 .text          0x0000000000022748        0x0 f:/psdk3/ps3dev/ppu/bin/../lib/gcc/powerpc64-ps3-elf/4.5.2/../../../../powerpc64-ps3-elf/lib\libc.a(lib_a-strlen.o)
 .text.strlen   0x0000000000022748       0xe4 f:/psdk3/ps3dev/ppu/bin/../lib/gcc/powerpc64-ps3-elf/4.5.2/../../../../powerpc64-ps3-elf/lib\libc.a(lib_a-strlen.o)
                0x0000000000022748                .strlen
 .text          0x000000000002282c        0x0 f:/psdk3/ps3dev/ppu/bin/../lib/gcc/powerpc64-ps3-elf/4.5.2/../../../../powerpc64-ps3-elf/lib\libc.a(lib_a-strncpy.o)
 *fill*         0x000000000002282c        0x4 60000000
 .text.strncpy  0x0000000000022830      0x100 f:/psdk3/ps3dev/ppu/bin/../lib/gcc/powerpc64-ps3-elf/4.5.2/../../../../powerpc64-ps3-elf/lib\libc.a(lib_a-strncpy.o)
                0x0000000000022830                .strncpy
 .text          0x0000000000022930        0x0 f:/psdk3/ps3dev/ppu/bin/../lib/gcc/powerpc64-ps3-elf/4.5.2/../../../../powerpc64-ps3-elf/lib\libc.a(lib_a-svfscanf.o)
 .text.__ssvfscanf_r
                0x0000000000022930     0x18d8 f:/psdk3/ps3dev/ppu/bin/../lib/gcc/powerpc64-ps3-elf/4.5.2/../../../../powerpc64-ps3-elf/lib\libc.a(lib_a-svfscanf.o)
                0x0000000000022930                .__ssvfscanf_r
 .text          0x0000000000024208        0x0 f:/psdk3/ps3dev/ppu/bin/../lib/gcc/powerpc64-ps3-elf/4.5.2/../../../../powerpc64-ps3-elf/lib\libc.a(lib_a-vsprintf.o)
 .text._vsprintf_r
                0x0000000000024208       0x6c f:/psdk3/ps3dev/ppu/bin/../lib/gcc/powerpc64-ps3-elf/4.5.2/../../../../powerpc64-ps3-elf/lib\libc.a(lib_a-vsprintf.o)
                0x0000000000024208                ._vsprintf_r
 *fill*         0x0000000000024274        0x4 60000000
 .text.vsprintf
                0x0000000000024278       0x60 f:/psdk3/ps3dev/ppu/bin/../lib/gcc/powerpc64-ps3-elf/4.5.2/../../../../powerpc64-ps3-elf/lib\libc.a(lib_a-vsprintf.o)
                0x0000000000024278                .vsprintf
 .text          0x00000000000242d8        0x0 f:/psdk3/ps3dev/ppu/bin/../lib/gcc/powerpc64-ps3-elf/4.5.2/../../../../powerpc64-ps3-elf/lib\libc.a(lib_a-__atexit.o)
 .text.__register_exitproc
                0x00000000000242d8      0x188 f:/psdk3/ps3dev/ppu/bin/../lib/gcc/powerpc64-ps3-elf/4.5.2/../../../../powerpc64-ps3-elf/lib\libc.a(lib_a-__atexit.o)
                0x00000000000242d8                .__register_exitproc
 .text          0x0000000000024460        0x0 f:/psdk3/ps3dev/ppu/bin/../lib/gcc/powerpc64-ps3-elf/4.5.2/../../../../powerpc64-ps3-elf/lib\libc.a(lib_a-__call_atexit.o)
 .text.__call_exitprocs
                0x0000000000024460      0x250 f:/psdk3/ps3dev/ppu/bin/../lib/gcc/powerpc64-ps3-elf/4.5.2/../../../../powerpc64-ps3-elf/lib\libc.a(lib_a-__call_atexit.o)
                0x0000000000024460                .__call_exitprocs
 .text          0x00000000000246b0        0x0 f:/psdk3/ps3dev/ppu/bin/../lib/gcc/powerpc64-ps3-elf/4.5.2/../../../../powerpc64-ps3-elf/lib\libc.a(lib_a-ctype_.o)
 .text          0x00000000000246b0        0x0 f:/psdk3/ps3dev/ppu/bin/../lib/gcc/powerpc64-ps3-elf/4.5.2/../../../../powerpc64-ps3-elf/lib\libc.a(lib_a-findfp.o)
 .text._cleanup_r
                0x00000000000246b0       0x34 f:/psdk3/ps3dev/ppu/bin/../lib/gcc/powerpc64-ps3-elf/4.5.2/../../../../powerpc64-ps3-elf/lib\libc.a(lib_a-findfp.o)
                0x00000000000246b0                ._cleanup_r
 *fill*         0x00000000000246e4        0x4 60000000
 .text.__fp_unlock
                0x00000000000246e8       0x48 f:/psdk3/ps3dev/ppu/bin/../lib/gcc/powerpc64-ps3-elf/4.5.2/../../../../powerpc64-ps3-elf/lib\libc.a(lib_a-findfp.o)
 .text.__fp_lock
                0x0000000000024730       0x48 f:/psdk3/ps3dev/ppu/bin/../lib/gcc/powerpc64-ps3-elf/4.5.2/../../../../powerpc64-ps3-elf/lib\libc.a(lib_a-findfp.o)
 .text.__sfmoreglue
                0x0000000000024778       0x94 f:/psdk3/ps3dev/ppu/bin/../lib/gcc/powerpc64-ps3-elf/4.5.2/../../../../powerpc64-ps3-elf/lib\libc.a(lib_a-findfp.o)
                0x0000000000024778                .__sfmoreglue
 *fill*         0x000000000002480c        0x4 60000000
 .text._cleanup
                0x0000000000024810       0x18 f:/psdk3/ps3dev/ppu/bin/../lib/gcc/powerpc64-ps3-elf/4.5.2/../../../../powerpc64-ps3-elf/lib\libc.a(lib_a-findfp.o)
                0x0000000000024810                ._cleanup
 .text.__sfp_lock_acquire
                0x0000000000024828       0x34 f:/psdk3/ps3dev/ppu/bin/../lib/gcc/powerpc64-ps3-elf/4.5.2/../../../../powerpc64-ps3-elf/lib\libc.a(lib_a-findfp.o)
                0x0000000000024828                .__sfp_lock_acquire
 *fill*         0x000000000002485c        0x4 60000000
 .text.__sfp_lock_release
                0x0000000000024860       0x34 f:/psdk3/ps3dev/ppu/bin/../lib/gcc/powerpc64-ps3-elf/4.5.2/../../../../powerpc64-ps3-elf/lib\libc.a(lib_a-findfp.o)
                0x0000000000024860                .__sfp_lock_release
 *fill*         0x0000000000024894        0x4 60000000
 .text.__sinit_lock_acquire
                0x0000000000024898       0x34 f:/psdk3/ps3dev/ppu/bin/../lib/gcc/powerpc64-ps3-elf/4.5.2/../../../../powerpc64-ps3-elf/lib\libc.a(lib_a-findfp.o)
                0x0000000000024898                .__sinit_lock_acquire
 *fill*         0x00000000000248cc        0x4 60000000
 .text.__sinit_lock_release
                0x00000000000248d0       0x34 f:/psdk3/ps3dev/ppu/bin/../lib/gcc/powerpc64-ps3-elf/4.5.2/../../../../powerpc64-ps3-elf/lib\libc.a(lib_a-findfp.o)
                0x00000000000248d0                .__sinit_lock_release
 *fill*         0x0000000000024904        0x4 60000000
 .text.__sinit  0x0000000000024908      0x1d8 f:/psdk3/ps3dev/ppu/bin/../lib/gcc/powerpc64-ps3-elf/4.5.2/../../../../powerpc64-ps3-elf/lib\libc.a(lib_a-findfp.o)
                0x0000000000024908                .__sinit
 .text.__sfp    0x0000000000024ae0      0x190 f:/psdk3/ps3dev/ppu/bin/../lib/gcc/powerpc64-ps3-elf/4.5.2/../../../../powerpc64-ps3-elf/lib\libc.a(lib_a-findfp.o)
                0x0000000000024ae0                .__sfp
 .text.__fp_lock_all
                0x0000000000024c70       0x40 f:/psdk3/ps3dev/ppu/bin/../lib/gcc/powerpc64-ps3-elf/4.5.2/../../../../powerpc64-ps3-elf/lib\libc.a(lib_a-findfp.o)
                0x0000000000024c70                .__fp_lock_all
 .text.__fp_unlock_all
                0x0000000000024cb0       0x3c f:/psdk3/ps3dev/ppu/bin/../lib/gcc/powerpc64-ps3-elf/4.5.2/../../../../powerpc64-ps3-elf/lib\libc.a(lib_a-findfp.o)
                0x0000000000024cb0                .__fp_unlock_all
 .text          0x0000000000024cec        0x0 f:/psdk3/ps3dev/ppu/bin/../lib/gcc/powerpc64-ps3-elf/4.5.2/../../../../powerpc64-ps3-elf/lib\libc.a(lib_a-freer.o)
 *fill*         0x0000000000024cec        0x4 60000000
 .text._malloc_trim_r
                0x0000000000024cf0      0x15c f:/psdk3/ps3dev/ppu/bin/../lib/gcc/powerpc64-ps3-elf/4.5.2/../../../../powerpc64-ps3-elf/lib\libc.a(lib_a-freer.o)
                0x0000000000024cf0                ._malloc_trim_r
 *fill*         0x0000000000024e4c        0x4 60000000
 .text._free_r  0x0000000000024e50      0x310 f:/psdk3/ps3dev/ppu/bin/../lib/gcc/powerpc64-ps3-elf/4.5.2/../../../../powerpc64-ps3-elf/lib\libc.a(lib_a-freer.o)
                0x0000000000024e50                ._free_r
 .text          0x0000000000025160        0x0 f:/psdk3/ps3dev/ppu/bin/../lib/gcc/powerpc64-ps3-elf/4.5.2/../../../../powerpc64-ps3-elf/lib\libc.a(lib_a-fwalk.o)
 .text._fwalk   0x0000000000025160       0xfc f:/psdk3/ps3dev/ppu/bin/../lib/gcc/powerpc64-ps3-elf/4.5.2/../../../../powerpc64-ps3-elf/lib\libc.a(lib_a-fwalk.o)
                0x0000000000025160                ._fwalk
 *fill*         0x000000000002525c        0x4 60000000
 .text._fwalk_reent
                0x0000000000025260      0x108 f:/psdk3/ps3dev/ppu/bin/../lib/gcc/powerpc64-ps3-elf/4.5.2/../../../../powerpc64-ps3-elf/lib\libc.a(lib_a-fwalk.o)
                0x0000000000025260                ._fwalk_reent
 .text          0x0000000000025368        0x0 f:/psdk3/ps3dev/ppu/bin/../lib/gcc/powerpc64-ps3-elf/4.5.2/../../../../powerpc64-ps3-elf/lib\libc.a(lib_a-iswspace.o)
 .text.iswspace
                0x0000000000025368       0x3c f:/psdk3/ps3dev/ppu/bin/../lib/gcc/powerpc64-ps3-elf/4.5.2/../../../../powerpc64-ps3-elf/lib\libc.a(lib_a-iswspace.o)
                0x0000000000025368                .iswspace
 .text          0x00000000000253a4        0x0 f:/psdk3/ps3dev/ppu/bin/../lib/gcc/powerpc64-ps3-elf/4.5.2/../../../../powerpc64-ps3-elf/lib\libc.a(lib_a-locale.o)
 *fill*         0x00000000000253a4        0x4 60000000
 .text._setlocale_r
                0x00000000000253a8       0xa8 f:/psdk3/ps3dev/ppu/bin/../lib/gcc/powerpc64-ps3-elf/4.5.2/../../../../powerpc64-ps3-elf/lib\libc.a(lib_a-locale.o)
                0x00000000000253a8                ._setlocale_r
 .text.__locale_charset
                0x0000000000025450       0x14 f:/psdk3/ps3dev/ppu/bin/../lib/gcc/powerpc64-ps3-elf/4.5.2/../../../../powerpc64-ps3-elf/lib\libc.a(lib_a-locale.o)
                0x0000000000025450                .__locale_charset
 *fill*         0x0000000000025464        0x4 60000000
 .text.__locale_mb_cur_max
                0x0000000000025468       0x1c f:/psdk3/ps3dev/ppu/bin/../lib/gcc/powerpc64-ps3-elf/4.5.2/../../../../powerpc64-ps3-elf/lib\libc.a(lib_a-locale.o)
                0x0000000000025468                .__locale_mb_cur_max
 *fill*         0x0000000000025484        0x4 60000000
 .text.__locale_msgcharset
                0x0000000000025488       0x14 f:/psdk3/ps3dev/ppu/bin/../lib/gcc/powerpc64-ps3-elf/4.5.2/../../../../powerpc64-ps3-elf/lib\libc.a(lib_a-locale.o)
                0x0000000000025488                .__locale_msgcharset
 *fill*         0x000000000002549c        0x4 60000000
 .text.__locale_cjk_lang
                0x00000000000254a0       0x14 f:/psdk3/ps3dev/ppu/bin/../lib/gcc/powerpc64-ps3-elf/4.5.2/../../../../powerpc64-ps3-elf/lib\libc.a(lib_a-locale.o)
                0x00000000000254a0                .__locale_cjk_lang
 *fill*         0x00000000000254b4        0x4 60000000
 .text._localeconv_r
                0x00000000000254b8       0x14 f:/psdk3/ps3dev/ppu/bin/../lib/gcc/powerpc64-ps3-elf/4.5.2/../../../../powerpc64-ps3-elf/lib\libc.a(lib_a-locale.o)
                0x00000000000254b8                ._localeconv_r
 *fill*         0x00000000000254cc        0x4 60000000
 .text.setlocale
                0x00000000000254d0       0x50 f:/psdk3/ps3dev/ppu/bin/../lib/gcc/powerpc64-ps3-elf/4.5.2/../../../../powerpc64-ps3-elf/lib\libc.a(lib_a-locale.o)
                0x00000000000254d0                .setlocale
 .text.localeconv
                0x0000000000025520       0x34 f:/psdk3/ps3dev/ppu/bin/../lib/gcc/powerpc64-ps3-elf/4.5.2/../../../../powerpc64-ps3-elf/lib\libc.a(lib_a-locale.o)
                0x0000000000025520                .localeconv
 .text          0x0000000000025554        0x0 f:/psdk3/ps3dev/ppu/bin/../lib/gcc/powerpc64-ps3-elf/4.5.2/../../../../powerpc64-ps3-elf/lib\libc.a(lib_a-lock_recursive.o)
 *fill*         0x0000000000025554        0x4 60000000
 .text.__libc_lock_init_recursive
                0x0000000000025558       0x34 f:/psdk3/ps3dev/ppu/bin/../lib/gcc/powerpc64-ps3-elf/4.5.2/../../../../powerpc64-ps3-elf/lib\libc.a(lib_a-lock_recursive.o)
                0x0000000000025558                .__libc_lock_init_recursive
 *fill*         0x000000000002558c        0x4 60000000
 .text.__libc_lock_close_recursive
                0x0000000000025590       0x30 f:/psdk3/ps3dev/ppu/bin/../lib/gcc/powerpc64-ps3-elf/4.5.2/../../../../powerpc64-ps3-elf/lib\libc.a(lib_a-lock_recursive.o)
                0x0000000000025590                .__libc_lock_close_recursive
 .text.__libc_lock_acquire_recursive
                0x00000000000255c0       0x58 f:/psdk3/ps3dev/ppu/bin/../lib/gcc/powerpc64-ps3-elf/4.5.2/../../../../powerpc64-ps3-elf/lib\libc.a(lib_a-lock_recursive.o)
                0x00000000000255c0                .__libc_lock_acquire_recursive
 .text.__libc_lock_try_acquire_recursive
                0x0000000000025618       0x54 f:/psdk3/ps3dev/ppu/bin/../lib/gcc/powerpc64-ps3-elf/4.5.2/../../../../powerpc64-ps3-elf/lib\libc.a(lib_a-lock_recursive.o)
                0x0000000000025618                .__libc_lock_try_acquire_recursive
 *fill*         0x000000000002566c        0x4 60000000
 .text.__libc_lock_release_recursive
                0x0000000000025670       0x54 f:/psdk3/ps3dev/ppu/bin/../lib/gcc/powerpc64-ps3-elf/4.5.2/../../../../powerpc64-ps3-elf/lib\libc.a(lib_a-lock_recursive.o)
                0x0000000000025670                .__libc_lock_release_recursive
 .text          0x00000000000256c4        0x0 f:/psdk3/ps3dev/ppu/bin/../lib/gcc/powerpc64-ps3-elf/4.5.2/../../../../powerpc64-ps3-elf/lib\libc.a(lib_a-mbrtowc.o)
 *fill*         0x00000000000256c4        0x4 60000000
 .text._mbrtowc_r
                0x00000000000256c8      0x10c f:/psdk3/ps3dev/ppu/bin/../lib/gcc/powerpc64-ps3-elf/4.5.2/../../../../powerpc64-ps3-elf/lib\libc.a(lib_a-mbrtowc.o)
                0x00000000000256c8                ._mbrtowc_r
 *fill*         0x00000000000257d4        0x4 60000000
 .text.mbrtowc  0x00000000000257d8      0x170 f:/psdk3/ps3dev/ppu/bin/../lib/gcc/powerpc64-ps3-elf/4.5.2/../../../../powerpc64-ps3-elf/lib\libc.a(lib_a-mbrtowc.o)
                0x00000000000257d8                .mbrtowc
 .text          0x0000000000025948        0x0 f:/psdk3/ps3dev/ppu/bin/../lib/gcc/powerpc64-ps3-elf/4.5.2/../../../../powerpc64-ps3-elf/lib\libc.a(lib_a-mbtowc_r.o)
 .text.__ascii_mbtowc
                0x0000000000025948       0x58 f:/psdk3/ps3dev/ppu/bin/../lib/gcc/powerpc64-ps3-elf/4.5.2/../../../../powerpc64-ps3-elf/lib\libc.a(lib_a-mbtowc_r.o)
                0x0000000000025948                .__ascii_mbtowc
 .text._mbtowc_r
                0x00000000000259a0       0x98 f:/psdk3/ps3dev/ppu/bin/../lib/gcc/powerpc64-ps3-elf/4.5.2/../../../../powerpc64-ps3-elf/lib\libc.a(lib_a-mbtowc_r.o)
                0x00000000000259a0                ._mbtowc_r
 .text          0x0000000000025a38        0x0 f:/psdk3/ps3dev/ppu/bin/../lib/gcc/powerpc64-ps3-elf/4.5.2/../../../../powerpc64-ps3-elf/lib\libc.a(lib_a-s_fpclassify.o)
 .text.__fpclassifyd
                0x0000000000025a38       0xc4 f:/psdk3/ps3dev/ppu/bin/../lib/gcc/powerpc64-ps3-elf/4.5.2/../../../../powerpc64-ps3-elf/lib\libc.a(lib_a-s_fpclassify.o)
                0x0000000000025a38                .__fpclassifyd
 .text          0x0000000000025afc        0x0 f:/psdk3/ps3dev/ppu/bin/../lib/gcc/powerpc64-ps3-elf/4.5.2/../../../../powerpc64-ps3-elf/lib\libc.a(lib_a-sccl.o)
 *fill*         0x0000000000025afc        0x4 60000000
 .text.__sccl   0x0000000000025b00      0x120 f:/psdk3/ps3dev/ppu/bin/../lib/gcc/powerpc64-ps3-elf/4.5.2/../../../../powerpc64-ps3-elf/lib\libc.a(lib_a-sccl.o)
                0x0000000000025b00                .__sccl
 .text          0x0000000000025c20        0x0 f:/psdk3/ps3dev/ppu/bin/../lib/gcc/powerpc64-ps3-elf/4.5.2/../../../../powerpc64-ps3-elf/lib\libc.a(lib_a-sf_nan.o)
 .text.nanf     0x0000000000025c20       0x18 f:/psdk3/ps3dev/ppu/bin/../lib/gcc/powerpc64-ps3-elf/4.5.2/../../../../powerpc64-ps3-elf/lib\libc.a(lib_a-sf_nan.o)
                0x0000000000025c20                .nanf
 .text          0x0000000000025c38        0x0 f:/psdk3/ps3dev/ppu/bin/../lib/gcc/powerpc64-ps3-elf/4.5.2/../../../../powerpc64-ps3-elf/lib\libc.a(lib_a-sprintf.o)
 .text._sprintf_r
                0x0000000000025c38       0x84 f:/psdk3/ps3dev/ppu/bin/../lib/gcc/powerpc64-ps3-elf/4.5.2/../../../../powerpc64-ps3-elf/lib\libc.a(lib_a-sprintf.o)
                0x0000000000025c38                ._sprintf_r
 *fill*         0x0000000000025cbc        0x4 60000000
 .text.sprintf  0x0000000000025cc0       0x9c f:/psdk3/ps3dev/ppu/bin/../lib/gcc/powerpc64-ps3-elf/4.5.2/../../../../powerpc64-ps3-elf/lib\libc.a(lib_a-sprintf.o)
                0x0000000000025cc0                .sprintf
 .text          0x0000000000025d5c        0x0 f:/psdk3/ps3dev/ppu/bin/../lib/gcc/powerpc64-ps3-elf/4.5.2/../../../../powerpc64-ps3-elf/lib\libc.a(lib_a-strcmp.o)
 *fill*         0x0000000000025d5c        0x4 60000000
 .text.strcmp   0x0000000000025d60       0xfc f:/psdk3/ps3dev/ppu/bin/../lib/gcc/powerpc64-ps3-elf/4.5.2/../../../../powerpc64-ps3-elf/lib\libc.a(lib_a-strcmp.o)
                0x0000000000025d60                .strcmp
 .text          0x0000000000025e5c        0x0 f:/psdk3/ps3dev/ppu/bin/../lib/gcc/powerpc64-ps3-elf/4.5.2/../../../../powerpc64-ps3-elf/lib\libc.a(lib_a-strtod.o)
 *fill*         0x0000000000025e5c        0x4 60000000
 .text.match    0x0000000000025e60       0x6c f:/psdk3/ps3dev/ppu/bin/../lib/gcc/powerpc64-ps3-elf/4.5.2/../../../../powerpc64-ps3-elf/lib\libc.a(lib_a-strtod.o)
 *fill*         0x0000000000025ecc        0x4 60000000
 .text._strtod_r
                0x0000000000025ed0     0x1578 f:/psdk3/ps3dev/ppu/bin/../lib/gcc/powerpc64-ps3-elf/4.5.2/../../../../powerpc64-ps3-elf/lib\libc.a(lib_a-strtod.o)
                0x0000000000025ed0                ._strtod_r
 .text.strtod   0x0000000000027448       0x50 f:/psdk3/ps3dev/ppu/bin/../lib/gcc/powerpc64-ps3-elf/4.5.2/../../../../powerpc64-ps3-elf/lib\libc.a(lib_a-strtod.o)
                0x0000000000027448                .strtod
 .text.strtof   0x0000000000027498       0x98 f:/psdk3/ps3dev/ppu/bin/../lib/gcc/powerpc64-ps3-elf/4.5.2/../../../../powerpc64-ps3-elf/lib\libc.a(lib_a-strtod.o)
                0x0000000000027498                .strtof
 .text          0x0000000000027530        0x0 f:/psdk3/ps3dev/ppu/bin/../lib/gcc/powerpc64-ps3-elf/4.5.2/../../../../powerpc64-ps3-elf/lib\libc.a(lib_a-strtol.o)
 .text._strtol_r
                0x0000000000027530      0x24c f:/psdk3/ps3dev/ppu/bin/../lib/gcc/powerpc64-ps3-elf/4.5.2/../../../../powerpc64-ps3-elf/lib\libc.a(lib_a-strtol.o)
                0x0000000000027530                ._strtol_r
 *fill*         0x000000000002777c        0x4 60000000
 .text.strtol   0x0000000000027780       0x60 f:/psdk3/ps3dev/ppu/bin/../lib/gcc/powerpc64-ps3-elf/4.5.2/../../../../powerpc64-ps3-elf/lib\libc.a(lib_a-strtol.o)
                0x0000000000027780                .strtol
 .text          0x00000000000277e0        0x0 f:/psdk3/ps3dev/ppu/bin/../lib/gcc/powerpc64-ps3-elf/4.5.2/../../../../powerpc64-ps3-elf/lib\libc.a(lib_a-strtoll_r.o)
 .text._strtoll_r
                0x00000000000277e0      0x24c f:/psdk3/ps3dev/ppu/bin/../lib/gcc/powerpc64-ps3-elf/4.5.2/../../../../powerpc64-ps3-elf/lib\libc.a(lib_a-strtoll_r.o)
                0x00000000000277e0                ._strtoll_r
 .text          0x0000000000027a2c        0x0 f:/psdk3/ps3dev/ppu/bin/../lib/gcc/powerpc64-ps3-elf/4.5.2/../../../../powerpc64-ps3-elf/lib\libc.a(lib_a-strtoul.o)
 *fill*         0x0000000000027a2c        0x4 60000000
 .text._strtoul_r
                0x0000000000027a30      0x230 f:/psdk3/ps3dev/ppu/bin/../lib/gcc/powerpc64-ps3-elf/4.5.2/../../../../powerpc64-ps3-elf/lib\libc.a(lib_a-strtoul.o)
                0x0000000000027a30                ._strtoul_r
 .text.strtoul  0x0000000000027c60       0x60 f:/psdk3/ps3dev/ppu/bin/../lib/gcc/powerpc64-ps3-elf/4.5.2/../../../../powerpc64-ps3-elf/lib\libc.a(lib_a-strtoul.o)
                0x0000000000027c60                .strtoul
 .text          0x0000000000027cc0        0x0 f:/psdk3/ps3dev/ppu/bin/../lib/gcc/powerpc64-ps3-elf/4.5.2/../../../../powerpc64-ps3-elf/lib\libc.a(lib_a-strtoull_r.o)
 .text._strtoull_r
                0x0000000000027cc0      0x230 f:/psdk3/ps3dev/ppu/bin/../lib/gcc/powerpc64-ps3-elf/4.5.2/../../../../powerpc64-ps3-elf/lib\libc.a(lib_a-strtoull_r.o)
                0x0000000000027cc0                ._strtoull_r
 .text          0x0000000000027ef0        0x0 f:/psdk3/ps3dev/ppu/bin/../lib/gcc/powerpc64-ps3-elf/4.5.2/../../../../powerpc64-ps3-elf/lib\libc.a(lib_a-svfiscanf.o)
 .text._sungetc_r
                0x0000000000027ef0      0x158 f:/psdk3/ps3dev/ppu/bin/../lib/gcc/powerpc64-ps3-elf/4.5.2/../../../../powerpc64-ps3-elf/lib\libc.a(lib_a-svfiscanf.o)
                0x0000000000027ef0                ._sungetc_r
 .text.__ssrefill_r
                0x0000000000028048       0xa0 f:/psdk3/ps3dev/ppu/bin/../lib/gcc/powerpc64-ps3-elf/4.5.2/../../../../powerpc64-ps3-elf/lib\libc.a(lib_a-svfiscanf.o)
                0x0000000000028048                .__ssrefill_r
 .text._sfread_r
                0x00000000000280e8      0x194 f:/psdk3/ps3dev/ppu/bin/../lib/gcc/powerpc64-ps3-elf/4.5.2/../../../../powerpc64-ps3-elf/lib\libc.a(lib_a-svfiscanf.o)
                0x00000000000280e8                ._sfread_r
 *fill*         0x000000000002827c        0x4 60000000
 .text.__ssvfiscanf_r
                0x0000000000028280     0x1208 f:/psdk3/ps3dev/ppu/bin/../lib/gcc/powerpc64-ps3-elf/4.5.2/../../../../powerpc64-ps3-elf/lib\libc.a(lib_a-svfiscanf.o)
                0x0000000000028280                .__ssvfiscanf_r
 .text          0x0000000000029488        0x0 f:/psdk3/ps3dev/ppu/bin/../lib/gcc/powerpc64-ps3-elf/4.5.2/../../../../powerpc64-ps3-elf/lib\libc.a(lib_a-svfprintf.o)
 .text._svfprintf_r
                0x0000000000029488     0x2120 f:/psdk3/ps3dev/ppu/bin/../lib/gcc/powerpc64-ps3-elf/4.5.2/../../../../powerpc64-ps3-elf/lib\libc.a(lib_a-svfprintf.o)
                0x0000000000029488                ._svfprintf_r
 .text          0x000000000002b5a8        0x0 f:/psdk3/ps3dev/ppu/bin/../lib/gcc/powerpc64-ps3-elf/4.5.2/../../../../powerpc64-ps3-elf/lib\libc.a(lib_a-ungetc.o)
 .text.__submore
                0x000000000002b5a8      0x124 f:/psdk3/ps3dev/ppu/bin/../lib/gcc/powerpc64-ps3-elf/4.5.2/../../../../powerpc64-ps3-elf/lib\libc.a(lib_a-ungetc.o)
                0x000000000002b5a8                .__submore
 *fill*         0x000000000002b6cc        0x4 60000000
 .text._ungetc_r
                0x000000000002b6d0      0x2b8 f:/psdk3/ps3dev/ppu/bin/../lib/gcc/powerpc64-ps3-elf/4.5.2/../../../../powerpc64-ps3-elf/lib\libc.a(lib_a-ungetc.o)
                0x000000000002b6d0                ._ungetc_r
 .text.ungetc   0x000000000002b988       0x50 f:/psdk3/ps3dev/ppu/bin/../lib/gcc/powerpc64-ps3-elf/4.5.2/../../../../powerpc64-ps3-elf/lib\libc.a(lib_a-ungetc.o)
                0x000000000002b988                .ungetc
 .text          0x000000000002b9d8        0x0 f:/psdk3/ps3dev/ppu/bin/../lib/gcc/powerpc64-ps3-elf/4.5.2/../../../../powerpc64-ps3-elf/lib\libc.a(lib_a-dtoa.o)
 .text.quorem   0x000000000002b9d8      0x258 f:/psdk3/ps3dev/ppu/bin/../lib/gcc/powerpc64-ps3-elf/4.5.2/../../../../powerpc64-ps3-elf/lib\libc.a(lib_a-dtoa.o)
 .text._dtoa_r  0x000000000002bc30     0x1328 f:/psdk3/ps3dev/ppu/bin/../lib/gcc/powerpc64-ps3-elf/4.5.2/../../../../powerpc64-ps3-elf/lib\libc.a(lib_a-dtoa.o)
                0x000000000002bc30                ._dtoa_r
 .text          0x000000000002cf58        0x0 f:/psdk3/ps3dev/ppu/bin/../lib/gcc/powerpc64-ps3-elf/4.5.2/../../../../powerpc64-ps3-elf/lib\libc.a(lib_a-fclose.o)
 .text._fclose_r
                0x000000000002cf58      0x1ec f:/psdk3/ps3dev/ppu/bin/../lib/gcc/powerpc64-ps3-elf/4.5.2/../../../../powerpc64-ps3-elf/lib\libc.a(lib_a-fclose.o)
                0x000000000002cf58                ._fclose_r
 *fill*         0x000000000002d144        0x4 60000000
 .text.fclose   0x000000000002d148       0x40 f:/psdk3/ps3dev/ppu/bin/../lib/gcc/powerpc64-ps3-elf/4.5.2/../../../../powerpc64-ps3-elf/lib\libc.a(lib_a-fclose.o)
                0x000000000002d148                .fclose
 .text          0x000000000002d188        0x0 f:/psdk3/ps3dev/ppu/bin/../lib/gcc/powerpc64-ps3-elf/4.5.2/../../../../powerpc64-ps3-elf/lib\libc.a(lib_a-fflush.o)
 .text._fflush_r
                0x000000000002d188      0x410 f:/psdk3/ps3dev/ppu/bin/../lib/gcc/powerpc64-ps3-elf/4.5.2/../../../../powerpc64-ps3-elf/lib\libc.a(lib_a-fflush.o)
                0x000000000002d188                ._fflush_r
 .text.fflush   0x000000000002d598       0x74 f:/psdk3/ps3dev/ppu/bin/../lib/gcc/powerpc64-ps3-elf/4.5.2/../../../../powerpc64-ps3-elf/lib\libc.a(lib_a-fflush.o)
                0x000000000002d598                .fflush
 .text          0x000000000002d60c        0x0 f:/psdk3/ps3dev/ppu/bin/../lib/gcc/powerpc64-ps3-elf/4.5.2/../../../../powerpc64-ps3-elf/lib\libc.a(lib_a-gdtoa-gethex.o)
 *fill*         0x000000000002d60c        0x4 60000000
 .text.rshift   0x000000000002d610      0x164 f:/psdk3/ps3dev/ppu/bin/../lib/gcc/powerpc64-ps3-elf/4.5.2/../../../../powerpc64-ps3-elf/lib\libc.a(lib_a-gdtoa-gethex.o)
 *fill*         0x000000000002d774        0x4 60000000
 .text.__hexdig_init
                0x000000000002d778       0x8c f:/psdk3/ps3dev/ppu/bin/../lib/gcc/powerpc64-ps3-elf/4.5.2/../../../../powerpc64-ps3-elf/lib\libc.a(lib_a-gdtoa-gethex.o)
                0x000000000002d778                .__hexdig_init
 *fill*         0x000000000002d804        0x4 60000000
 .text.__gethex
                0x000000000002d808      0x934 f:/psdk3/ps3dev/ppu/bin/../lib/gcc/powerpc64-ps3-elf/4.5.2/../../../../powerpc64-ps3-elf/lib\libc.a(lib_a-gdtoa-gethex.o)
                0x000000000002d808                .__gethex
 .text          0x000000000002e13c        0x0 f:/psdk3/ps3dev/ppu/bin/../lib/gcc/powerpc64-ps3-elf/4.5.2/../../../../powerpc64-ps3-elf/lib\libc.a(lib_a-gdtoa-hexnan.o)
 *fill*         0x000000000002e13c        0x4 60000000
 .text.__hexnan
                0x000000000002e140      0x324 f:/psdk3/ps3dev/ppu/bin/../lib/gcc/powerpc64-ps3-elf/4.5.2/../../../../powerpc64-ps3-elf/lib\libc.a(lib_a-gdtoa-hexnan.o)
                0x000000000002e140                .__hexnan
 .text          0x000000000002e464        0x0 f:/psdk3/ps3dev/ppu/bin/../lib/gcc/powerpc64-ps3-elf/4.5.2/../../../../powerpc64-ps3-elf/lib\libc.a(lib_a-lock_internal.o)
 *fill*         0x000000000002e464        0x4 60000000
 .text.init_metalock
                0x000000000002e468       0x48 f:/psdk3/ps3dev/ppu/bin/../lib/gcc/powerpc64-ps3-elf/4.5.2/../../../../powerpc64-ps3-elf/lib\libc.a(lib_a-lock_internal.o)
 .text.__libc_auto_lock_allocate
                0x000000000002e4b0       0x9c f:/psdk3/ps3dev/ppu/bin/../lib/gcc/powerpc64-ps3-elf/4.5.2/../../../../powerpc64-ps3-elf/lib\libc.a(lib_a-lock_internal.o)
                0x000000000002e4b0                .__libc_auto_lock_allocate
 .text          0x000000000002e54c        0x0 f:/psdk3/ps3dev/ppu/bin/../lib/gcc/powerpc64-ps3-elf/4.5.2/../../../../powerpc64-ps3-elf/lib\libc.a(lib_a-memchr.o)
 *fill*         0x000000000002e54c        0x4 60000000
 .text.memchr   0x000000000002e550      0x13c f:/psdk3/ps3dev/ppu/bin/../lib/gcc/powerpc64-ps3-elf/4.5.2/../../../../powerpc64-ps3-elf/lib\libc.a(lib_a-memchr.o)
                0x000000000002e550                .memchr
 .text          0x000000000002e68c        0x0 f:/psdk3/ps3dev/ppu/bin/../lib/gcc/powerpc64-ps3-elf/4.5.2/../../../../powerpc64-ps3-elf/lib\libc.a(lib_a-mprec.o)
 *fill*         0x000000000002e68c        0x4 60000000
 .text._Balloc  0x000000000002e690       0xd4 f:/psdk3/ps3dev/ppu/bin/../lib/gcc/powerpc64-ps3-elf/4.5.2/../../../../powerpc64-ps3-elf/lib\libc.a(lib_a-mprec.o)
                0x000000000002e690                ._Balloc
 *fill*         0x000000000002e764        0x4 60000000
 .text._Bfree   0x000000000002e768       0x34 f:/psdk3/ps3dev/ppu/bin/../lib/gcc/powerpc64-ps3-elf/4.5.2/../../../../powerpc64-ps3-elf/lib\libc.a(lib_a-mprec.o)
                0x000000000002e768                ._Bfree
 *fill*         0x000000000002e79c        0x4 60000000
 .text.__multadd
                0x000000000002e7a0      0x164 f:/psdk3/ps3dev/ppu/bin/../lib/gcc/powerpc64-ps3-elf/4.5.2/../../../../powerpc64-ps3-elf/lib\libc.a(lib_a-mprec.o)
                0x000000000002e7a0                .__multadd
 *fill*         0x000000000002e904        0x4 60000000
 .text.__s2b    0x000000000002e908      0x164 f:/psdk3/ps3dev/ppu/bin/../lib/gcc/powerpc64-ps3-elf/4.5.2/../../../../powerpc64-ps3-elf/lib\libc.a(lib_a-mprec.o)
                0x000000000002e908                .__s2b
 *fill*         0x000000000002ea6c        0x4 60000000
 .text.__hi0bits
                0x000000000002ea70       0x94 f:/psdk3/ps3dev/ppu/bin/../lib/gcc/powerpc64-ps3-elf/4.5.2/../../../../powerpc64-ps3-elf/lib\libc.a(lib_a-mprec.o)
                0x000000000002ea70                .__hi0bits
 *fill*         0x000000000002eb04        0x4 60000000
 .text.__lo0bits
                0x000000000002eb08       0xec f:/psdk3/ps3dev/ppu/bin/../lib/gcc/powerpc64-ps3-elf/4.5.2/../../../../powerpc64-ps3-elf/lib\libc.a(lib_a-mprec.o)
                0x000000000002eb08                .__lo0bits
 *fill*         0x000000000002ebf4        0x4 60000000
 .text.__i2b    0x000000000002ebf8       0x48 f:/psdk3/ps3dev/ppu/bin/../lib/gcc/powerpc64-ps3-elf/4.5.2/../../../../powerpc64-ps3-elf/lib\libc.a(lib_a-mprec.o)
                0x000000000002ebf8                .__i2b
 .text.__multiply
                0x000000000002ec40      0x2a0 f:/psdk3/ps3dev/ppu/bin/../lib/gcc/powerpc64-ps3-elf/4.5.2/../../../../powerpc64-ps3-elf/lib\libc.a(lib_a-mprec.o)
                0x000000000002ec40                .__multiply
 .text.__pow5mult
                0x000000000002eee0      0x15c f:/psdk3/ps3dev/ppu/bin/../lib/gcc/powerpc64-ps3-elf/4.5.2/../../../../powerpc64-ps3-elf/lib\libc.a(lib_a-mprec.o)
                0x000000000002eee0                .__pow5mult
 *fill*         0x000000000002f03c        0x4 60000000
 .text.__lshift
                0x000000000002f040      0x1c8 f:/psdk3/ps3dev/ppu/bin/../lib/gcc/powerpc64-ps3-elf/4.5.2/../../../../powerpc64-ps3-elf/lib\libc.a(lib_a-mprec.o)
                0x000000000002f040                .__lshift
 .text.__mcmp   0x000000000002f208       0x84 f:/psdk3/ps3dev/ppu/bin/../lib/gcc/powerpc64-ps3-elf/4.5.2/../../../../powerpc64-ps3-elf/lib\libc.a(lib_a-mprec.o)
                0x000000000002f208                .__mcmp
 *fill*         0x000000000002f28c        0x4 60000000
 .text.__mdiff  0x000000000002f290      0x1fc f:/psdk3/ps3dev/ppu/bin/../lib/gcc/powerpc64-ps3-elf/4.5.2/../../../../powerpc64-ps3-elf/lib\libc.a(lib_a-mprec.o)
                0x000000000002f290                .__mdiff
 *fill*         0x000000000002f48c        0x4 60000000
 .text.__ulp    0x000000000002f490       0xb8 f:/psdk3/ps3dev/ppu/bin/../lib/gcc/powerpc64-ps3-elf/4.5.2/../../../../powerpc64-ps3-elf/lib\libc.a(lib_a-mprec.o)
                0x000000000002f490                .__ulp
 .text.__b2d    0x000000000002f548      0x1c0 f:/psdk3/ps3dev/ppu/bin/../lib/gcc/powerpc64-ps3-elf/4.5.2/../../../../powerpc64-ps3-elf/lib\libc.a(lib_a-mprec.o)
                0x000000000002f548                .__b2d
 .text.__d2b    0x000000000002f708      0x1ac f:/psdk3/ps3dev/ppu/bin/../lib/gcc/powerpc64-ps3-elf/4.5.2/../../../../powerpc64-ps3-elf/lib\libc.a(lib_a-mprec.o)
                0x000000000002f708                .__d2b
 *fill*         0x000000000002f8b4        0x4 60000000
 .text.__ratio  0x000000000002f8b8       0xf8 f:/psdk3/ps3dev/ppu/bin/../lib/gcc/powerpc64-ps3-elf/4.5.2/../../../../powerpc64-ps3-elf/lib\libc.a(lib_a-mprec.o)
                0x000000000002f8b8                .__ratio
 .text._mprec_log10
                0x000000000002f9b0       0x4c f:/psdk3/ps3dev/ppu/bin/../lib/gcc/powerpc64-ps3-elf/4.5.2/../../../../powerpc64-ps3-elf/lib\libc.a(lib_a-mprec.o)
                0x000000000002f9b0                ._mprec_log10
 *fill*         0x000000000002f9fc        0x4 60000000
 .text.__copybits
                0x000000000002fa00       0x98 f:/psdk3/ps3dev/ppu/bin/../lib/gcc/powerpc64-ps3-elf/4.5.2/../../../../powerpc64-ps3-elf/lib\libc.a(lib_a-mprec.o)
                0x000000000002fa00                .__copybits
 .text.__any_on
                0x000000000002fa98       0xf4 f:/psdk3/ps3dev/ppu/bin/../lib/gcc/powerpc64-ps3-elf/4.5.2/../../../../powerpc64-ps3-elf/lib\libc.a(lib_a-mprec.o)
                0x000000000002fa98                .__any_on
 .text          0x000000000002fb8c        0x0 f:/psdk3/ps3dev/ppu/bin/../lib/gcc/powerpc64-ps3-elf/4.5.2/../../../../powerpc64-ps3-elf/lib\libc.a(lib_a-reallocr.o)
 *fill*         0x000000000002fb8c        0x4 60000000
 .text._realloc_r
                0x000000000002fb90      0x710 f:/psdk3/ps3dev/ppu/bin/../lib/gcc/powerpc64-ps3-elf/4.5.2/../../../../powerpc64-ps3-elf/lib\libc.a(lib_a-reallocr.o)
                0x000000000002fb90                ._realloc_r
 .text          0x00000000000302a0        0x0 f:/psdk3/ps3dev/ppu/bin/../lib/gcc/powerpc64-ps3-elf/4.5.2/../../../../powerpc64-ps3-elf/lib\libc.a(lib_a-strncmp.o)
 .text.strncmp  0x00000000000302a0      0x184 f:/psdk3/ps3dev/ppu/bin/../lib/gcc/powerpc64-ps3-elf/4.5.2/../../../../powerpc64-ps3-elf/lib\libc.a(lib_a-strncmp.o)
                0x00000000000302a0                .strncmp
 .text          0x0000000000030424        0x0 f:/psdk3/ps3dev/ppu/bin/../lib/gcc/powerpc64-ps3-elf/4.5.2/../../../../powerpc64-ps3-elf/lib\libc.a(lib_a-svfiprintf.o)
 *fill*         0x0000000000030424        0x4 60000000
 .text.__ssprint_r
                0x0000000000030428      0x300 f:/psdk3/ps3dev/ppu/bin/../lib/gcc/powerpc64-ps3-elf/4.5.2/../../../../powerpc64-ps3-elf/lib\libc.a(lib_a-svfiprintf.o)
                0x0000000000030428                .__ssprint_r
 .text._svfiprintf_r
                0x0000000000030728     0x1064 f:/psdk3/ps3dev/ppu/bin/../lib/gcc/powerpc64-ps3-elf/4.5.2/../../../../powerpc64-ps3-elf/lib\libc.a(lib_a-svfiprintf.o)
                0x0000000000030728                ._svfiprintf_r
 .text          0x000000000003178c        0x0 f:/psdk3/ps3dev/ppu/bin/../lib/gcc/powerpc64-ps3-elf/4.5.2/../../../../powerpc64-ps3-elf/lib\libc.a(lib_a-abort.o)
 *fill*         0x000000000003178c        0x4 60000000
 .text.abort    0x0000000000031790       0x30 f:/psdk3/ps3dev/ppu/bin/../lib/gcc/powerpc64-ps3-elf/4.5.2/../../../../powerpc64-ps3-elf/lib\libc.a(lib_a-abort.o)
                0x0000000000031790                .abort
 .text          0x00000000000317c0        0x0 f:/psdk3/ps3dev/ppu/bin/../lib/gcc/powerpc64-ps3-elf/4.5.2/../../../../powerpc64-ps3-elf/lib\libc.a(lib_a-callocr.o)
 .text._calloc_r
                0x00000000000317c0       0xe8 f:/psdk3/ps3dev/ppu/bin/../lib/gcc/powerpc64-ps3-elf/4.5.2/../../../../powerpc64-ps3-elf/lib\libc.a(lib_a-callocr.o)
                0x00000000000317c0                ._calloc_r
 .text          0x00000000000318a8        0x0 f:/psdk3/ps3dev/ppu/bin/../lib/gcc/powerpc64-ps3-elf/4.5.2/../../../../powerpc64-ps3-elf/lib\libc.a(lib_a-memmove.o)
 .text.memmove  0x00000000000318a8      0x130 f:/psdk3/ps3dev/ppu/bin/../lib/gcc/powerpc64-ps3-elf/4.5.2/../../../../powerpc64-ps3-elf/lib\libc.a(lib_a-memmove.o)
                0x00000000000318a8                .memmove
 .text          0x00000000000319d8        0x0 f:/psdk3/ps3dev/ppu/bin/../lib/gcc/powerpc64-ps3-elf/4.5.2/../../../../powerpc64-ps3-elf/lib\libc.a(lib_a-signal.o)
 .text._init_signal_r
                0x00000000000319d8       0x84 f:/psdk3/ps3dev/ppu/bin/../lib/gcc/powerpc64-ps3-elf/4.5.2/../../../../powerpc64-ps3-elf/lib\libc.a(lib_a-signal.o)
                0x00000000000319d8                ._init_signal_r
 *fill*         0x0000000000031a5c        0x4 60000000
 .text._signal_r
                0x0000000000031a60       0x9c f:/psdk3/ps3dev/ppu/bin/../lib/gcc/powerpc64-ps3-elf/4.5.2/../../../../powerpc64-ps3-elf/lib\libc.a(lib_a-signal.o)
                0x0000000000031a60                ._signal_r
 *fill*         0x0000000000031afc        0x4 60000000
 .text._raise_r
                0x0000000000031b00      0x114 f:/psdk3/ps3dev/ppu/bin/../lib/gcc/powerpc64-ps3-elf/4.5.2/../../../../powerpc64-ps3-elf/lib\libc.a(lib_a-signal.o)
                0x0000000000031b00                ._raise_r
 *fill*         0x0000000000031c14        0x4 60000000
 .text.__sigtramp_r
                0x0000000000031c18       0xd0 f:/psdk3/ps3dev/ppu/bin/../lib/gcc/powerpc64-ps3-elf/4.5.2/../../../../powerpc64-ps3-elf/lib\libc.a(lib_a-signal.o)
                0x0000000000031c18                .__sigtramp_r
 .text.raise    0x0000000000031ce8       0x40 f:/psdk3/ps3dev/ppu/bin/../lib/gcc/powerpc64-ps3-elf/4.5.2/../../../../powerpc64-ps3-elf/lib\libc.a(lib_a-signal.o)
                0x0000000000031ce8                .raise
 .text.signal   0x0000000000031d28       0x50 f:/psdk3/ps3dev/ppu/bin/../lib/gcc/powerpc64-ps3-elf/4.5.2/../../../../powerpc64-ps3-elf/lib\libc.a(lib_a-signal.o)
                0x0000000000031d28                .signal
 .text._init_signal
                0x0000000000031d78       0x30 f:/psdk3/ps3dev/ppu/bin/../lib/gcc/powerpc64-ps3-elf/4.5.2/../../../../powerpc64-ps3-elf/lib\libc.a(lib_a-signal.o)
                0x0000000000031d78                ._init_signal
 .text.__sigtramp
                0x0000000000031da8       0x40 f:/psdk3/ps3dev/ppu/bin/../lib/gcc/powerpc64-ps3-elf/4.5.2/../../../../powerpc64-ps3-elf/lib\libc.a(lib_a-signal.o)
                0x0000000000031da8                .__sigtramp
 .text          0x0000000000031de8        0x0 f:/psdk3/ps3dev/ppu/bin/../lib/gcc/powerpc64-ps3-elf/4.5.2/../../../../powerpc64-ps3-elf/lib\libsysbase.a(close.o)
 .text._close_r
                0x0000000000031de8       0x6c f:/psdk3/ps3dev/ppu/bin/../lib/gcc/powerpc64-ps3-elf/4.5.2/../../../../powerpc64-ps3-elf/lib\libsysbase.a(close.o)
                0x0000000000031de8                ._close_r
 .text          0x0000000000031e54        0x0 f:/psdk3/ps3dev/ppu/bin/../lib/gcc/powerpc64-ps3-elf/4.5.2/../../../../powerpc64-ps3-elf/lib\libsysbase.a(sbrk.o)
 *fill*         0x0000000000031e54        0x4 60000000
 .text._sbrk_r  0x0000000000031e58       0x78 f:/psdk3/ps3dev/ppu/bin/../lib/gcc/powerpc64-ps3-elf/4.5.2/../../../../powerpc64-ps3-elf/lib\libsysbase.a(sbrk.o)
                0x0000000000031e58                ._sbrk_r
 .text          0x0000000000031ed0        0x0 f:/psdk3/ps3dev/ppu/bin/../lib/gcc/powerpc64-ps3-elf/4.5.2/../../../../powerpc64-ps3-elf/lib\libsysbase.a(_exit.o)
 .text._exit    0x0000000000031ed0       0x48 f:/psdk3/ps3dev/ppu/bin/../lib/gcc/powerpc64-ps3-elf/4.5.2/../../../../powerpc64-ps3-elf/lib\libsysbase.a(_exit.o)
                0x0000000000031ed0                ._exit
 .text          0x0000000000031f18        0x0 f:/psdk3/ps3dev/ppu/bin/../lib/gcc/powerpc64-ps3-elf/4.5.2/../../../../powerpc64-ps3-elf/lib\libsysbase.a(lseek.o)
 .text._lseek_r
                0x0000000000031f18       0x6c f:/psdk3/ps3dev/ppu/bin/../lib/gcc/powerpc64-ps3-elf/4.5.2/../../../../powerpc64-ps3-elf/lib\libsysbase.a(lseek.o)
                0x0000000000031f18                ._lseek_r
 .text          0x0000000000031f84        0x0 f:/psdk3/ps3dev/ppu/bin/../lib/gcc/powerpc64-ps3-elf/4.5.2/../../../../powerpc64-ps3-elf/lib\libsysbase.a(read.o)
 *fill*         0x0000000000031f84        0x4 60000000
 .text._read_r  0x0000000000031f88       0x6c f:/psdk3/ps3dev/ppu/bin/../lib/gcc/powerpc64-ps3-elf/4.5.2/../../../../powerpc64-ps3-elf/lib\libsysbase.a(read.o)
                0x0000000000031f88                ._read_r
 .text          0x0000000000031ff4        0x0 f:/psdk3/ps3dev/ppu/bin/../lib/gcc/powerpc64-ps3-elf/4.5.2/../../../../powerpc64-ps3-elf/lib\libsysbase.a(write.o)
 *fill*         0x0000000000031ff4        0x4 60000000
 .text._write_r
                0x0000000000031ff8       0x6c f:/psdk3/ps3dev/ppu/bin/../lib/gcc/powerpc64-ps3-elf/4.5.2/../../../../powerpc64-ps3-elf/lib\libsysbase.a(write.o)
                0x0000000000031ff8                ._write_r
 .text          0x0000000000032064        0x0 f:/psdk3/ps3dev/ppu/bin/../lib/gcc/powerpc64-ps3-elf/4.5.2/../../../../powerpc64-ps3-elf/lib\libsysbase.a(lock.o)
 *fill*         0x0000000000032064        0x4 60000000
 .text.sys_lwmutex_create
                0x0000000000032068       0x94 f:/psdk3/ps3dev/ppu/bin/../lib/gcc/powerpc64-ps3-elf/4.5.2/../../../../powerpc64-ps3-elf/lib\libsysbase.a(lock.o)
                0x0000000000032068                .sys_lwmutex_create
 *fill*         0x00000000000320fc        0x4 60000000
 .text.sys_lwmutex_destroy
                0x0000000000032100       0x84 f:/psdk3/ps3dev/ppu/bin/../lib/gcc/powerpc64-ps3-elf/4.5.2/../../../../powerpc64-ps3-elf/lib\libsysbase.a(lock.o)
                0x0000000000032100                .sys_lwmutex_destroy
 *fill*         0x0000000000032184        0x4 60000000
 .text.sys_lwmutex_lock
                0x0000000000032188       0x94 f:/psdk3/ps3dev/ppu/bin/../lib/gcc/powerpc64-ps3-elf/4.5.2/../../../../powerpc64-ps3-elf/lib\libsysbase.a(lock.o)
                0x0000000000032188                .sys_lwmutex_lock
 *fill*         0x000000000003221c        0x4 60000000
 .text.sys_lwmutex_trylock
                0x0000000000032220       0x84 f:/psdk3/ps3dev/ppu/bin/../lib/gcc/powerpc64-ps3-elf/4.5.2/../../../../powerpc64-ps3-elf/lib\libsysbase.a(lock.o)
                0x0000000000032220                .sys_lwmutex_trylock
 *fill*         0x00000000000322a4        0x4 60000000
 .text.sys_lwmutex_unlock
                0x00000000000322a8       0x84 f:/psdk3/ps3dev/ppu/bin/../lib/gcc/powerpc64-ps3-elf/4.5.2/../../../../powerpc64-ps3-elf/lib\libsysbase.a(lock.o)
                0x00000000000322a8                .sys_lwmutex_unlock
 .text          0x000000000003232c        0x0 f:/psdk3/ps3dev/ppu/bin/../lib/gcc/powerpc64-ps3-elf/4.5.2/../../../../powerpc64-ps3-elf/lib\libsysbase.a(getpid.o)
 *fill*         0x000000000003232c        0x4 60000000
 .text._getpid_r
                0x0000000000032330       0x6c f:/psdk3/ps3dev/ppu/bin/../lib/gcc/powerpc64-ps3-elf/4.5.2/../../../../powerpc64-ps3-elf/lib\libsysbase.a(getpid.o)
                0x0000000000032330                ._getpid_r
 .text          0x000000000003239c        0x0 f:/psdk3/ps3dev/ppu/bin/../lib/gcc/powerpc64-ps3-elf/4.5.2/../../../../powerpc64-ps3-elf/lib\libsysbase.a(kill.o)
 *fill*         0x000000000003239c        0x4 60000000
 .text._kill_r  0x00000000000323a0       0x1c f:/psdk3/ps3dev/ppu/bin/../lib/gcc/powerpc64-ps3-elf/4.5.2/../../../../powerpc64-ps3-elf/lib\libsysbase.a(kill.o)
                0x00000000000323a0                ._kill_r
 .text          0x00000000000323bc        0x0 f:/psdk3/ps3dev/ppu/bin/../lib/gcc/powerpc64-ps3-elf/4.5.2/crtend.o
 *fill*         0x00000000000323bc        0x4 60000000
 .text.__do_global_ctors_aux
                0x00000000000323c0       0x64 f:/psdk3/ps3dev/ppu/bin/../lib/gcc/powerpc64-ps3-elf/4.5.2/crtend.o
 .text          0x0000000000032424        0x0 f:/psdk3/ps3dev/ppu/bin/../lib/gcc/powerpc64-ps3-elf/4.5.2/../../../../powerpc64-ps3-elf/lib/lv2-crtn.o
 *(.text.*personality*)
 *(.gnu.warning)
 *(.sfpr .glink)
 .sfpr          0x0000000000000000        0x0 linker stubs
 *fill*         0x0000000000032424        0x0 60000000
 .glink         0x0000000000000000        0x0 linker stubs

.fini           0x0000000000032424       0x2c
 *(.fini)
 .fini          0x0000000000032424        0xc f:/psdk3/ps3dev/ppu/bin/../lib/gcc/powerpc64-ps3-elf/4.5.2/../../../../powerpc64-ps3-elf/lib/lv2-crti.o
                0x0000000000032424                ._fini
 .fini          0x0000000000032430        0x8 f:/psdk3/ps3dev/ppu/bin/../lib/gcc/powerpc64-ps3-elf/4.5.2/crtbegin.o
 .fini          0x0000000000032438        0x8 f:/PSDK3/psl1ght/ppu/lib\librt.a(sbrk.o)
 .fini          0x0000000000032440       0x10 f:/psdk3/ps3dev/ppu/bin/../lib/gcc/powerpc64-ps3-elf/4.5.2/../../../../powerpc64-ps3-elf/lib/lv2-crtn.o

.sceStub.text   0x0000000000032450     0x5d00
 *(.sceStub.text)
 .sceStub.text  0x0000000000032450     0x1640 f:/PSDK3/psl1ght/ppu/lib\libgcm_sys.a(sprx.o)
                0x0000000000032450                .gcmInitBody
                0x0000000000032450                __gcmInitBody
                0x0000000000032490                .gcmSetDisplayBuffer
                0x0000000000032490                __gcmSetDisplayBuffer
                0x00000000000324d0                __gcmGetControlRegister
                0x00000000000324d0                .gcmGetControlRegister
                0x0000000000032510                __gcmAddressToOffset
                0x0000000000032510                .gcmAddressToOffset
                0x0000000000032550                __gcmGetConfiguration
                0x0000000000032550                .gcmGetConfiguration
                0x0000000000032590                __gcmGetCurrentField
                0x00000000000325d0                .gcmSetFlipMode
                0x00000000000325d0                __gcmSetFlipMode
                0x0000000000032610                .gcmGetFlipStatus
                0x0000000000032610                __gcmGetFlipStatus
                0x0000000000032650                __gcmGetLastFlipTime
                0x0000000000032690                __gcmGetVBlankCount
                0x00000000000326d0                .gcmSetWaitFlip
                0x00000000000326d0                __gcmSetWaitFlip
                0x0000000000032710                __gcmSetFlipStatus
                0x0000000000032750                .gcmResetFlipStatus
                0x0000000000032750                __gcmResetFlipStatus
                0x0000000000032790                .gcmSetFlip
                0x0000000000032790                __gcmSetFlip
                0x00000000000327d0                __gcmSetFlipImmediate
                0x0000000000032810                __gcmFunc15
                0x0000000000032850                __gcmFunc3
                0x0000000000032890                __gcmFunc1
                0x00000000000328d0                __gcmFunc2
                0x0000000000032910                __gcmFunc4
                0x0000000000032950                __gcmFunc12
                0x0000000000032990                __gcmFunc13
                0x00000000000329d0                __gcmGetReport
                0x0000000000032a10                __gcmSetTile
                0x0000000000032a50                __gcmBindTile
                0x0000000000032a90                __gcmUnbindTile
                0x0000000000032ad0                __gcmSetZcull
                0x0000000000032b10                __gcmBindZcull
                0x0000000000032b50                __gcmUnbindZcull
                0x0000000000032b90                __gcmGetTimeStamp
                0x0000000000032bd0                __gcmSetVBlankFrequency
                0x0000000000032c10                __gcmSetSecondVFrequency
                0x0000000000032c50                __gcmSetDebugOutputLevel
                0x0000000000032c90                __gcmGetLabelAddress
                0x0000000000032cd0                __gcmSetVBlankHandlerEx
                0x0000000000032d10                __gcmSetFlipHandlerEx
                0x0000000000032d50                __gcmSetSecondVHandlerEx
                0x0000000000032d90                __gcmSetGraphicsHandlerEx
                0x0000000000032dd0                __gcmTerminate
                0x0000000000032e10                __gcmMapMainMemory
                0x0000000000032e50                __gcmMapEaIoAddress
                0x0000000000032e90                __gcmUnmapEaIoAddress
                0x0000000000032ed0                __gcmUnmapIoAddress
                0x0000000000032f10                __gcmIoOffsetToAddress
                0x0000000000032f50                __gcmSetDefaultCommandBuffer
                0x0000000000032f90                __gcmSetTileInfo
                0x0000000000032fd0                __gcmGetTiledPitchSize
                0x0000000000033010                __gcmSetInvalidateTile
                0x0000000000033050                __gcmSetUserCommandEx
                0x0000000000033090                __gcmSetUserHandlerEx
                0x00000000000330d0                __gcmSetQueueHandlerEx
                0x0000000000033110                __gcmSetPrepareFlip
                0x0000000000033150                __gcmGetOffsetTable
                0x0000000000033190                __gcmGetLastSecondVTime
                0x00000000000331d0                __gcmSortRemapEaIoAddress
                0x0000000000033210                __gcmGetDisplayBufferByFlipIndex
                0x0000000000033250                __gcmGcmGetDefaultCommandWordSize
                0x0000000000033290                __gcmGcmGetDefaultSegmentWordSize
                0x00000000000332d0                __gcmSetDefaultCommandBufferAndSegmentWordSize
                0x0000000000033310                __gcmGetDisplayInfo
                0x0000000000033350                __gcmDumpGraphicsError
                0x0000000000033390                __gcmFunc38
                0x00000000000333d0                __gcmGetCurrentDisplayBufferId
                0x0000000000033410                __gcmGetDefaultCommandWordSize
                0x0000000000033450                __gcmGetDefaultSegmentWordSize
                0x0000000000033490                __gcmGetMaxIoMapSize
                0x00000000000334d0                __gcmGetNotifyDataAddress
                0x0000000000033510                __gcmGetReportDataAddress
                0x0000000000033550                __gcmGetReportDataAddressLocation
                0x0000000000033590                __gcmGetReportDataLocation
                0x00000000000335d0                __gcmGetTileInfo
                0x0000000000033610                __gcmGetTimeStampLocation
                0x0000000000033650                __gcmGetZcullInfo
                0x0000000000033690                __gcmInitCursor
                0x00000000000336d0                __gcmInitDefaultFifoMode
                0x0000000000033710                __gcmInitSystemMode
                0x0000000000033750                __gcmMapEaIoAddressWithFlags
                0x0000000000033790                __gcmMapLocalMemory
                0x00000000000337d0                __gcmReserveIoMapSize
                0x0000000000033810                __gcmSetCursorDisable
                0x0000000000033850                __gcmSetCursorEnable
                0x0000000000033890                __gcmSetCursorImageOffset
                0x00000000000338d0                __gcmSetCursorPosition
                0x0000000000033910                __gcmSetDefaultFifoSize
                0x0000000000033950                __gcmSetFlipCommand
                0x0000000000033990                __gcmSetFlipCommandWithWaitLabel
                0x00000000000339d0                __gcmSysGetLastVBlankTime
                0x0000000000033a10                __gcmUnreserveIoMapSize
                0x0000000000033a50                __gcmUpdateCursor
 .sceStub.text  0x0000000000033a90      0xbc0 f:/PSDK3/psl1ght/ppu/lib\libio.a(sprx.o)
                0x0000000000033a90                __sys_config_start
                0x0000000000033ad0                __sys_config_stop
                0x0000000000033b10                __sys_config_add_service_listener
                0x0000000000033b50                __sys_config_remove_service_listener
                0x0000000000033b90                __sys_config_register_service
                0x0000000000033bd0                __sys_config_unregister_service
                0x0000000000033c10                __ioPadInit
                0x0000000000033c10                .ioPadInit
                0x0000000000033c50                __ioPadEnd
                0x0000000000033c90                __ioPadClearBuf
                0x0000000000033cd0                __ioPadInfoPressMode
                0x0000000000033d10                __ioPadLddRegisterController
                0x0000000000033d50                __ioPadGetInfo
                0x0000000000033d50                .ioPadGetInfo
                0x0000000000033d90                __ioPadGetRawData
                0x0000000000033dd0                __ioPadGetDataExtra
                0x0000000000033e10                __ioPadInfoSensorMode
                0x0000000000033e50                .ioPadGetData
                0x0000000000033e50                __ioPadGetData
                0x0000000000033e90                __ioPadLddGetPortNo
                0x0000000000033ed0                __ioPadLddDataInsert
                0x0000000000033f10                __ioPadSetSensorMode
                0x0000000000033f50                __ioPadGetCapabilityInfo
                0x0000000000033f90                __ioPadLddUnregisterController
                0x0000000000033fd0                __ioPadSetActDirect
                0x0000000000034010                __ioPadSetPressMode
                0x0000000000034050                __ioPadPeriphGetInfo
                0x0000000000034090                __ioPadSetPortSetting
                0x00000000000340d0                __ioPadPeriphGetData
                0x0000000000034110                __ioPadGetInfo2
                0x0000000000034150                __ioMouseInit
                0x0000000000034190                __ioMouseEnd
                0x00000000000341d0                __ioMouseClearBuf
                0x0000000000034210                __ioMouseGetInfo
                0x0000000000034250                __ioMouseGetTabletDataList
                0x0000000000034290                __ioMouseSetTabletMode
                0x00000000000342d0                __ioMouseGetData
                0x0000000000034310                __ioMouseInfoTabletMode
                0x0000000000034350                __ioMouseGetRawData
                0x0000000000034390                __ioMouseGetDataList
                0x00000000000343d0                __ioKbInit
                0x0000000000034410                __ioKbEnd
                0x0000000000034450                __ioKbRead
                0x0000000000034490                __ioKbSetReadMode
                0x00000000000344d0                __ioKbSetCodeType
                0x0000000000034510                __ioKbCnvRawCode
                0x0000000000034550                __ioKbSetLEDStatus
                0x0000000000034590                __ioKbGetInfo
                0x00000000000345d0                __ioKbGetConfiguration
                0x0000000000034610                __ioKbClearBuf
 .sceStub.text  0x0000000000034650     0x1400 f:/PSDK3/psl1ght/ppu/lib\libsysutil.a(sprx.o)
                0x0000000000034650                __videoGetResolution
                0x0000000000034650                .videoGetResolution
                0x0000000000034690                .videoConfigure
                0x0000000000034690                __videoConfigure
                0x00000000000346d0                __videoGetState
                0x00000000000346d0                .videoGetState
                0x0000000000034710                __videoGetDeviceInfo
                0x0000000000034750                __videoGetConfiguration
                0x0000000000034790                __videoGetResolutionAvailability
                0x00000000000347d0                __videoDebugSetMonitorType
                0x0000000000034810                __videoRegisterCallbackEx
                0x0000000000034850                __videoUnregisterCallback
                0x0000000000034890                __videoGetNumberOfDevice
                0x00000000000348d0                __videoGetConvertCursorColorInfo
                0x0000000000034910                __msgDialogClose
                0x0000000000034950                __msgDialogOpenErrorCodeEx
                0x0000000000034950                .msgDialogOpenErrorCodeEx
                0x0000000000034990                __msgDialogOpenEx
                0x0000000000034990                .msgDialogOpenEx
                0x00000000000349d0                __msgDialogProgressBarInc
                0x0000000000034a10                __msgDialogAbort
                0x0000000000034a50                __msgDialogOpen2Ex
                0x0000000000034a50                .msgDialogOpen2Ex
                0x0000000000034a90                __msgDialogProgressBarReset
                0x0000000000034ad0                __msgDialogProgressBarSetMsg
                0x0000000000034b10                __oskGetInputText
                0x0000000000034b50                __oskSetInitialInputDevice
                0x0000000000034b90                __oskGetSize
                0x0000000000034bd0                __oskUnloadAsync
                0x0000000000034c10                __oskDisableDimmer
                0x0000000000034c50                __oskSetKeyLayoutOption
                0x0000000000034c90                __oskAbort
                0x0000000000034cd0                __oskSetDeviceMask
                0x0000000000034d10                __oskSetSeparateWindowOption
                0x0000000000034d50                __oskAddSupportLanguage
                0x0000000000034d90                __oskLoadAsync
                0x0000000000034dd0                __oskSetInitialKeyLayout
                0x0000000000034e10                __oskSetLayoutMode
                0x0000000000034e50                .sysUtilRegisterCallbackEx
                0x0000000000034e50                __sysUtilRegisterCallbackEx
                0x0000000000034e90                __sysUtilCheckCallback
                0x0000000000034e90                .sysUtilCheckCallback
                0x0000000000034ed0                __sysUtilUnregisterCallback
                0x0000000000034ed0                .sysUtilUnregisterCallback
                0x0000000000034f10                .sysSaveListLoad2Ex
                0x0000000000034f10                __sysSaveListLoad2Ex
                0x0000000000034f50                .sysSaveListSave2Ex
                0x0000000000034f50                __sysSaveListSave2Ex
                0x0000000000034f90                .sysSaveListAutoLoadEx
                0x0000000000034f90                __sysSaveListAutoLoadEx
                0x0000000000034fd0                __sysSaveListAutoSaveEx
                0x0000000000034fd0                .sysSaveListAutoSaveEx
                0x0000000000035010                .sysSaveFixedLoad2Ex
                0x0000000000035010                __sysSaveFixedLoad2Ex
                0x0000000000035050                .sysSaveFixedSave2Ex
                0x0000000000035050                __sysSaveFixedSave2Ex
                0x0000000000035090                __sysSaveAutoLoad2Ex
                0x0000000000035090                .sysSaveAutoLoad2Ex
                0x00000000000350d0                .sysSaveAutoSave2Ex
                0x00000000000350d0                __sysSaveAutoSave2Ex
                0x0000000000035110                __sysSaveDelete2
                0x0000000000035150                __sysGameDataCheck
                0x0000000000035190                __sysGameBootCheck
                0x00000000000351d0                __sysGamePatchCheck
                0x0000000000035210                __sysGameCreateGameData
                0x0000000000035250                __sysGameGetParamInt
                0x0000000000035290                __sysGameGetParamString
                0x00000000000352d0                __sysGameGetSizeKB
                0x0000000000035310                __sysGameSetParamString
                0x0000000000035350                __sysGameGetDiscContentInfoUpdatePath
                0x0000000000035390                __sysGameContentPermit
                0x00000000000353d0                __sysGameContentErrorDialog
                0x0000000000035410                __sysGameThemeInstall
                0x0000000000035450                .sysGameThemeInstallFromBufferEx
                0x0000000000035450                __sysGameThemeInstallFromBufferEx
                0x0000000000035490                __sysGameGetLocalWebContentPath
                0x00000000000354d0                __sysGameDeleteGameData
                0x0000000000035510                __sysGameRegisterDiscChangeCallbackEx
                0x0000000000035550                __sysGameUnregisterDiscChangeCallback
                0x0000000000035590                .sysDiscRegisterDiscChangeCallbackEx
                0x0000000000035590                __sysDiscRegisterDiscChangeCallbackEx
                0x00000000000355d0                __sysDiscUnregisterDiscChangeCallback
                0x0000000000035610                __sysTrophyInit
                0x0000000000035650                __sysTrophyAbortHandle
                0x0000000000035690                __sysTrophyCreateContext
                0x00000000000356d0                __sysTrophyCreateHandle
                0x0000000000035710                __sysTrophyDestroyContext
                0x0000000000035750                __sysTrophyDestroyHandle
                0x0000000000035790                __sysTrophyGetGameIcon
                0x00000000000357d0                __sysTrophyGetGameInfo
                0x0000000000035810                __sysTrophyGetGameProgress
                0x0000000000035850                __sysTrophyGetRequiredDiskSpace
                0x0000000000035890                __sysTrophyGetTrophyIcon
                0x00000000000358d0                __sysTrophyGetTrophyInfo
                0x0000000000035910                __sysTrophyGetTrophyUnlockState
                0x0000000000035950                __sysTrophyRegisterContextEx
                0x0000000000035990                __sysTrophySetSoundLevel
                0x00000000000359d0                __sysTrophyTerm
                0x0000000000035a10                __sysTrophyUnlockTrophy
 .sceStub.text  0x0000000000035a50     0x1dc0 f:/PSDK3/psl1ght/ppu/lib\liblv2.a(sprx.o)
                0x0000000000035a50                __sysGetSystemTime
                0x0000000000035a90                __sysGetSystemSwVersion
                0x0000000000035ad0                __sysGetTemperature
                0x0000000000035b10                __sysGetRandomNumber
                0x0000000000035b50                __sysGetRtcStatus
                0x0000000000035b90                __sysBoardStorageRead
                0x0000000000035bd0                __sysBoardStorageWrite
                0x0000000000035c10                __sysProcessIsStack
                0x0000000000035c50                __sysProcessExit
                0x0000000000035c50                .sysProcessExit
                0x0000000000035c90                __sysProcessExitspawn
                0x0000000000035cd0                __sysProcessExitSpawn2Ex
                0x0000000000035d10                __sysProcessExitSpawnWithLevel
                0x0000000000035d50                __sysProcessAtExitSpawn
                0x0000000000035d90                __sysProcess_At_ExitSpawn
                0x0000000000035dd0                __sysPrxRegisterLibrary
                0x0000000000035e10                __sysPrxUnregisterLibrary
                0x0000000000035e50                __sysPrxStartModule
                0x0000000000035e90                __sysPrxStopModule
                0x0000000000035ed0                __sysPrxLoadModule
                0x0000000000035f10                __sysPrxLoadModuleByFd
                0x0000000000035f50                __sysPrxLoadModuleList
                0x0000000000035f90                __sysPrxLoadModuleListOnMemcontainer
                0x0000000000035fd0                __sysPrxLoadModuleOnMemcontainer
                0x0000000000036010                __sysPrxLoadModuleOnMemcontainerByFd
                0x0000000000036050                __sysPrxGetModuleInfo
                0x0000000000036090                __sysPrxGetModuleList
                0x00000000000360d0                __sysPrxGetModuleId
                0x0000000000036110                __sysPrxGetModuleIdByAddress
                0x0000000000036150                __sysPrxGetModuleIdByName
                0x0000000000036190                __sysPrxUnloadModule
                0x00000000000361d0                __sysPrxExitSpawnWithLevel
                0x0000000000036210                __sysThreadCreateEx
                0x0000000000036250                __sysThreadExit
                0x0000000000036290                __sysThreadGetId
                0x00000000000362d0                __sysThreadOnce
                0x0000000000036310                __sysThreadInitialzeTLS
                0x0000000000036350                __sysThreadRegisterAtexit
                0x0000000000036390                __sysThreadUnregisterAtexit
                0x00000000000363d0                __sysInterruptThreadDisestablish
                0x0000000000036410                __sysLwMutexCreate
                0x0000000000036410                .sysLwMutexCreate
                0x0000000000036450                __sysLwMutexDestroy
                0x0000000000036450                .sysLwMutexDestroy
                0x0000000000036490                __sysLwMutexLock
                0x0000000000036490                .sysLwMutexLock
                0x00000000000364d0                __sysLwMutexTryLock
                0x00000000000364d0                .sysLwMutexTryLock
                0x0000000000036510                .sysLwMutexUnlock
                0x0000000000036510                __sysLwMutexUnlock
                0x0000000000036550                __sysLwCondCreate
                0x0000000000036590                __sysLwCondWait
                0x00000000000365d0                __sysLwCondSignal
                0x0000000000036610                __sysLwCondSignalTo
                0x0000000000036650                __sysLwCondSignalAll
                0x0000000000036690                __sysLwCondDestroy
                0x00000000000366d0                .sysSpinlockInitialize
                0x00000000000366d0                __sysSpinlockInitialize
                0x0000000000036710                .sysSpinlockLock
                0x0000000000036710                __sysSpinlockLock
                0x0000000000036750                __sysSpinlockTryLock
                0x0000000000036790                .sysSpinlockUnlock
                0x0000000000036790                __sysSpinlockUnlock
                0x00000000000367d0                __sysWatchdogClear
                0x0000000000036810                __sysWatchdogStart
                0x0000000000036850                __sysWatchdogStop
                0x0000000000036890                __sysMalloc
                0x00000000000368d0                __sysMemalign
                0x0000000000036910                __sysMemchr
                0x0000000000036950                __sysMemcmp
                0x0000000000036990                __sysMemcpy
                0x00000000000369d0                __sysMemmove
                0x0000000000036a10                __sysMemset
                0x0000000000036a50                __sysFree
                0x0000000000036a90                __sysHeapAllocHeapMemory
                0x0000000000036ad0                __sysHeapCreateHeap
                0x0000000000036b10                __sysHeapDeleteHeap
                0x0000000000036b50                __sysHeapFree
                0x0000000000036b90                __sysHeapGetMallInfo
                0x0000000000036bd0                __sysHeapGetTotalFreeSize
                0x0000000000036c10                __sysHeapMalloc
                0x0000000000036c50                __sysHeapMemalign
                0x0000000000036c90                __sysHeapStats
                0x0000000000036cd0                __sysQsort
                0x0000000000036d10                __sysMempoolCreate
                0x0000000000036d50                __sysMempoolDestroy
                0x0000000000036d90                __sysMempoolGetCount
                0x0000000000036dd0                __sysMempoolAllocateBlock
                0x0000000000036e10                __sysMempoolTryAllocateBlock
                0x0000000000036e50                __sysMempoolFreeBlock
                0x0000000000036e90                __sysMMapperFreeMemory
                0x0000000000036e90                .sysMMapperFreeMemory
                0x0000000000036ed0                __sysMMapperMapMemory
                0x0000000000036f10                __sysMMapperUnmapMemory
                0x0000000000036f10                .sysMMapperUnmapMemory
                0x0000000000036f50                __sysMMapperAllocateMemory
                0x0000000000036f50                .sysMMapperAllocateMemory
                0x0000000000036f90                __sysMMapperAllocateMemoryFromContainer
                0x0000000000036fd0                __sysStrlen
                0x0000000000037010                __sysStrcpy
                0x0000000000037050                __sysStrncpy
                0x0000000000037090                __sysStrcat
                0x00000000000370d0                __sysStrncat
                0x0000000000037110                __sysStrchr
                0x0000000000037150                __sysStrrchr
                0x0000000000037190                __sysStrcmp
                0x00000000000371d0                __sysStrncmp
                0x0000000000037210                __sysStrncasecmp
                0x0000000000037250                __sysToLower
                0x0000000000037290                __sysToUpper
                0x00000000000372d0                __sysSpuElfGetSegments
                0x0000000000037310                __sysSpuElfGetInformation
                0x0000000000037350                __sysSpuRawLoad
                0x0000000000037390                __sysSpuRawImageLoad
                0x00000000000373d0                __sysSpuImageClose
                0x0000000000037410                __sysSpuImageImport
                0x0000000000037450                __sysSpuPrintfAttachGroup
                0x0000000000037490                __sysSpuPrintfAttachThread
                0x00000000000374d0                __sysSpuPrintfDetachGroup
                0x0000000000037510                __sysSpuPrintfDetach_Tread
                0x0000000000037550                __sysSpuPrintfFinalize
                0x0000000000037590                __sysSpuPrintfInitialize
                0x00000000000375d0                __sysConsoleGetc
                0x0000000000037610                __sysConsolePutc
                0x0000000000037650                __sysConsoleWrite
                0x0000000000037690                __sysPrintf
                0x00000000000376d0                __sysSprintf
                0x0000000000037710                __sysSnprintf
                0x0000000000037750                __sysVprintf
                0x0000000000037790                __sysVsprintf
                0x00000000000377d0                __sysVsnprintf
 .sceStub.text  0x0000000000037810      0x740 f:/PSDK3/psl1ght/ppu/lib\libpngdec.a(sprx.o)
                0x0000000000037810                .pngDecCreate
                0x0000000000037810                __pngDecCreate
                0x0000000000037850                __pngDecDestroy
                0x0000000000037850                .pngDecDestroy
                0x0000000000037890                __pngDecOpen
                0x0000000000037890                .pngDecOpen
                0x00000000000378d0                __pngDecClose
                0x00000000000378d0                .pngDecClose
                0x0000000000037910                .pngDecReadHeader
                0x0000000000037910                __pngDecReadHeader
                0x0000000000037950                __pngDecDecodeData
                0x0000000000037950                .pngDecDecodeData
                0x0000000000037990                __pngDecSetParameter
                0x0000000000037990                .pngDecSetParameter
                0x00000000000379d0                __pngDecExtCreate
                0x0000000000037a10                __pngDecExtOpen
                0x0000000000037a50                __pngDecExtReadHeader
                0x0000000000037a90                __pngDecExtDecodeData
                0x0000000000037ad0                __pngDecExtSetParameter
                0x0000000000037b10                __pngDecGetbKGD
                0x0000000000037b50                __pngDecGetcHRM
                0x0000000000037b90                __pngDecGetgAMA
                0x0000000000037bd0                __pngDecGethIST
                0x0000000000037c10                __pngDecGetiCCP
                0x0000000000037c50                __pngDecGetoFFs
                0x0000000000037c90                __pngDecGetpCAL
                0x0000000000037cd0                __pngDecGetpHYs
                0x0000000000037d10                __pngDecGetsBIT
                0x0000000000037d50                __pngDecGetsCAL
                0x0000000000037d90                __pngDecGetsPLT
                0x0000000000037dd0                __pngDecGetsRGB
                0x0000000000037e10                __pngDecGettIME
                0x0000000000037e50                __pngDecGettRNS
                0x0000000000037e90                __pngDecGetPLTE
                0x0000000000037ed0                __pngDecUnknownChunks
                0x0000000000037f10                __pngDecGetTextChunk
 .sceStub.text  0x0000000000037f50      0x200 f:/PSDK3/psl1ght/ppu/lib\libsysmodule.a(sprx.o)
                0x0000000000037f50                __sysModuleInitialize
                0x0000000000037f90                __sysModuleFinalize
                0x0000000000037fd0                __sysModuleLoad
                0x0000000000037fd0                .sysModuleLoad
                0x0000000000038010                .sysModuleUnload
                0x0000000000038010                __sysModuleUnload
                0x0000000000038050                __sysModuleIsLoaded
                0x0000000000038090                __sysModuleGetImagesize
                0x00000000000380d0                __sysModuleFetchImage
                0x0000000000038110                __sysModuleSetMemcontainer
 *(SORT(.sceStub.text.*))
                0x0000000000038150                PROVIDE (__etext, .)
                0x0000000000038150                PROVIDE (_etext, .)
                0x0000000000038150                PROVIDE (etext, .)

.eh_frame_hdr   0x0000000000038150        0x0
 *(.eh_frame_hdr)
 .eh_frame_hdr  0x0000000000000000        0x0 f:/psdk3/ps3dev/ppu/bin/../lib/gcc/powerpc64-ps3-elf/4.5.2/../../../../powerpc64-ps3-elf/lib/lv2-crtn.o

.eh_frame       0x0000000000038150        0x4
 *(.eh_frame)
 .eh_frame      0x0000000000038150        0x0 f:/psdk3/ps3dev/ppu/bin/../lib/gcc/powerpc64-ps3-elf/4.5.2/crtbegin.o
 .eh_frame      0x0000000000038150        0x4 f:/psdk3/ps3dev/ppu/bin/../lib/gcc/powerpc64-ps3-elf/4.5.2/crtend.o

.gcc_except_table
 *(.gcc_except_table .gcc_except_table.*)

.rodata.sceResident
                0x0000000000038154       0x62
 *(.rodata.sceResident)
 .rodata.sceResident
                0x0000000000038154        0xf f:/PSDK3/psl1ght/ppu/lib\libgcm_sys.a(sprx.o)
 *fill*         0x0000000000038163        0x1 00
 .rodata.sceResident
                0x0000000000038164        0xb f:/PSDK3/psl1ght/ppu/lib\libio.a(sprx.o)
 *fill*         0x000000000003816f        0x1 00
 .rodata.sceResident
                0x0000000000038170       0x10 f:/PSDK3/psl1ght/ppu/lib\libsysutil.a(sprx.o)
 .rodata.sceResident
                0x0000000000038180       0x12 f:/PSDK3/psl1ght/ppu/lib\liblv2.a(sprx.o)
 *fill*         0x0000000000038192        0x2 00
 .rodata.sceResident
                0x0000000000038194        0xf f:/PSDK3/psl1ght/ppu/lib\libpngdec.a(sprx.o)
 *fill*         0x00000000000381a3        0x1 00
 .rodata.sceResident
                0x00000000000381a4       0x12 f:/PSDK3/psl1ght/ppu/lib\libsysmodule.a(sprx.o)

.rodata.sceFNID
                0x00000000000381b8      0x5d0
 *(.rodata.sceFNID .rodata.sceFNID.*)
 .rodata.sceFNID
                0x00000000000381b8      0x164 f:/PSDK3/psl1ght/ppu/lib\libgcm_sys.a(sprx.o)
                0x00000000000381b8                gcmInitBody_fnid
                0x00000000000381b8                cellGcmSys
                0x00000000000381bc                gcmSetDisplayBuffer_fnid
                0x00000000000381c0                gcmGetControlRegister_fnid
                0x00000000000381c4                gcmAddressToOffset_fnid
                0x00000000000381c8                gcmGetConfiguration_fnid
                0x00000000000381cc                gcmGetCurrentField_fnid
                0x00000000000381d0                gcmSetFlipMode_fnid
                0x00000000000381d4                gcmGetFlipStatus_fnid
                0x00000000000381d8                gcmGetLastFlipTime_fnid
                0x00000000000381dc                gcmGetVBlankCount_fnid
                0x00000000000381e0                gcmSetWaitFlip_fnid
                0x00000000000381e4                gcmSetFlipStatus_fnid
                0x00000000000381e8                gcmResetFlipStatus_fnid
                0x00000000000381ec                gcmSetFlip_fnid
                0x00000000000381f0                gcmSetFlipImmediate_fnid
                0x00000000000381f4                gcmFunc15_fnid
                0x00000000000381f8                gcmFunc3_fnid
                0x00000000000381fc                gcmFunc1_fnid
                0x0000000000038200                gcmFunc2_fnid
                0x0000000000038204                gcmFunc4_fnid
                0x0000000000038208                gcmFunc12_fnid
                0x000000000003820c                gcmFunc13_fnid
                0x0000000000038210                gcmGetReport_fnid
                0x0000000000038214                gcmSetTile_fnid
                0x0000000000038218                gcmBindTile_fnid
                0x000000000003821c                gcmUnbindTile_fnid
                0x0000000000038220                gcmSetZcull_fnid
                0x0000000000038224                gcmBindZcull_fnid
                0x0000000000038228                gcmUnbindZcull_fnid
                0x000000000003822c                gcmGetTimeStamp_fnid
                0x0000000000038230                gcmSetVBlankFrequency_fnid
                0x0000000000038234                gcmSetSecondVFrequency_fnid
                0x0000000000038238                gcmSetDebugOutputLevel_fnid
                0x000000000003823c                gcmGetLabelAddress_fnid
                0x0000000000038240                gcmSetVBlankHandlerEx_fnid
                0x0000000000038244                gcmSetFlipHandlerEx_fnid
                0x0000000000038248                gcmSetSecondVHandlerEx_fnid
                0x000000000003824c                gcmSetGraphicsHandlerEx_fnid
                0x0000000000038250                gcmTerminate_fnid
                0x0000000000038254                gcmMapMainMemory_fnid
                0x0000000000038258                gcmMapEaIoAddress_fnid
                0x000000000003825c                gcmUnmapEaIoAddress_fnid
                0x0000000000038260                gcmUnmapIoAddress_fnid
                0x0000000000038264                gcmIoOffsetToAddress_fnid
                0x0000000000038268                gcmSetDefaultCommandBuffer_fnid
                0x000000000003826c                gcmSetTileInfo_fnid
                0x0000000000038270                gcmGetTiledPitchSize_fnid
                0x0000000000038274                gcmSetInvalidateTile_fnid
                0x0000000000038278                gcmSetUserCommandEx_fnid
                0x000000000003827c                gcmSetUserHandlerEx_fnid
                0x0000000000038280                gcmSetQueueHandlerEx_fnid
                0x0000000000038284                gcmSetPrepareFlip_fnid
                0x0000000000038288                gcmGetOffsetTable_fnid
                0x000000000003828c                gcmGetLastSecondVTime_fnid
                0x0000000000038290                gcmSortRemapEaIoAddress_fnid
                0x0000000000038294                gcmGetDisplayBufferByFlipIndex_fnid
                0x0000000000038298                gcmGcmGetDefaultCommandWordSize_fnid
                0x000000000003829c                gcmGcmGetDefaultSegmentWordSize_fnid
                0x00000000000382a0                gcmSetDefaultCommandBufferAndSegmentWordSize_fnid
                0x00000000000382a4                gcmGetDisplayInfo_fnid
                0x00000000000382a8                gcmDumpGraphicsError_fnid
                0x00000000000382ac                gcmFunc38_fnid
                0x00000000000382b0                gcmGetCurrentDisplayBufferId_fnid
                0x00000000000382b4                gcmGetDefaultCommandWordSize_fnid
                0x00000000000382b8                gcmGetDefaultSegmentWordSize_fnid
                0x00000000000382bc                gcmGetMaxIoMapSize_fnid
                0x00000000000382c0                gcmGetNotifyDataAddress_fnid
                0x00000000000382c4                gcmGetReportDataAddress_fnid
                0x00000000000382c8                gcmGetReportDataAddressLocation_fnid
                0x00000000000382cc                gcmGetReportDataLocation_fnid
                0x00000000000382d0                gcmGetTileInfo_fnid
                0x00000000000382d4                gcmGetTimeStampLocation_fnid
                0x00000000000382d8                gcmGetZcullInfo_fnid
                0x00000000000382dc                gcmInitCursor_fnid
                0x00000000000382e0                gcmInitDefaultFifoMode_fnid
                0x00000000000382e4                gcmInitSystemMode_fnid
                0x00000000000382e8                gcmMapEaIoAddressWithFlags_fnid
                0x00000000000382ec                gcmMapLocalMemory_fnid
                0x00000000000382f0                gcmReserveIoMapSize_fnid
                0x00000000000382f4                gcmSetCursorDisable_fnid
                0x00000000000382f8                gcmSetCursorEnable_fnid
                0x00000000000382fc                gcmSetCursorImageOffset_fnid
                0x0000000000038300                gcmSetCursorPosition_fnid
                0x0000000000038304                gcmSetDefaultFifoSize_fnid
                0x0000000000038308                gcmSetFlipCommand_fnid
                0x000000000003830c                gcmSetFlipCommandWithWaitLabel_fnid
                0x0000000000038310                gcmSysGetLastVBlankTime_fnid
                0x0000000000038314                gcmUnreserveIoMapSize_fnid
                0x0000000000038318                gcmUpdateCursor_fnid
 .rodata.sceFNID
                0x000000000003831c       0xbc f:/PSDK3/psl1ght/ppu/lib\libio.a(sprx.o)
                0x000000000003831c                sys_io
                0x000000000003831c                sys_config_start_fnid
                0x0000000000038320                sys_config_stop_fnid
                0x0000000000038324                sys_config_add_service_listener_fnid
                0x0000000000038328                sys_config_remove_service_listener_fnid
                0x000000000003832c                sys_config_register_service_fnid
                0x0000000000038330                sys_config_unregister_service_fnid
                0x0000000000038334                ioPadInit_fnid
                0x0000000000038338                ioPadEnd_fnid
                0x000000000003833c                ioPadClearBuf_fnid
                0x0000000000038340                ioPadInfoPressMode_fnid
                0x0000000000038344                ioPadLddRegisterController_fnid
                0x0000000000038348                ioPadGetInfo_fnid
                0x000000000003834c                ioPadGetRawData_fnid
                0x0000000000038350                ioPadGetDataExtra_fnid
                0x0000000000038354                ioPadInfoSensorMode_fnid
                0x0000000000038358                ioPadGetData_fnid
                0x000000000003835c                ioPadLddGetPortNo_fnid
                0x0000000000038360                ioPadLddDataInsert_fnid
                0x0000000000038364                ioPadSetSensorMode_fnid
                0x0000000000038368                ioPadGetCapabilityInfo_fnid
                0x000000000003836c                ioPadLddUnregisterController_fnid
                0x0000000000038370                ioPadSetActDirect_fnid
                0x0000000000038374                ioPadSetPressMode_fnid
                0x0000000000038378                ioPadPeriphGetInfo_fnid
                0x000000000003837c                ioPadSetPortSetting_fnid
                0x0000000000038380                ioPadPeriphGetData_fnid
                0x0000000000038384                ioPadGetInfo2_fnid
                0x0000000000038388                ioMouseInit_fnid
                0x000000000003838c                ioMouseEnd_fnid
                0x0000000000038390                ioMouseClearBuf_fnid
                0x0000000000038394                ioMouseGetInfo_fnid
                0x0000000000038398                ioMouseGetTabletDataList_fnid
                0x000000000003839c                ioMouseSetTabletMode_fnid
                0x00000000000383a0                ioMouseGetData_fnid
                0x00000000000383a4                ioMouseInfoTabletMode_fnid
                0x00000000000383a8                ioMouseGetRawData_fnid
                0x00000000000383ac                ioMouseGetDataList_fnid
                0x00000000000383b0                ioKbInit_fnid
                0x00000000000383b4                ioKbEnd_fnid
                0x00000000000383b8                ioKbRead_fnid
                0x00000000000383bc                ioKbSetReadMode_fnid
                0x00000000000383c0                ioKbSetCodeType_fnid
                0x00000000000383c4                ioKbCnvRawCode_fnid
                0x00000000000383c8                ioKbSetLEDStatus_fnid
                0x00000000000383cc                ioKbGetInfo_fnid
                0x00000000000383d0                ioKbGetConfiguration_fnid
                0x00000000000383d4                ioKbClearBuf_fnid
 .rodata.sceFNID
                0x00000000000383d8      0x140 f:/PSDK3/psl1ght/ppu/lib\libsysutil.a(sprx.o)
                0x00000000000383d8                videoGetResolution_fnid
                0x00000000000383d8                cellSysutil
                0x00000000000383dc                videoConfigure_fnid
                0x00000000000383e0                videoGetState_fnid
                0x00000000000383e4                videoGetDeviceInfo_fnid
                0x00000000000383e8                videoGetConfiguration_fnid
                0x00000000000383ec                videoGetResolutionAvailability_fnid
                0x00000000000383f0                videoDebugSetMonitorType_fnid
                0x00000000000383f4                videoRegisterCallbackEx_fnid
                0x00000000000383f8                videoUnregisterCallback_fnid
                0x00000000000383fc                videoGetNumberOfDevice_fnid
                0x0000000000038400                videoGetConvertCursorColorInfo_fnid
                0x0000000000038404                msgDialogClose_fnid
                0x0000000000038408                msgDialogOpenErrorCodeEx_fnid
                0x000000000003840c                msgDialogOpenEx_fnid
                0x0000000000038410                msgDialogProgressBarInc_fnid
                0x0000000000038414                msgDialogAbort_fnid
                0x0000000000038418                msgDialogOpen2Ex_fnid
                0x000000000003841c                msgDialogProgressBarReset_fnid
                0x0000000000038420                msgDialogProgressBarSetMsg_fnid
                0x0000000000038424                oskGetInputText_fnid
                0x0000000000038428                oskSetInitialInputDevice_fnid
                0x000000000003842c                oskGetSize_fnid
                0x0000000000038430                oskUnloadAsync_fnid
                0x0000000000038434                oskDisableDimmer_fnid
                0x0000000000038438                oskSetKeyLayoutOption_fnid
                0x000000000003843c                oskAbort_fnid
                0x0000000000038440                oskSetDeviceMask_fnid
                0x0000000000038444                oskSetSeparateWindowOption_fnid
                0x0000000000038448                oskAddSupportLanguage_fnid
                0x000000000003844c                oskLoadAsync_fnid
                0x0000000000038450                oskSetInitialKeyLayout_fnid
                0x0000000000038454                oskSetLayoutMode_fnid
                0x0000000000038458                sysUtilRegisterCallbackEx_fnid
                0x000000000003845c                sysUtilCheckCallback_fnid
                0x0000000000038460                sysUtilUnregisterCallback_fnid
                0x0000000000038464                sysSaveListLoad2Ex_fnid
                0x0000000000038468                sysSaveListSave2Ex_fnid
                0x000000000003846c                sysSaveListAutoLoadEx_fnid
                0x0000000000038470                sysSaveListAutoSaveEx_fnid
                0x0000000000038474                sysSaveFixedLoad2Ex_fnid
                0x0000000000038478                sysSaveFixedSave2Ex_fnid
                0x000000000003847c                sysSaveAutoLoad2Ex_fnid
                0x0000000000038480                sysSaveAutoSave2Ex_fnid
                0x0000000000038484                sysSaveDelete2_fnid
                0x0000000000038488                sysGameDataCheck_fnid
                0x000000000003848c                sysGameBootCheck_fnid
                0x0000000000038490                sysGamePatchCheck_fnid
                0x0000000000038494                sysGameCreateGameData_fnid
                0x0000000000038498                sysGameGetParamInt_fnid
                0x000000000003849c                sysGameGetParamString_fnid
                0x00000000000384a0                sysGameGetSizeKB_fnid
                0x00000000000384a4                sysGameSetParamString_fnid
                0x00000000000384a8                sysGameGetDiscContentInfoUpdatePath_fnid
                0x00000000000384ac                sysGameContentPermit_fnid
                0x00000000000384b0                sysGameContentErrorDialog_fnid
                0x00000000000384b4                sysGameThemeInstall_fnid
                0x00000000000384b8                sysGameThemeInstallFromBufferEx_fnid
                0x00000000000384bc                sysGameGetLocalWebContentPath_fnid
                0x00000000000384c0                sysGameDeleteGameData_fnid
                0x00000000000384c4                sysGameRegisterDiscChangeCallbackEx_fnid
                0x00000000000384c8                sysGameUnregisterDiscChangeCallback_fnid
                0x00000000000384cc                sysDiscRegisterDiscChangeCallbackEx_fnid
                0x00000000000384d0                sysDiscUnregisterDiscChangeCallback_fnid
                0x00000000000384d4                sysTrophyInit_fnid
                0x00000000000384d8                sysTrophyAbortHandle_fnid
                0x00000000000384dc                sysTrophyCreateContext_fnid
                0x00000000000384e0                sysTrophyCreateHandle_fnid
                0x00000000000384e4                sysTrophyDestroyContext_fnid
                0x00000000000384e8                sysTrophyDestroyHandle_fnid
                0x00000000000384ec                sysTrophyGetGameIcon_fnid
                0x00000000000384f0                sysTrophyGetGameInfo_fnid
                0x00000000000384f4                sysTrophyGetGameProgress_fnid
                0x00000000000384f8                sysTrophyGetRequiredDiskSpace_fnid
                0x00000000000384fc                sysTrophyGetTrophyIcon_fnid
                0x0000000000038500                sysTrophyGetTrophyInfo_fnid
                0x0000000000038504                sysTrophyGetTrophyUnlockState_fnid
                0x0000000000038508                sysTrophyRegisterContextEx_fnid
                0x000000000003850c                sysTrophySetSoundLevel_fnid
                0x0000000000038510                sysTrophyTerm_fnid
                0x0000000000038514                sysTrophyUnlockTrophy_fnid
 .rodata.sceFNID
                0x0000000000038518      0x1dc f:/PSDK3/psl1ght/ppu/lib\liblv2.a(sprx.o)
                0x0000000000038518                sysPrxForUser
                0x0000000000038518                sysGetSystemTime_fnid
                0x000000000003851c                sysGetSystemSwVersion_fnid
                0x0000000000038520                sysGetTemperature_fnid
                0x0000000000038524                sysGetRandomNumber_fnid
                0x0000000000038528                sysGetRtcStatus_fnid
                0x000000000003852c                sysBoardStorageRead_fnid
                0x0000000000038530                sysBoardStorageWrite_fnid
                0x0000000000038534                sysProcessIsStack_fnid
                0x0000000000038538                sysProcessExit_fnid
                0x000000000003853c                sysProcessExitspawn_fnid
                0x0000000000038540                sysProcessExitSpawn2Ex_fnid
                0x0000000000038544                sysProcessExitSpawnWithLevel_fnid
                0x0000000000038548                sysProcessAtExitSpawn_fnid
                0x000000000003854c                sysProcess_At_ExitSpawn_fnid
                0x0000000000038550                sysPrxRegisterLibrary_fnid
                0x0000000000038554                sysPrxUnregisterLibrary_fnid
                0x0000000000038558                sysPrxStartModule_fnid
                0x000000000003855c                sysPrxStopModule_fnid
                0x0000000000038560                sysPrxLoadModule_fnid
                0x0000000000038564                sysPrxLoadModuleByFd_fnid
                0x0000000000038568                sysPrxLoadModuleList_fnid
                0x000000000003856c                sysPrxLoadModuleListOnMemcontainer_fnid
                0x0000000000038570                sysPrxLoadModuleOnMemcontainer_fnid
                0x0000000000038574                sysPrxLoadModuleOnMemcontainerByFd_fnid
                0x0000000000038578                sysPrxGetModuleInfo_fnid
                0x000000000003857c                sysPrxGetModuleList_fnid
                0x0000000000038580                sysPrxGetModuleId_fnid
                0x0000000000038584                sysPrxGetModuleIdByAddress_fnid
                0x0000000000038588                sysPrxGetModuleIdByName_fnid
                0x000000000003858c                sysPrxUnloadModule_fnid
                0x0000000000038590                sysPrxExitSpawnWithLevel_fnid
                0x0000000000038594                sysThreadCreateEx_fnid
                0x0000000000038598                sysThreadExit_fnid
                0x000000000003859c                sysThreadGetId_fnid
                0x00000000000385a0                sysThreadOnce_fnid
                0x00000000000385a4                sysThreadInitialzeTLS_fnid
                0x00000000000385a8                sysThreadRegisterAtexit_fnid
                0x00000000000385ac                sysThreadUnregisterAtexit_fnid
                0x00000000000385b0                sysInterruptThreadDisestablish_fnid
                0x00000000000385b4                sysLwMutexCreate_fnid
                0x00000000000385b8                sysLwMutexDestroy_fnid
                0x00000000000385bc                sysLwMutexLock_fnid
                0x00000000000385c0                sysLwMutexTryLock_fnid
                0x00000000000385c4                sysLwMutexUnlock_fnid
                0x00000000000385c8                sysLwCondCreate_fnid
                0x00000000000385cc                sysLwCondWait_fnid
                0x00000000000385d0                sysLwCondSignal_fnid
                0x00000000000385d4                sysLwCondSignalTo_fnid
                0x00000000000385d8                sysLwCondSignalAll_fnid
                0x00000000000385dc                sysLwCondDestroy_fnid
                0x00000000000385e0                sysSpinlockInitialize_fnid
                0x00000000000385e4                sysSpinlockLock_fnid
                0x00000000000385e8                sysSpinlockTryLock_fnid
                0x00000000000385ec                sysSpinlockUnlock_fnid
                0x00000000000385f0                sysWatchdogClear_fnid
                0x00000000000385f4                sysWatchdogStart_fnid
                0x00000000000385f8                sysWatchdogStop_fnid
                0x00000000000385fc                sysMalloc_fnid
                0x0000000000038600                sysMemalign_fnid
                0x0000000000038604                sysMemchr_fnid
                0x0000000000038608                sysMemcmp_fnid
                0x000000000003860c                sysMemcpy_fnid
                0x0000000000038610                sysMemmove_fnid
                0x0000000000038614                sysMemset_fnid
                0x0000000000038618                sysFree_fnid
                0x000000000003861c                sysHeapAllocHeapMemory_fnid
                0x0000000000038620                sysHeapCreateHeap_fnid
                0x0000000000038624                sysHeapDeleteHeap_fnid
                0x0000000000038628                sysHeapFree_fnid
                0x000000000003862c                sysHeapGetMallInfo_fnid
                0x0000000000038630                sysHeapGetTotalFreeSize_fnid
                0x0000000000038634                sysHeapMalloc_fnid
                0x0000000000038638                sysHeapMemalign_fnid
                0x000000000003863c                sysHeapStats_fnid
                0x0000000000038640                sysQsort_fnid
                0x0000000000038644                sysMempoolCreate_fnid
                0x0000000000038648                sysMempoolDestroy_fnid
                0x000000000003864c                sysMempoolGetCount_fnid
                0x0000000000038650                sysMempoolAllocateBlock_fnid
                0x0000000000038654                sysMempoolTryAllocateBlock_fnid
                0x0000000000038658                sysMempoolFreeBlock_fnid
                0x000000000003865c                sysMMapperFreeMemory_fnid
                0x0000000000038660                sysMMapperMapMemory_fnid
                0x0000000000038664                sysMMapperUnmapMemory_fnid
                0x0000000000038668                sysMMapperAllocateMemory_fnid
                0x000000000003866c                sysMMapperAllocateMemoryFromContainer_fnid
                0x0000000000038670                sysStrlen_fnid
                0x0000000000038674                sysStrcpy_fnid
                0x0000000000038678                sysStrncpy_fnid
                0x000000000003867c                sysStrcat_fnid
                0x0000000000038680                sysStrncat_fnid
                0x0000000000038684                sysStrchr_fnid
                0x0000000000038688                sysStrrchr_fnid
                0x000000000003868c                sysStrcmp_fnid
                0x0000000000038690                sysStrncmp_fnid
                0x0000000000038694                sysStrncasecmp_fnid
                0x0000000000038698                sysToLower_fnid
                0x000000000003869c                sysToUpper_fnid
                0x00000000000386a0                sysSpuElfGetSegments_fnid
                0x00000000000386a4                sysSpuElfGetInformation_fnid
                0x00000000000386a8                sysSpuRawLoad_fnid
                0x00000000000386ac                sysSpuRawImageLoad_fnid
                0x00000000000386b0                sysSpuImageClose_fnid
                0x00000000000386b4                sysSpuImageImport_fnid
                0x00000000000386b8                sysSpuPrintfAttachGroup_fnid
                0x00000000000386bc                sysSpuPrintfAttachThread_fnid
                0x00000000000386c0                sysSpuPrintfDetachGroup_fnid
                0x00000000000386c4                sysSpuPrintfDetach_Tread_fnid
                0x00000000000386c8                sysSpuPrintfFinalize_fnid
                0x00000000000386cc                sysSpuPrintfInitialize_fnid
                0x00000000000386d0                sysConsoleGetc_fnid
                0x00000000000386d4                sysConsolePutc_fnid
                0x00000000000386d8                sysConsoleWrite_fnid
                0x00000000000386dc                sysPrintf_fnid
                0x00000000000386e0                sysSprintf_fnid
                0x00000000000386e4                sysSnprintf_fnid
                0x00000000000386e8                sysVprintf_fnid
                0x00000000000386ec                sysVsprintf_fnid
                0x00000000000386f0                sysVsnprintf_fnid
 .rodata.sceFNID
                0x00000000000386f4       0x74 f:/PSDK3/psl1ght/ppu/lib\libpngdec.a(sprx.o)
                0x00000000000386f4                pngDecCreate_fnid
                0x00000000000386f4                cellPngDec
                0x00000000000386f8                pngDecDestroy_fnid
                0x00000000000386fc                pngDecOpen_fnid
                0x0000000000038700                pngDecClose_fnid
                0x0000000000038704                pngDecReadHeader_fnid
                0x0000000000038708                pngDecDecodeData_fnid
                0x000000000003870c                pngDecSetParameter_fnid
                0x0000000000038710                pngDecExtCreate_fnid
                0x0000000000038714                pngDecExtOpen_fnid
                0x0000000000038718                pngDecExtReadHeader_fnid
                0x000000000003871c                pngDecExtDecodeData_fnid
                0x0000000000038720                pngDecExtSetParameter_fnid
                0x0000000000038724                pngDecGetbKGD_fnid
                0x0000000000038728                pngDecGetcHRM_fnid
                0x000000000003872c                pngDecGetgAMA_fnid
                0x0000000000038730                pngDecGethIST_fnid
                0x0000000000038734                pngDecGetiCCP_fnid
                0x0000000000038738                pngDecGetoFFs_fnid
                0x000000000003873c                pngDecGetpCAL_fnid
                0x0000000000038740                pngDecGetpHYs_fnid
                0x0000000000038744                pngDecGetsBIT_fnid
                0x0000000000038748                pngDecGetsCAL_fnid
                0x000000000003874c                pngDecGetsPLT_fnid
                0x0000000000038750                pngDecGetsRGB_fnid
                0x0000000000038754                pngDecGettIME_fnid
                0x0000000000038758                pngDecGettRNS_fnid
                0x000000000003875c                pngDecGetPLTE_fnid
                0x0000000000038760                pngDecUnknownChunks_fnid
                0x0000000000038764                pngDecGetTextChunk_fnid
 .rodata.sceFNID
                0x0000000000038768       0x20 f:/PSDK3/psl1ght/ppu/lib\libsysmodule.a(sprx.o)
                0x0000000000038768                sysModuleInitialize_fnid
                0x0000000000038768                cellSysmodule
                0x000000000003876c                sysModuleFinalize_fnid
                0x0000000000038770                sysModuleLoad_fnid
                0x0000000000038774                sysModuleUnload_fnid
                0x0000000000038778                sysModuleIsLoaded_fnid
                0x000000000003877c                sysModuleGetImagesize_fnid
                0x0000000000038780                sysModuleFetchImage_fnid
                0x0000000000038784                sysModuleSetMemcontainer_fnid

.rodata.sceVNID
 *(.rodata.sceVNID .rodata.sceVNID.*)

.rodata.sceTNID
 *(.rodata.sceTNID .rodata.sceTNID.*)

.rodata.sceVStub
 *(.rodata.sceVStub)
 *(SORT(.rodata.sceVStub.*))
                0x0000000000038788                PROVIDE (__libentstart, .)

.lib.ent.top
 *(.lib.ent.top)

.lib.ent        0x0000000000038788        0x0
 *(.lib.ent)
 .lib.ent       0x0000000000038788        0x0 f:/psdk3/ps3dev/ppu/bin/../lib/gcc/powerpc64-ps3-elf/4.5.2/../../../../powerpc64-ps3-elf/lib/lv2-sprx.o

.lib.ent.btm
 *(.lib.ent.btm)
                0x0000000000038788                PROVIDE (__libentend, .)
                0x0000000000038788                PROVIDE (__libstubstart, .)

.lib.stub.top
 *(.lib.stub.top)

.lib.stub       0x0000000000038788      0x108
 *(.lib.stub)
 .lib.stub      0x0000000000038788        0x0 f:/psdk3/ps3dev/ppu/bin/../lib/gcc/powerpc64-ps3-elf/4.5.2/../../../../powerpc64-ps3-elf/lib/lv2-sprx.o
 .lib.stub      0x0000000000038788       0x2c f:/PSDK3/psl1ght/ppu/lib\libgcm_sys.a(sprx.o)
 .lib.stub      0x00000000000387b4       0x2c f:/PSDK3/psl1ght/ppu/lib\libio.a(sprx.o)
 .lib.stub      0x00000000000387e0       0x2c f:/PSDK3/psl1ght/ppu/lib\libsysutil.a(sprx.o)
 .lib.stub      0x000000000003880c       0x2c f:/PSDK3/psl1ght/ppu/lib\liblv2.a(sprx.o)
 .lib.stub      0x0000000000038838       0x2c f:/PSDK3/psl1ght/ppu/lib\libpngdec.a(sprx.o)
 .lib.stub      0x0000000000038864       0x2c f:/PSDK3/psl1ght/ppu/lib\libsysmodule.a(sprx.o)

.lib.stub.btm
 *(.lib.stub.btm)
                0x0000000000038890                PROVIDE (__libstubend, .)

.ppu_rodata
 *(.ppu_rodata .ppu_rodata.*)

.sys_proc_param
 *(.sys_proc_param)

.sys_proc_prx_param
                0x0000000000038890       0x28
 *(.sys_proc_prx_param)
 .sys_proc_prx_param
                0x0000000000038890       0x28 f:/psdk3/ps3dev/ppu/bin/../lib/gcc/powerpc64-ps3-elf/4.5.2/../../../../powerpc64-ps3-elf/lib/lv2-sprx.o
                0x0000000000040000                . = ALIGN (0x10000)

.ppu_data
 *(.ppu_data .ppu_data.*)

.sdata2
 *(.sdata2 .sdata2.* .gnu.linkonce.s2.*)

.sbss2
 *(.sbss2 .sbss2.* .gnu.linkonce.sb2.*)

.eh_frame
 *(.eh_frame)

.gcc_except_table
 *(.gcc_except_table .gcc_except_table.*)
                0x0000000000040000                . = ALIGN (0x8)

.preinit_array  0x0000000000040000        0x0
                0x0000000000040000                PROVIDE (__preinit_array_start, .)
 *(.preinit_array)
                0x0000000000040000                PROVIDE (__preinit_array_end, .)

.init_array     0x0000000000040000        0x0
                0x0000000000040000                PROVIDE (__init_array_start, .)
 *(SORT(.init_array.*))
 *(.init_array)
                0x0000000000040000                PROVIDE (__init_array_end, .)

.fini_array     0x0000000000040000        0x0
                0x0000000000040000                PROVIDE (__fini_array_start, .)
 *(.fini_array)
 *(SORT(.fini_array.*))
                0x0000000000040000                PROVIDE (__fini_array_end, .)

.ctors          0x0000000000040000       0x28
 *crtbegin.o(.ctors)
 .ctors         0x0000000000040000        0x8 f:/psdk3/ps3dev/ppu/bin/../lib/gcc/powerpc64-ps3-elf/4.5.2/crtbegin.o
 *crtbegin?.o(.ctors)
 *(EXCLUDE_FILE(*crtend?.o *crtend.o) .ctors)
 *(SORT(.ctors.*))
 .ctors.65430   0x0000000000040008        0x8 f:/psdk3/ps3dev/ppu/bin/../lib/gcc/powerpc64-ps3-elf/4.5.2/../../../../powerpc64-ps3-elf/lib\libc.a(lib_a-lock_internal.o)
 .ctors.65431   0x0000000000040010        0x8 f:/psdk3/ps3dev/ppu/bin/../lib/gcc/powerpc64-ps3-elf/4.5.2/../../../../powerpc64-ps3-elf/lib/lv2-crt0.o
 .ctors.65432   0x0000000000040018        0x8 f:/PSDK3/psl1ght/ppu/lib\librt.a(sbrk.o)
 *(.ctors)
 .ctors         0x0000000000040020        0x8 f:/psdk3/ps3dev/ppu/bin/../lib/gcc/powerpc64-ps3-elf/4.5.2/crtend.o

.dtors          0x0000000000040028       0x10
 *crtbegin.o(.dtors)
 .dtors         0x0000000000040028        0x8 f:/psdk3/ps3dev/ppu/bin/../lib/gcc/powerpc64-ps3-elf/4.5.2/crtbegin.o
 *crtbegin?.o(.dtors)
 *(EXCLUDE_FILE(*crtend?.o *crtend.o) .dtors)
 *(SORT(.dtors.*))
 *(.dtors)
 .dtors         0x0000000000040030        0x8 f:/psdk3/ps3dev/ppu/bin/../lib/gcc/powerpc64-ps3-elf/4.5.2/crtend.o
                0x0000000000040030                __DTOR_END__

.jcr            0x0000000000040038        0x8
 *(.jcr)
 .jcr           0x0000000000040038        0x0 f:/psdk3/ps3dev/ppu/bin/../lib/gcc/powerpc64-ps3-elf/4.5.2/crtbegin.o
 .jcr           0x0000000000040038        0x8 f:/psdk3/ps3dev/ppu/bin/../lib/gcc/powerpc64-ps3-elf/4.5.2/crtend.o

.data.rel.ro
 *(.data.rel.ro.local*)
 *(.data.rel.ro*)

.dynamic
 *(.dynamic)

.data.sceFStub  0x0000000000040040      0x5d0
 *(.data.sceFStub)
 *(SORT(.data.sceFStub.*))
 .data.sceFStub.cellGcmSys
                0x0000000000040040      0x164 f:/PSDK3/psl1ght/ppu/lib\libgcm_sys.a(sprx.o)
                0x0000000000040040                gcmInitBody_stub
                0x0000000000040044                gcmSetDisplayBuffer_stub
                0x0000000000040048                gcmGetControlRegister_stub
                0x000000000004004c                gcmAddressToOffset_stub
                0x0000000000040050                gcmGetConfiguration_stub
                0x0000000000040054                gcmGetCurrentField_stub
                0x0000000000040058                gcmSetFlipMode_stub
                0x000000000004005c                gcmGetFlipStatus_stub
                0x0000000000040060                gcmGetLastFlipTime_stub
                0x0000000000040064                gcmGetVBlankCount_stub
                0x0000000000040068                gcmSetWaitFlip_stub
                0x000000000004006c                gcmSetFlipStatus_stub
                0x0000000000040070                gcmResetFlipStatus_stub
                0x0000000000040074                gcmSetFlip_stub
                0x0000000000040078                gcmSetFlipImmediate_stub
                0x000000000004007c                gcmFunc15_stub
                0x0000000000040080                gcmFunc3_stub
                0x0000000000040084                gcmFunc1_stub
                0x0000000000040088                gcmFunc2_stub
                0x000000000004008c                gcmFunc4_stub
                0x0000000000040090                gcmFunc12_stub
                0x0000000000040094                gcmFunc13_stub
                0x0000000000040098                gcmGetReport_stub
                0x000000000004009c                gcmSetTile_stub
                0x00000000000400a0                gcmBindTile_stub
                0x00000000000400a4                gcmUnbindTile_stub
                0x00000000000400a8                gcmSetZcull_stub
                0x00000000000400ac                gcmBindZcull_stub
                0x00000000000400b0                gcmUnbindZcull_stub
                0x00000000000400b4                gcmGetTimeStamp_stub
                0x00000000000400b8                gcmSetVBlankFrequency_stub
                0x00000000000400bc                gcmSetSecondVFrequency_stub
                0x00000000000400c0                gcmSetDebugOutputLevel_stub
                0x00000000000400c4                gcmGetLabelAddress_stub
                0x00000000000400c8                gcmSetVBlankHandlerEx_stub
                0x00000000000400cc                gcmSetFlipHandlerEx_stub
                0x00000000000400d0                gcmSetSecondVHandlerEx_stub
                0x00000000000400d4                gcmSetGraphicsHandlerEx_stub
                0x00000000000400d8                gcmTerminate_stub
                0x00000000000400dc                gcmMapMainMemory_stub
                0x00000000000400e0                gcmMapEaIoAddress_stub
                0x00000000000400e4                gcmUnmapEaIoAddress_stub
                0x00000000000400e8                gcmUnmapIoAddress_stub
                0x00000000000400ec                gcmIoOffsetToAddress_stub
                0x00000000000400f0                gcmSetDefaultCommandBuffer_stub
                0x00000000000400f4                gcmSetTileInfo_stub
                0x00000000000400f8                gcmGetTiledPitchSize_stub
                0x00000000000400fc                gcmSetInvalidateTile_stub
                0x0000000000040100                gcmSetUserCommandEx_stub
                0x0000000000040104                gcmSetUserHandlerEx_stub
                0x0000000000040108                gcmSetQueueHandlerEx_stub
                0x000000000004010c                gcmSetPrepareFlip_stub
                0x0000000000040110                gcmGetOffsetTable_stub
                0x0000000000040114                gcmGetLastSecondVTime_stub
                0x0000000000040118                gcmSortRemapEaIoAddress_stub
                0x000000000004011c                gcmGetDisplayBufferByFlipIndex_stub
                0x0000000000040120                gcmGcmGetDefaultCommandWordSize_stub
                0x0000000000040124                gcmGcmGetDefaultSegmentWordSize_stub
                0x0000000000040128                gcmSetDefaultCommandBufferAndSegmentWordSize_stub
                0x000000000004012c                gcmGetDisplayInfo_stub
                0x0000000000040130                gcmDumpGraphicsError_stub
                0x0000000000040134                gcmFunc38_stub
                0x0000000000040138                gcmGetCurrentDisplayBufferId_stub
                0x000000000004013c                gcmGetDefaultCommandWordSize_stub
                0x0000000000040140                gcmGetDefaultSegmentWordSize_stub
                0x0000000000040144                gcmGetMaxIoMapSize_stub
                0x0000000000040148                gcmGetNotifyDataAddress_stub
                0x000000000004014c                gcmGetReportDataAddress_stub
                0x0000000000040150                gcmGetReportDataAddressLocation_stub
                0x0000000000040154                gcmGetReportDataLocation_stub
                0x0000000000040158                gcmGetTileInfo_stub
                0x000000000004015c                gcmGetTimeStampLocation_stub
                0x0000000000040160                gcmGetZcullInfo_stub
                0x0000000000040164                gcmInitCursor_stub
                0x0000000000040168                gcmInitDefaultFifoMode_stub
                0x000000000004016c                gcmInitSystemMode_stub
                0x0000000000040170                gcmMapEaIoAddressWithFlags_stub
                0x0000000000040174                gcmMapLocalMemory_stub
                0x0000000000040178                gcmReserveIoMapSize_stub
                0x000000000004017c                gcmSetCursorDisable_stub
                0x0000000000040180                gcmSetCursorEnable_stub
                0x0000000000040184                gcmSetCursorImageOffset_stub
                0x0000000000040188                gcmSetCursorPosition_stub
                0x000000000004018c                gcmSetDefaultFifoSize_stub
                0x0000000000040190                gcmSetFlipCommand_stub
                0x0000000000040194                gcmSetFlipCommandWithWaitLabel_stub
                0x0000000000040198                gcmSysGetLastVBlankTime_stub
                0x000000000004019c                gcmUnreserveIoMapSize_stub
                0x00000000000401a0                gcmUpdateCursor_stub
 .data.sceFStub.cellPngDec
                0x00000000000401a4       0x74 f:/PSDK3/psl1ght/ppu/lib\libpngdec.a(sprx.o)
                0x00000000000401a4                pngDecCreate_stub
                0x00000000000401a8                pngDecDestroy_stub
                0x00000000000401ac                pngDecOpen_stub
                0x00000000000401b0                pngDecClose_stub
                0x00000000000401b4                pngDecReadHeader_stub
                0x00000000000401b8                pngDecDecodeData_stub
                0x00000000000401bc                pngDecSetParameter_stub
                0x00000000000401c0                pngDecExtCreate_stub
                0x00000000000401c4                pngDecExtOpen_stub
                0x00000000000401c8                pngDecExtReadHeader_stub
                0x00000000000401cc                pngDecExtDecodeData_stub
                0x00000000000401d0                pngDecExtSetParameter_stub
                0x00000000000401d4                pngDecGetbKGD_stub
                0x00000000000401d8                pngDecGetcHRM_stub
                0x00000000000401dc                pngDecGetgAMA_stub
                0x00000000000401e0                pngDecGethIST_stub
                0x00000000000401e4                pngDecGetiCCP_stub
                0x00000000000401e8                pngDecGetoFFs_stub
                0x00000000000401ec                pngDecGetpCAL_stub
                0x00000000000401f0                pngDecGetpHYs_stub
                0x00000000000401f4                pngDecGetsBIT_stub
                0x00000000000401f8                pngDecGetsCAL_stub
                0x00000000000401fc                pngDecGetsPLT_stub
                0x0000000000040200                pngDecGetsRGB_stub
                0x0000000000040204                pngDecGettIME_stub
                0x0000000000040208                pngDecGettRNS_stub
                0x000000000004020c                pngDecGetPLTE_stub
                0x0000000000040210                pngDecUnknownChunks_stub
                0x0000000000040214                pngDecGetTextChunk_stub
 .data.sceFStub.cellSysmodule
                0x0000000000040218       0x20 f:/PSDK3/psl1ght/ppu/lib\libsysmodule.a(sprx.o)
                0x0000000000040218                sysModuleInitialize_stub
                0x000000000004021c                sysModuleFinalize_stub
                0x0000000000040220                sysModuleLoad_stub
                0x0000000000040224                sysModuleUnload_stub
                0x0000000000040228                sysModuleIsLoaded_stub
                0x000000000004022c                sysModuleGetImagesize_stub
                0x0000000000040230                sysModuleFetchImage_stub
                0x0000000000040234                sysModuleSetMemcontainer_stub
 .data.sceFStub.cellSysutil
                0x0000000000040238      0x140 f:/PSDK3/psl1ght/ppu/lib\libsysutil.a(sprx.o)
                0x0000000000040238                videoGetResolution_stub
                0x000000000004023c                videoConfigure_stub
                0x0000000000040240                videoGetState_stub
                0x0000000000040244                videoGetDeviceInfo_stub
                0x0000000000040248                videoGetConfiguration_stub
                0x000000000004024c                videoGetResolutionAvailability_stub
                0x0000000000040250                videoDebugSetMonitorType_stub
                0x0000000000040254                videoRegisterCallbackEx_stub
                0x0000000000040258                videoUnregisterCallback_stub
                0x000000000004025c                videoGetNumberOfDevice_stub
                0x0000000000040260                videoGetConvertCursorColorInfo_stub
                0x0000000000040264                msgDialogClose_stub
                0x0000000000040268                msgDialogOpenErrorCodeEx_stub
                0x000000000004026c                msgDialogOpenEx_stub
                0x0000000000040270                msgDialogProgressBarInc_stub
                0x0000000000040274                msgDialogAbort_stub
                0x0000000000040278                msgDialogOpen2Ex_stub
                0x000000000004027c                msgDialogProgressBarReset_stub
                0x0000000000040280                msgDialogProgressBarSetMsg_stub
                0x0000000000040284                oskGetInputText_stub
                0x0000000000040288                oskSetInitialInputDevice_stub
                0x000000000004028c                oskGetSize_stub
                0x0000000000040290                oskUnloadAsync_stub
                0x0000000000040294                oskDisableDimmer_stub
                0x0000000000040298                oskSetKeyLayoutOption_stub
                0x000000000004029c                oskAbort_stub
                0x00000000000402a0                oskSetDeviceMask_stub
                0x00000000000402a4                oskSetSeparateWindowOption_stub
                0x00000000000402a8                oskAddSupportLanguage_stub
                0x00000000000402ac                oskLoadAsync_stub
                0x00000000000402b0                oskSetInitialKeyLayout_stub
                0x00000000000402b4                oskSetLayoutMode_stub
                0x00000000000402b8                sysUtilRegisterCallbackEx_stub
                0x00000000000402bc                sysUtilCheckCallback_stub
                0x00000000000402c0                sysUtilUnregisterCallback_stub
                0x00000000000402c4                sysSaveListLoad2Ex_stub
                0x00000000000402c8                sysSaveListSave2Ex_stub
                0x00000000000402cc                sysSaveListAutoLoadEx_stub
                0x00000000000402d0                sysSaveListAutoSaveEx_stub
                0x00000000000402d4                sysSaveFixedLoad2Ex_stub
                0x00000000000402d8                sysSaveFixedSave2Ex_stub
                0x00000000000402dc                sysSaveAutoLoad2Ex_stub
                0x00000000000402e0                sysSaveAutoSave2Ex_stub
                0x00000000000402e4                sysSaveDelete2_stub
                0x00000000000402e8                sysGameDataCheck_stub
                0x00000000000402ec                sysGameBootCheck_stub
                0x00000000000402f0                sysGamePatchCheck_stub
                0x00000000000402f4                sysGameCreateGameData_stub
                0x00000000000402f8                sysGameGetParamInt_stub
                0x00000000000402fc                sysGameGetParamString_stub
                0x0000000000040300                sysGameGetSizeKB_stub
                0x0000000000040304                sysGameSetParamString_stub
                0x0000000000040308                sysGameGetDiscContentInfoUpdatePath_stub
                0x000000000004030c                sysGameContentPermit_stub
                0x0000000000040310                sysGameContentErrorDialog_stub
                0x0000000000040314                sysGameThemeInstall_stub
                0x0000000000040318                sysGameThemeInstallFromBufferEx_stub
                0x000000000004031c                sysGameGetLocalWebContentPath_stub
                0x0000000000040320                sysGameDeleteGameData_stub
                0x0000000000040324                sysGameRegisterDiscChangeCallbackEx_stub
                0x0000000000040328                sysGameUnregisterDiscChangeCallback_stub
                0x000000000004032c                sysDiscRegisterDiscChangeCallbackEx_stub
                0x0000000000040330                sysDiscUnregisterDiscChangeCallback_stub
                0x0000000000040334                sysTrophyInit_stub
                0x0000000000040338                sysTrophyAbortHandle_stub
                0x000000000004033c                sysTrophyCreateContext_stub
                0x0000000000040340                sysTrophyCreateHandle_stub
                0x0000000000040344                sysTrophyDestroyContext_stub
                0x0000000000040348                sysTrophyDestroyHandle_stub
                0x000000000004034c                sysTrophyGetGameIcon_stub
                0x0000000000040350                sysTrophyGetGameInfo_stub
                0x0000000000040354                sysTrophyGetGameProgress_stub
                0x0000000000040358                sysTrophyGetRequiredDiskSpace_stub
                0x000000000004035c                sysTrophyGetTrophyIcon_stub
                0x0000000000040360                sysTrophyGetTrophyInfo_stub
                0x0000000000040364                sysTrophyGetTrophyUnlockState_stub
                0x0000000000040368                sysTrophyRegisterContextEx_stub
                0x000000000004036c                sysTrophySetSoundLevel_stub
                0x0000000000040370                sysTrophyTerm_stub
                0x0000000000040374                sysTrophyUnlockTrophy_stub
 .data.sceFStub.sysPrxForUser
                0x0000000000040378      0x1dc f:/PSDK3/psl1ght/ppu/lib\liblv2.a(sprx.o)
                0x0000000000040378                sysGetSystemTime_stub
                0x000000000004037c                sysGetSystemSwVersion_stub
                0x0000000000040380                sysGetTemperature_stub
                0x0000000000040384                sysGetRandomNumber_stub
                0x0000000000040388                sysGetRtcStatus_stub
                0x000000000004038c                sysBoardStorageRead_stub
                0x0000000000040390                sysBoardStorageWrite_stub
                0x0000000000040394                sysProcessIsStack_stub
                0x0000000000040398                sysProcessExit_stub
                0x000000000004039c                sysProcessExitspawn_stub
                0x00000000000403a0                sysProcessExitSpawn2Ex_stub
                0x00000000000403a4                sysProcessExitSpawnWithLevel_stub
                0x00000000000403a8                sysProcessAtExitSpawn_stub
                0x00000000000403ac                sysProcess_At_ExitSpawn_stub
                0x00000000000403b0                sysPrxRegisterLibrary_stub
                0x00000000000403b4                sysPrxUnregisterLibrary_stub
                0x00000000000403b8                sysPrxStartModule_stub
                0x00000000000403bc                sysPrxStopModule_stub
                0x00000000000403c0                sysPrxLoadModule_stub
                0x00000000000403c4                sysPrxLoadModuleByFd_stub
                0x00000000000403c8                sysPrxLoadModuleList_stub
                0x00000000000403cc                sysPrxLoadModuleListOnMemcontainer_stub
                0x00000000000403d0                sysPrxLoadModuleOnMemcontainer_stub
                0x00000000000403d4                sysPrxLoadModuleOnMemcontainerByFd_stub
                0x00000000000403d8                sysPrxGetModuleInfo_stub
                0x00000000000403dc                sysPrxGetModuleList_stub
                0x00000000000403e0                sysPrxGetModuleId_stub
                0x00000000000403e4                sysPrxGetModuleIdByAddress_stub
                0x00000000000403e8                sysPrxGetModuleIdByName_stub
                0x00000000000403ec                sysPrxUnloadModule_stub
                0x00000000000403f0                sysPrxExitSpawnWithLevel_stub
                0x00000000000403f4                sysThreadCreateEx_stub
                0x00000000000403f8                sysThreadExit_stub
                0x00000000000403fc                sysThreadGetId_stub
                0x0000000000040400                sysThreadOnce_stub
                0x0000000000040404                sysThreadInitialzeTLS_stub
                0x0000000000040408                sysThreadRegisterAtexit_stub
                0x000000000004040c                sysThreadUnregisterAtexit_stub
                0x0000000000040410                sysInterruptThreadDisestablish_stub
                0x0000000000040414                sysLwMutexCreate_stub
                0x0000000000040418                sysLwMutexDestroy_stub
                0x000000000004041c                sysLwMutexLock_stub
                0x0000000000040420                sysLwMutexTryLock_stub
                0x0000000000040424                sysLwMutexUnlock_stub
                0x0000000000040428                sysLwCondCreate_stub
                0x000000000004042c                sysLwCondWait_stub
                0x0000000000040430                sysLwCondSignal_stub
                0x0000000000040434                sysLwCondSignalTo_stub
                0x0000000000040438                sysLwCondSignalAll_stub
                0x000000000004043c                sysLwCondDestroy_stub
                0x0000000000040440                sysSpinlockInitialize_stub
                0x0000000000040444                sysSpinlockLock_stub
                0x0000000000040448                sysSpinlockTryLock_stub
                0x000000000004044c                sysSpinlockUnlock_stub
                0x0000000000040450                sysWatchdogClear_stub
                0x0000000000040454                sysWatchdogStart_stub
                0x0000000000040458                sysWatchdogStop_stub
                0x000000000004045c                sysMalloc_stub
                0x0000000000040460                sysMemalign_stub
                0x0000000000040464                sysMemchr_stub
                0x0000000000040468                sysMemcmp_stub
                0x000000000004046c                sysMemcpy_stub
                0x0000000000040470                sysMemmove_stub
                0x0000000000040474                sysMemset_stub
                0x0000000000040478                sysFree_stub
                0x000000000004047c                sysHeapAllocHeapMemory_stub
                0x0000000000040480                sysHeapCreateHeap_stub
                0x0000000000040484                sysHeapDeleteHeap_stub
                0x0000000000040488                sysHeapFree_stub
                0x000000000004048c                sysHeapGetMallInfo_stub
                0x0000000000040490                sysHeapGetTotalFreeSize_stub
                0x0000000000040494                sysHeapMalloc_stub
                0x0000000000040498                sysHeapMemalign_stub
                0x000000000004049c                sysHeapStats_stub
                0x00000000000404a0                sysQsort_stub
                0x00000000000404a4                sysMempoolCreate_stub
                0x00000000000404a8                sysMempoolDestroy_stub
                0x00000000000404ac                sysMempoolGetCount_stub
                0x00000000000404b0                sysMempoolAllocateBlock_stub
                0x00000000000404b4                sysMempoolTryAllocateBlock_stub
                0x00000000000404b8                sysMempoolFreeBlock_stub
                0x00000000000404bc                sysMMapperFreeMemory_stub
                0x00000000000404c0                sysMMapperMapMemory_stub
                0x00000000000404c4                sysMMapperUnmapMemory_stub
                0x00000000000404c8                sysMMapperAllocateMemory_stub
                0x00000000000404cc                sysMMapperAllocateMemoryFromContainer_stub
                0x00000000000404d0                sysStrlen_stub
                0x00000000000404d4                sysStrcpy_stub
                0x00000000000404d8                sysStrncpy_stub
                0x00000000000404dc                sysStrcat_stub
                0x00000000000404e0                sysStrncat_stub
                0x00000000000404e4                sysStrchr_stub
                0x00000000000404e8                sysStrrchr_stub
                0x00000000000404ec                sysStrcmp_stub
                0x00000000000404f0                sysStrncmp_stub
                0x00000000000404f4                sysStrncasecmp_stub
                0x00000000000404f8                sysToLower_stub
                0x00000000000404fc                sysToUpper_stub
                0x0000000000040500                sysSpuElfGetSegments_stub
                0x0000000000040504                sysSpuElfGetInformation_stub
                0x0000000000040508                sysSpuRawLoad_stub
                0x000000000004050c                sysSpuRawImageLoad_stub
                0x0000000000040510                sysSpuImageClose_stub
                0x0000000000040514                sysSpuImageImport_stub
                0x0000000000040518                sysSpuPrintfAttachGroup_stub
                0x000000000004051c                sysSpuPrintfAttachThread_stub
                0x0000000000040520                sysSpuPrintfDetachGroup_stub
                0x0000000000040524                sysSpuPrintfDetach_Tread_stub
                0x0000000000040528                sysSpuPrintfFinalize_stub
                0x000000000004052c                sysSpuPrintfInitialize_stub
                0x0000000000040530                sysConsoleGetc_stub
                0x0000000000040534                sysConsolePutc_stub
                0x0000000000040538                sysConsoleWrite_stub
                0x000000000004053c                sysPrintf_stub
                0x0000000000040540                sysSprintf_stub
                0x0000000000040544                sysSnprintf_stub
                0x0000000000040548                sysVprintf_stub
                0x000000000004054c                sysVsprintf_stub
                0x0000000000040550                sysVsnprintf_stub
 .data.sceFStub.sys_io
                0x0000000000040554       0xbc f:/PSDK3/psl1ght/ppu/lib\libio.a(sprx.o)
                0x0000000000040554                sys_config_start_stub
                0x0000000000040558                sys_config_stop_stub
                0x000000000004055c                sys_config_add_service_listener_stub
                0x0000000000040560                sys_config_remove_service_listener_stub
                0x0000000000040564                sys_config_register_service_stub
                0x0000000000040568                sys_config_unregister_service_stub
                0x000000000004056c                ioPadInit_stub
                0x0000000000040570                ioPadEnd_stub
                0x0000000000040574                ioPadClearBuf_stub
                0x0000000000040578                ioPadInfoPressMode_stub
                0x000000000004057c                ioPadLddRegisterController_stub
                0x0000000000040580                ioPadGetInfo_stub
                0x0000000000040584                ioPadGetRawData_stub
                0x0000000000040588                ioPadGetDataExtra_stub
                0x000000000004058c                ioPadInfoSensorMode_stub
                0x0000000000040590                ioPadGetData_stub
                0x0000000000040594                ioPadLddGetPortNo_stub
                0x0000000000040598                ioPadLddDataInsert_stub
                0x000000000004059c                ioPadSetSensorMode_stub
                0x00000000000405a0                ioPadGetCapabilityInfo_stub
                0x00000000000405a4                ioPadLddUnregisterController_stub
                0x00000000000405a8                ioPadSetActDirect_stub
                0x00000000000405ac                ioPadSetPressMode_stub
                0x00000000000405b0                ioPadPeriphGetInfo_stub
                0x00000000000405b4                ioPadSetPortSetting_stub
                0x00000000000405b8                ioPadPeriphGetData_stub
                0x00000000000405bc                ioPadGetInfo2_stub
                0x00000000000405c0                ioMouseInit_stub
                0x00000000000405c4                ioMouseEnd_stub
                0x00000000000405c8                ioMouseClearBuf_stub
                0x00000000000405cc                ioMouseGetInfo_stub
                0x00000000000405d0                ioMouseGetTabletDataList_stub
                0x00000000000405d4                ioMouseSetTabletMode_stub
                0x00000000000405d8                ioMouseGetData_stub
                0x00000000000405dc                ioMouseInfoTabletMode_stub
                0x00000000000405e0                ioMouseGetRawData_stub
                0x00000000000405e4                ioMouseGetDataList_stub
                0x00000000000405e8                ioKbInit_stub
                0x00000000000405ec                ioKbEnd_stub
                0x00000000000405f0                ioKbRead_stub
                0x00000000000405f4                ioKbSetReadMode_stub
                0x00000000000405f8                ioKbSetCodeType_stub
                0x00000000000405fc                ioKbCnvRawCode_stub
                0x0000000000040600                ioKbSetLEDStatus_stub
                0x0000000000040604                ioKbGetInfo_stub
                0x0000000000040608                ioKbGetConfiguration_stub
                0x000000000004060c                ioKbClearBuf_stub

.toc1
 *(.toc1)

.opd            0x0000000000040610     0x49c8
 *(.opd)
 .opd           0x0000000000040610       0x30 f:/psdk3/ps3dev/ppu/bin/../lib/gcc/powerpc64-ps3-elf/4.5.2/../../../../powerpc64-ps3-elf/lib/lv2-crti.o
                0x0000000000040610                _init
                0x0000000000040628                _fini
 .opd           0x0000000000040640       0x30 f:/psdk3/ps3dev/ppu/bin/../lib/gcc/powerpc64-ps3-elf/4.5.2/crtbegin.o
 .opd           0x0000000000040670       0x48 f:/psdk3/ps3dev/ppu/bin/../lib/gcc/powerpc64-ps3-elf/4.5.2/../../../../powerpc64-ps3-elf/lib/lv2-crt0.o
                0x00000000000406a0                _initialize
 .opd           0x00000000000406b8      0x108 main.o
                0x00000000000406b8                exiting
                0x00000000000406d0                DrawSquare
                0x00000000000406e8                DrawColorSquare
                0x0000000000040700                drawScene
                0x0000000000040718                Load_PNG
                0x0000000000040730                build_AYUV_32bits
                0x0000000000040748                build_Y_8bits
                0x0000000000040760                build_U_8bits
                0x0000000000040778                build_V_8bits
                0x0000000000040790                LoadTexture
                0x00000000000407a8                main
 .opd           0x00000000000407c0      0x1b0 f:/PSDK3/ps3dev/portlibs/ppu/lib\libfont.a(libfont.o)
                0x00000000000407d8                ResetFont
                0x00000000000407f0                AddFontFromBitmapArray
                0x0000000000040808                AddFontFromTTF
                0x0000000000040820                SetCurrentFont
                0x0000000000040838                SetFontSize
                0x0000000000040850                SetFontColor
                0x0000000000040868                SetFontTextureMethod
                0x0000000000040880                SetDoubleTextureModule
                0x0000000000040898                SetFontAutoCenter
                0x00000000000408b0                SetFontAutoNewLine
                0x00000000000408c8                SetFontZ
                0x00000000000408e0                GetFontX
                0x00000000000408f8                GetFontY
                0x0000000000040910                SetFontScreenLimits
                0x0000000000040928                DrawChar
                0x0000000000040940                DrawString
                0x0000000000040958                DrawFormatString
 .opd           0x0000000000040970      0x588 f:/PSDK3/ps3dev/portlibs/ppu/lib\libtiny3d.a(tiny3d.o)
                0x0000000000040a30                tiny3d_Exit
                0x0000000000040a48                tiny3d_alarm
                0x0000000000040a60                tiny3d_RecordList
                0x0000000000040a78                tiny3d_StopList
                0x0000000000040a90                tiny3d_FreeList
                0x0000000000040aa8                tiny3d_DynamicMatrixList
                0x0000000000040ac0                tiny3d_ApplyMatrixList
                0x0000000000040ad8                tiny3d_Init
                0x0000000000040af0                tiny3d_SetPolygon
                0x0000000000040b08                tiny3d_VertexPos
                0x0000000000040b20                tiny3d_VertexPos4
                0x0000000000040b38                tiny3d_VertexPosVector
                0x0000000000040b50                tiny3d_VertexColor
                0x0000000000040b68                tiny3d_VertexFcolor
                0x0000000000040b80                tiny3d_VertexTexture
                0x0000000000040b98                tiny3d_VertexTexture2
                0x0000000000040bb0                tiny3d_Normal
                0x0000000000040bc8                tiny3d_NormalVector
                0x0000000000040be0                tiny3d_End
                0x0000000000040bf8                tiny3d_SetMatrixModelView
                0x0000000000040c10                tiny3d_SetProjectionMatrix
                0x0000000000040c28                tiny3d_Flip
                0x0000000000040c40                tiny3d_UserViewport
                0x0000000000040c58                tiny3d_UserViewport2
                0x0000000000040c70                tiny3d_UserViewportSurface
                0x0000000000040c88                tiny3d_Project2D
                0x0000000000040ca0                tiny3d_Project3D
                0x0000000000040cb8                tiny3d_Clear
                0x0000000000040cd0                tiny3d_ClearSurface
                0x0000000000040ce8                tiny3d_AlphaTest
                0x0000000000040d00                tiny3d_BlendFunc
                0x0000000000040d18                tiny3d_SetTextureWrap
                0x0000000000040d30                tiny3d_SetTexture
                0x0000000000040d48                tiny3d_AllocTexture
                0x0000000000040d60                tiny3d_TextureOffset
                0x0000000000040d78                tiny3d_EmissiveMaterial
                0x0000000000040d90                tiny3d_AmbientMaterial
                0x0000000000040da8                tiny3d_DiffuseMaterial
                0x0000000000040dc0                tiny3d_SpecularMaterial
                0x0000000000040dd8                tiny3d_SetLightCameraPosition
                0x0000000000040df0                tiny3d_SetLight
                0x0000000000040e08                tiny3d_SetLightsOff
                0x0000000000040e20                tiny3d_SetAmbientLight
                0x0000000000040e38                tiny3d_SelMultiTexturesMethod
                0x0000000000040e50                tiny3d_DrawList
                0x0000000000040e68                tiny3d_MenuActive
                0x0000000000040e80                tiny3d_Enable_YUV
                0x0000000000040e98                tiny3d_Disable_YUV
                0x0000000000040eb0                tiny3d_Dirty_Status
                0x0000000000040ec8                tiny3d_Get_GCM_Context
                0x0000000000040ee0                tiny3d_DoCmd_Space
 .opd           0x0000000000040ef8      0x408 f:/PSDK3/ps3dev/portlibs/ppu/lib\libtiny3d.a(commands.o)
                0x0000000000040ef8                rsxtiny_MakeCmdSpace
                0x0000000000040f10                rsxtiny_SetReferenceCommand
                0x0000000000040f28                rsxtiny_SetWriteBackendLabel
                0x0000000000040f40                rsxtiny_SetWaitLabel
                0x0000000000040f58                rsxtiny_SetScissor
                0x0000000000040f70                rsxtiny_SetClearColor
                0x0000000000040f88                rsxtiny_SetClearDepthValue
                0x0000000000040fa0                rsxtiny_Nop
                0x0000000000040fb8                rsxtiny_ClearBuffers
                0x0000000000040fd0                rsxtiny_SetRenderSurface
                0x0000000000040fe8                rsxtiny_SelectRenderTarget
                0x0000000000041000                rsxtiny_Viewport
                0x0000000000041018                rsxtiny_ViewportClip
                0x0000000000041030                rsxtiny_VertexBegin
                0x0000000000041048                rsxtiny_VertexEnd
                0x0000000000041060                rsxtiny_Vertex4f
                0x0000000000041078                rsxtiny_TexCoord2f
                0x0000000000041090                rsxtiny_SetVertexProgramConstant4f
                0x00000000000410a8                rsxtiny_LoadVertexProgram
                0x00000000000410c0                rsxtiny_SetVertexProgramConstant4fBlock
                0x00000000000410d8                rsxtiny_InstallFragmentProgram
                0x00000000000410f0                rsxtiny_LoadFragmentProgram
                0x0000000000041108                rsxtiny_InvalidateTextureCache
                0x0000000000041120                rsxtiny_SetTexture
                0x0000000000041138                rsxtiny_ViewportTranslate
                0x0000000000041150                rsxtiny_ViewportScale
                0x0000000000041168                rsxtiny_CullFace
                0x0000000000041180                rsxtiny_FrontFace
                0x0000000000041198                rsxtiny_CullEnable
                0x00000000000411b0                rsxtiny_AlphaEnable
                0x00000000000411c8                rsxtiny_AlphaRef
                0x00000000000411e0                rsxtiny_AlphaFunc
                0x00000000000411f8                rsxtiny_BlendEnable
                0x0000000000041210                rsxtiny_BlendEquation
                0x0000000000041228                rsxtiny_BlendFunc
                0x0000000000041240                rsxtiny_ZControl
                0x0000000000041258                rsxtiny_BindVertexBufferAttribute
                0x0000000000041270                rsxtiny_VertexInvalidate
                0x0000000000041288                rsxtiny_DrawVertexBuffer
                0x00000000000412a0                rsxtiny_DrawVertexBufferIndex
                0x00000000000412b8                rsxtiny_DepthTestEnable
                0x00000000000412d0                rsxtiny_DepthTestFunc
                0x00000000000412e8                rsxtiny_DepthWriteEnable
 .opd           0x0000000000041300       0x48 f:/PSDK3/ps3dev/portlibs/ppu/lib\libtiny3d.a(glue.o)
                0x0000000000041300                rsxtiny_FlushBuffer
                0x0000000000041318                rsxtiny_Init
                0x0000000000041330                rsxtiny_AddressToOffset
 .opd           0x0000000000041348      0x168 f:/PSDK3/ps3dev/portlibs/ppu/lib\libtiny3d.a(matrix.o)
                0x0000000000041348                MatrixProjPerspective
                0x0000000000041360                MatrixVectorMultiply
                0x0000000000041378                MatrixVectorMultiply3x3
                0x0000000000041390                MatrixMultiply
                0x00000000000413a8                MatrixIdentity
                0x00000000000413c0                MatrixTranslation
                0x00000000000413d8                MatrixTranspose
                0x00000000000413f0                MatrixScale
                0x0000000000041408                MatrixRotationX
                0x0000000000041420                MatrixRotationY
                0x0000000000041438                MatrixRotationZ
                0x0000000000041450                MatrixRotationAxis
                0x0000000000041468                VectorToUnit
                0x0000000000041480                VectorNormalPlane
                0x0000000000041498                MakeLookAtMatrix
 .opd           0x00000000000414b0       0x30 f:/PSDK3/ps3dev/portlibs/ppu/lib\libtiny3d.a(mm.o)
                0x00000000000414b0                rsxtiny_MemAlign
                0x00000000000414c8                rsxtiny_Mem
 .opd           0x00000000000414e0       0xa8 f:/PSDK3/ps3dev/portlibs/ppu/lib\libtiny3d.a(realityVP.o)
                0x00000000000414e0                rsxtiny_VertexProgramGetUCode
                0x00000000000414f8                rsxtiny_VertexProgramGetInputMask
                0x0000000000041510                rsxtiny_VertexProgramGetOutputMask
                0x0000000000041528                rsxtiny_VertexProgramGetAttributes
                0x0000000000041540                rsxtiny_VertexProgramGetInputAttribute
                0x0000000000041558                rsxtiny_VertexProgramGetConstants
                0x0000000000041570                rsxtiny_VertexProgramGetConstant
 .opd           0x0000000000041588       0x78 f:/PSDK3/ps3dev/portlibs/ppu/lib\libtiny3d.a(rsxutil.o)
                0x0000000000041588                waitFlip
                0x00000000000415a0                flip
                0x00000000000415b8                init_screen
                0x00000000000415d0                setupRenderTarget
                0x00000000000415e8                setupRenderTarget2
 .opd           0x0000000000041600       0x30 f:/PSDK3/ps3dev/portlibs/ppu/lib\libtiny3d.a(buffer.o)
                0x0000000000041600                tiny_rsxContextCallback
                0x0000000000041618                commandBufferPut
 .opd           0x0000000000041630      0x858 f:/PSDK3/psl1ght/ppu/lib\libgcm_sys.a(sprx.o)
                0x0000000000041630                gcmInitBody
                0x0000000000041648                gcmSetDisplayBuffer
                0x0000000000041660                gcmGetControlRegister
                0x0000000000041678                gcmAddressToOffset
                0x0000000000041690                gcmGetConfiguration
                0x00000000000416a8                gcmGetCurrentField
                0x00000000000416c0                gcmSetFlipMode
                0x00000000000416d8                gcmGetFlipStatus
                0x00000000000416f0                gcmGetLastFlipTime
                0x0000000000041708                gcmGetVBlankCount
                0x0000000000041720                gcmSetWaitFlip
                0x0000000000041738                gcmSetFlipStatus
                0x0000000000041750                gcmResetFlipStatus
                0x0000000000041768                gcmSetFlip
                0x0000000000041780                gcmSetFlipImmediate
                0x0000000000041798                gcmFunc15
                0x00000000000417b0                gcmFunc3
                0x00000000000417c8                gcmFunc1
                0x00000000000417e0                gcmFunc2
                0x00000000000417f8                gcmFunc4
                0x0000000000041810                gcmFunc12
                0x0000000000041828                gcmFunc13
                0x0000000000041840                gcmGetReport
                0x0000000000041858                gcmSetTile
                0x0000000000041870                gcmBindTile
                0x0000000000041888                gcmUnbindTile
                0x00000000000418a0                gcmSetZcull
                0x00000000000418b8                gcmBindZcull
                0x00000000000418d0                gcmUnbindZcull
                0x00000000000418e8                gcmGetTimeStamp
                0x0000000000041900                gcmSetVBlankFrequency
                0x0000000000041918                gcmSetSecondVFrequency
                0x0000000000041930                gcmSetDebugOutputLevel
                0x0000000000041948                gcmGetLabelAddress
                0x0000000000041960                gcmSetVBlankHandlerEx
                0x0000000000041978                gcmSetFlipHandlerEx
                0x0000000000041990                gcmSetSecondVHandlerEx
                0x00000000000419a8                gcmSetGraphicsHandlerEx
                0x00000000000419c0                gcmTerminate
                0x00000000000419d8                gcmMapMainMemory
                0x00000000000419f0                gcmMapEaIoAddress
                0x0000000000041a08                gcmUnmapEaIoAddress
                0x0000000000041a20                gcmUnmapIoAddress
                0x0000000000041a38                gcmIoOffsetToAddress
                0x0000000000041a50                gcmSetDefaultCommandBuffer
                0x0000000000041a68                gcmSetTileInfo
                0x0000000000041a80                gcmGetTiledPitchSize
                0x0000000000041a98                gcmSetInvalidateTile
                0x0000000000041ab0                gcmSetUserCommandEx
                0x0000000000041ac8                gcmSetUserHandlerEx
                0x0000000000041ae0                gcmSetQueueHandlerEx
                0x0000000000041af8                gcmSetPrepareFlip
                0x0000000000041b10                gcmGetOffsetTable
                0x0000000000041b28                gcmGetLastSecondVTime
                0x0000000000041b40                gcmSortRemapEaIoAddress
                0x0000000000041b58                gcmGetDisplayBufferByFlipIndex
                0x0000000000041b70                gcmGcmGetDefaultCommandWordSize
                0x0000000000041b88                gcmGcmGetDefaultSegmentWordSize
                0x0000000000041ba0                gcmSetDefaultCommandBufferAndSegmentWordSize
                0x0000000000041bb8                gcmGetDisplayInfo
                0x0000000000041bd0                gcmDumpGraphicsError
                0x0000000000041be8                gcmFunc38
                0x0000000000041c00                gcmGetCurrentDisplayBufferId
                0x0000000000041c18                gcmGetDefaultCommandWordSize
                0x0000000000041c30                gcmGetDefaultSegmentWordSize
                0x0000000000041c48                gcmGetMaxIoMapSize
                0x0000000000041c60                gcmGetNotifyDataAddress
                0x0000000000041c78                gcmGetReportDataAddress
                0x0000000000041c90                gcmGetReportDataAddressLocation
                0x0000000000041ca8                gcmGetReportDataLocation
                0x0000000000041cc0                gcmGetTileInfo
                0x0000000000041cd8                gcmGetTimeStampLocation
                0x0000000000041cf0                gcmGetZcullInfo
                0x0000000000041d08                gcmInitCursor
                0x0000000000041d20                gcmInitDefaultFifoMode
                0x0000000000041d38                gcmInitSystemMode
                0x0000000000041d50                gcmMapEaIoAddressWithFlags
                0x0000000000041d68                gcmMapLocalMemory
                0x0000000000041d80                gcmReserveIoMapSize
                0x0000000000041d98                gcmSetCursorDisable
                0x0000000000041db0                gcmSetCursorEnable
                0x0000000000041dc8                gcmSetCursorImageOffset
                0x0000000000041de0                gcmSetCursorPosition
                0x0000000000041df8                gcmSetDefaultFifoSize
                0x0000000000041e10                gcmSetFlipCommand
                0x0000000000041e28                gcmSetFlipCommandWithWaitLabel
                0x0000000000041e40                gcmSysGetLastVBlankTime
                0x0000000000041e58                gcmUnreserveIoMapSize
                0x0000000000041e70                gcmUpdateCursor
 .opd           0x0000000000041e88      0x468 f:/PSDK3/psl1ght/ppu/lib\libio.a(sprx.o)
                0x0000000000041e88                sys_config_start
                0x0000000000041ea0                sys_config_stop
                0x0000000000041eb8                sys_config_add_service_listener
                0x0000000000041ed0                sys_config_remove_service_listener
                0x0000000000041ee8                sys_config_register_service
                0x0000000000041f00                sys_config_unregister_service
                0x0000000000041f18                ioPadInit
                0x0000000000041f30                ioPadEnd
                0x0000000000041f48                ioPadClearBuf
                0x0000000000041f60                ioPadInfoPressMode
                0x0000000000041f78                ioPadLddRegisterController
                0x0000000000041f90                ioPadGetInfo
                0x0000000000041fa8                ioPadGetRawData
                0x0000000000041fc0                ioPadGetDataExtra
                0x0000000000041fd8                ioPadInfoSensorMode
                0x0000000000041ff0                ioPadGetData
                0x0000000000042008                ioPadLddGetPortNo
                0x0000000000042020                ioPadLddDataInsert
                0x0000000000042038                ioPadSetSensorMode
                0x0000000000042050                ioPadGetCapabilityInfo
                0x0000000000042068                ioPadLddUnregisterController
                0x0000000000042080                ioPadSetActDirect
                0x0000000000042098                ioPadSetPressMode
                0x00000000000420b0                ioPadPeriphGetInfo
                0x00000000000420c8                ioPadSetPortSetting
                0x00000000000420e0                ioPadPeriphGetData
                0x00000000000420f8                ioPadGetInfo2
                0x0000000000042110                ioMouseInit
                0x0000000000042128                ioMouseEnd
                0x0000000000042140                ioMouseClearBuf
                0x0000000000042158                ioMouseGetInfo
                0x0000000000042170                ioMouseGetTabletDataList
                0x0000000000042188                ioMouseSetTabletMode
                0x00000000000421a0                ioMouseGetData
                0x00000000000421b8                ioMouseInfoTabletMode
                0x00000000000421d0                ioMouseGetRawData
                0x00000000000421e8                ioMouseGetDataList
                0x0000000000042200                ioKbInit
                0x0000000000042218                ioKbEnd
                0x0000000000042230                ioKbRead
                0x0000000000042248                ioKbSetReadMode
                0x0000000000042260                ioKbSetCodeType
                0x0000000000042278                ioKbCnvRawCode
                0x0000000000042290                ioKbSetLEDStatus
                0x00000000000422a8                ioKbGetInfo
                0x00000000000422c0                ioKbGetConfiguration
                0x00000000000422d8                ioKbClearBuf
 .opd           0x00000000000422f0      0x780 f:/PSDK3/psl1ght/ppu/lib\libsysutil.a(sprx.o)
                0x00000000000422f0                videoGetResolution
                0x0000000000042308                videoConfigure
                0x0000000000042320                videoGetState
                0x0000000000042338                videoGetDeviceInfo
                0x0000000000042350                videoGetConfiguration
                0x0000000000042368                videoGetResolutionAvailability
                0x0000000000042380                videoDebugSetMonitorType
                0x0000000000042398                videoRegisterCallbackEx
                0x00000000000423b0                videoUnregisterCallback
                0x00000000000423c8                videoGetNumberOfDevice
                0x00000000000423e0                videoGetConvertCursorColorInfo
                0x00000000000423f8                msgDialogClose
                0x0000000000042410                msgDialogOpenErrorCodeEx
                0x0000000000042428                msgDialogOpenEx
                0x0000000000042440                msgDialogProgressBarInc
                0x0000000000042458                msgDialogAbort
                0x0000000000042470                msgDialogOpen2Ex
                0x0000000000042488                msgDialogProgressBarReset
                0x00000000000424a0                msgDialogProgressBarSetMsg
                0x00000000000424b8                oskGetInputText
                0x00000000000424d0                oskSetInitialInputDevice
                0x00000000000424e8                oskGetSize
                0x0000000000042500                oskUnloadAsync
                0x0000000000042518                oskDisableDimmer
                0x0000000000042530                oskSetKeyLayoutOption
                0x0000000000042548                oskAbort
                0x0000000000042560                oskSetDeviceMask
                0x0000000000042578                oskSetSeparateWindowOption
                0x0000000000042590                oskAddSupportLanguage
                0x00000000000425a8                oskLoadAsync
                0x00000000000425c0                oskSetInitialKeyLayout
                0x00000000000425d8                oskSetLayoutMode
                0x00000000000425f0                sysUtilRegisterCallbackEx
                0x0000000000042608                sysUtilCheckCallback
                0x0000000000042620                sysUtilUnregisterCallback
                0x0000000000042638                sysSaveListLoad2Ex
                0x0000000000042650                sysSaveListSave2Ex
                0x0000000000042668                sysSaveListAutoLoadEx
                0x0000000000042680                sysSaveListAutoSaveEx
                0x0000000000042698                sysSaveFixedLoad2Ex
                0x00000000000426b0                sysSaveFixedSave2Ex
                0x00000000000426c8                sysSaveAutoLoad2Ex
                0x00000000000426e0                sysSaveAutoSave2Ex
                0x00000000000426f8                sysSaveDelete2
                0x0000000000042710                sysGameDataCheck
                0x0000000000042728                sysGameBootCheck
                0x0000000000042740                sysGamePatchCheck
                0x0000000000042758                sysGameCreateGameData
                0x0000000000042770                sysGameGetParamInt
                0x0000000000042788                sysGameGetParamString
                0x00000000000427a0                sysGameGetSizeKB
                0x00000000000427b8                sysGameSetParamString
                0x00000000000427d0                sysGameGetDiscContentInfoUpdatePath
                0x00000000000427e8                sysGameContentPermit
                0x0000000000042800                sysGameContentErrorDialog
                0x0000000000042818                sysGameThemeInstall
                0x0000000000042830                sysGameThemeInstallFromBufferEx
                0x0000000000042848                sysGameGetLocalWebContentPath
                0x0000000000042860                sysGameDeleteGameData
                0x0000000000042878                sysGameRegisterDiscChangeCallbackEx
                0x0000000000042890                sysGameUnregisterDiscChangeCallback
                0x00000000000428a8                sysDiscRegisterDiscChangeCallbackEx
                0x00000000000428c0                sysDiscUnregisterDiscChangeCallback
                0x00000000000428d8                sysTrophyInit
                0x00000000000428f0                sysTrophyAbortHandle
                0x0000000000042908                sysTrophyCreateContext
                0x0000000000042920                sysTrophyCreateHandle
                0x0000000000042938                sysTrophyDestroyContext
                0x0000000000042950                sysTrophyDestroyHandle
                0x0000000000042968                sysTrophyGetGameIcon
                0x0000000000042980                sysTrophyGetGameInfo
                0x0000000000042998                sysTrophyGetGameProgress
                0x00000000000429b0                sysTrophyGetRequiredDiskSpace
                0x00000000000429c8                sysTrophyGetTrophyIcon
                0x00000000000429e0                sysTrophyGetTrophyInfo
                0x00000000000429f8                sysTrophyGetTrophyUnlockState
                0x0000000000042a10                sysTrophyRegisterContextEx
                0x0000000000042a28                sysTrophySetSoundLevel
                0x0000000000042a40                sysTrophyTerm
                0x0000000000042a58                sysTrophyUnlockTrophy
 .opd           0x0000000000042a70      0x168 f:/PSDK3/psl1ght/ppu/lib\libsysutil.a(sysutil_wrapper.o)
                0x0000000000042a70                sysUtilRegisterCallback
                0x0000000000042a88                msgDialogOpen
                0x0000000000042aa0                msgDialogOpen2
                0x0000000000042ab8                msgDialogOpenErrorCode
                0x0000000000042ad0                sysSaveListLoad2
                0x0000000000042ae8                sysSaveListSave2
                0x0000000000042b00                sysSaveListAutoLoad
                0x0000000000042b18                sysSaveListAutoSave
                0x0000000000042b30                sysSaveFixedLoad2
                0x0000000000042b48                sysSaveFixedSave2
                0x0000000000042b60                sysSaveAutoLoad2
                0x0000000000042b78                sysSaveAutoSave2
                0x0000000000042b90                sysGameThemeInstallFromBuffer
                0x0000000000042ba8                sysGameDiscRegisterDiscChangeCallback
                0x0000000000042bc0                sysDiscRegisterDiscChangeCallback
 .opd           0x0000000000042bd8       0x48 f:/PSDK3/psl1ght/ppu/lib\librt.a(sbrk.o)
                0x0000000000042c08                __librt_sbrk_r
 .opd           0x0000000000042c20       0x18 f:/PSDK3/psl1ght/ppu/lib\librt.a(exit.o)
                0x0000000000042c20                __librt_exit
 .opd           0x0000000000042c38       0x18 f:/PSDK3/psl1ght/ppu/lib\librt.a(close.o)
                0x0000000000042c38                __librt_close_r
 .opd           0x0000000000042c50       0x30 f:/PSDK3/psl1ght/ppu/lib\librt.a(lseek.o)
                0x0000000000042c50                __librt_lseek_r
                0x0000000000042c68                __librt_lseek64_r
 .opd           0x0000000000042c80       0x18 f:/PSDK3/psl1ght/ppu/lib\librt.a(read.o)
                0x0000000000042c80                __librt_read_r
 .opd           0x0000000000042c98       0x18 f:/PSDK3/psl1ght/ppu/lib\librt.a(open.o)
                0x0000000000042c98                __librt_open_r
 .opd           0x0000000000042cb0       0x30 f:/PSDK3/psl1ght/ppu/lib\librt.a(sleep.o)
                0x0000000000042cb0                __librt_usleep_r
                0x0000000000042cc8                __librt_sleep_r
 .opd           0x0000000000042ce0       0x18 f:/PSDK3/psl1ght/ppu/lib\librt.a(write.o)
                0x0000000000042ce0                __librt_write_r
 .opd           0x0000000000042cf8       0x60 f:/PSDK3/psl1ght/ppu/lib\librt.a(fstat.o)
                0x0000000000042cf8                __librt_fstat_r
                0x0000000000042d10                __librt_fstat64_r
                0x0000000000042d28                __librt_stat_r
                0x0000000000042d40                __librt_stat64_r
 .opd           0x0000000000042d58      0x150 f:/PSDK3/psl1ght/ppu/lib\librt.a(socket.o)
                0x0000000000042d58                accept
                0x0000000000042d70                bind
                0x0000000000042d88                connect
                0x0000000000042da0                listen
                0x0000000000042db8                socket
                0x0000000000042dd0                send
                0x0000000000042de8                sendto
                0x0000000000042e00                recv
                0x0000000000042e18                recvfrom
                0x0000000000042e30                shutdown
                0x0000000000042e48                inet_aton
                0x0000000000042e60                inet_pton
                0x0000000000042e78                select
                0x0000000000042e90                closesocket
 .opd           0x0000000000042ea8       0x78 f:/PSDK3/psl1ght/ppu/lib\librt.a(lock.o)
                0x0000000000042ea8                __librt_sys_lwmutex_create_r
                0x0000000000042ec0                __librt_sys_lwmutex_destroy_r
                0x0000000000042ed8                __librt_sys_lwmutex_lock_r
                0x0000000000042ef0                __librt_sys_lwmutex_trylock_r
                0x0000000000042f08                __librt_sys_lwmutex_unlock_r
 .opd           0x0000000000042f20       0xc0 f:/PSDK3/psl1ght/ppu/lib\librt.a(dirent.o)
                0x0000000000042f38                __librt_opendir_r
                0x0000000000042f50                __librt_readdir_r
                0x0000000000042f68                __librt_readdir_r_r
                0x0000000000042f80                __librt_closedir_r
                0x0000000000042f98                __librt_telldir_r
                0x0000000000042fb0                __librt_rewinddir_r
                0x0000000000042fc8                __librt_seekdir_r
 .opd           0x0000000000042fe0       0x18 f:/PSDK3/psl1ght/ppu/lib\librt.a(mkdir.o)
                0x0000000000042fe0                __librt_mkdir_r
 .opd           0x0000000000042ff8       0x18 f:/PSDK3/psl1ght/ppu/lib\librt.a(times.o)
                0x0000000000042ff8                __librt_times_r
 .opd           0x0000000000043010       0x18 f:/PSDK3/psl1ght/ppu/lib\librt.a(umask.o)
                0x0000000000043010                __librt_umask_r
 .opd           0x0000000000043028       0x48 f:/PSDK3/psl1ght/ppu/lib\librt.a(lv2errno.o)
                0x0000000000043028                lv2error
                0x0000000000043040                lv2errno
                0x0000000000043058                lv2errno_r
 .opd           0x0000000000043070       0x60 f:/PSDK3/psl1ght/ppu/lib\librt.a(heap.o)
                0x0000000000043070                heapInit
                0x0000000000043088                heapAllocate
                0x00000000000430a0                heapAllocateAligned
                0x00000000000430b8                heapFree
 .opd           0x00000000000430d0       0x18 f:/PSDK3/psl1ght/ppu/lib\librt.a(chmod.o)
                0x00000000000430d0                __librt_chmod_r
 .opd           0x00000000000430e8       0x18 f:/PSDK3/psl1ght/ppu/lib\librt.a(rmdir.o)
                0x00000000000430e8                __librt_rmdir_r
 .opd           0x0000000000043100       0x18 f:/PSDK3/psl1ght/ppu/lib\librt.a(isatty.o)
                0x0000000000043100                __librt_isatty_r
 .opd           0x0000000000043118       0x18 f:/PSDK3/psl1ght/ppu/lib\librt.a(gettod.o)
                0x0000000000043118                __librt_gettod_r
 .opd           0x0000000000043130       0x18 f:/PSDK3/psl1ght/ppu/lib\librt.a(settod.o)
                0x0000000000043130                __librt_settod_r
 .opd           0x0000000000043148      0xb28 f:/PSDK3/psl1ght/ppu/lib\liblv2.a(sprx.o)
                0x0000000000043148                sysGetSystemTime
                0x0000000000043160                sysGetSystemSwVersion
                0x0000000000043178                sysGetTemperature
                0x0000000000043190                sysGetRandomNumber
                0x00000000000431a8                sysGetRtcStatus
                0x00000000000431c0                sysBoardStorageRead
                0x00000000000431d8                sysBoardStorageWrite
                0x00000000000431f0                sysProcessIsStack
                0x0000000000043208                sysProcessExit
                0x0000000000043220                sysProcessExitspawn
                0x0000000000043238                sysProcessExitSpawn2Ex
                0x0000000000043250                sysProcessExitSpawnWithLevel
                0x0000000000043268                sysProcessAtExitSpawn
                0x0000000000043280                sysProcess_At_ExitSpawn
                0x0000000000043298                sysPrxRegisterLibrary
                0x00000000000432b0                sysPrxUnregisterLibrary
                0x00000000000432c8                sysPrxStartModule
                0x00000000000432e0                sysPrxStopModule
                0x00000000000432f8                sysPrxLoadModule
                0x0000000000043310                sysPrxLoadModuleByFd
                0x0000000000043328                sysPrxLoadModuleList
                0x0000000000043340                sysPrxLoadModuleListOnMemcontainer
                0x0000000000043358                sysPrxLoadModuleOnMemcontainer
                0x0000000000043370                sysPrxLoadModuleOnMemcontainerByFd
                0x0000000000043388                sysPrxGetModuleInfo
                0x00000000000433a0                sysPrxGetModuleList
                0x00000000000433b8                sysPrxGetModuleId
                0x00000000000433d0                sysPrxGetModuleIdByAddress
                0x00000000000433e8                sysPrxGetModuleIdByName
                0x0000000000043400                sysPrxUnloadModule
                0x0000000000043418                sysPrxExitSpawnWithLevel
                0x0000000000043430                sysThreadCreateEx
                0x0000000000043448                sysThreadExit
                0x0000000000043460                sysThreadGetId
                0x0000000000043478                sysThreadOnce
                0x0000000000043490                sysThreadInitialzeTLS
                0x00000000000434a8                sysThreadRegisterAtexit
                0x00000000000434c0                sysThreadUnregisterAtexit
                0x00000000000434d8                sysInterruptThreadDisestablish
                0x00000000000434f0                sysLwMutexCreate
                0x0000000000043508                sysLwMutexDestroy
                0x0000000000043520                sysLwMutexLock
                0x0000000000043538                sysLwMutexTryLock
                0x0000000000043550                sysLwMutexUnlock
                0x0000000000043568                sysLwCondCreate
                0x0000000000043580                sysLwCondWait
                0x0000000000043598                sysLwCondSignal
                0x00000000000435b0                sysLwCondSignalTo
                0x00000000000435c8                sysLwCondSignalAll
                0x00000000000435e0                sysLwCondDestroy
                0x00000000000435f8                sysSpinlockInitialize
                0x0000000000043610                sysSpinlockLock
                0x0000000000043628                sysSpinlockTryLock
                0x0000000000043640                sysSpinlockUnlock
                0x0000000000043658                sysWatchdogClear
                0x0000000000043670                sysWatchdogStart
                0x0000000000043688                sysWatchdogStop
                0x00000000000436a0                sysMalloc
                0x00000000000436b8                sysMemalign
                0x00000000000436d0                sysMemchr
                0x00000000000436e8                sysMemcmp
                0x0000000000043700                sysMemcpy
                0x0000000000043718                sysMemmove
                0x0000000000043730                sysMemset
                0x0000000000043748                sysFree
                0x0000000000043760                sysHeapAllocHeapMemory
                0x0000000000043778                sysHeapCreateHeap
                0x0000000000043790                sysHeapDeleteHeap
                0x00000000000437a8                sysHeapFree
                0x00000000000437c0                sysHeapGetMallInfo
                0x00000000000437d8                sysHeapGetTotalFreeSize
                0x00000000000437f0                sysHeapMalloc
                0x0000000000043808                sysHeapMemalign
                0x0000000000043820                sysHeapStats
                0x0000000000043838                sysQsort
                0x0000000000043850                sysMempoolCreate
                0x0000000000043868                sysMempoolDestroy
                0x0000000000043880                sysMempoolGetCount
                0x0000000000043898                sysMempoolAllocateBlock
                0x00000000000438b0                sysMempoolTryAllocateBlock
                0x00000000000438c8                sysMempoolFreeBlock
                0x00000000000438e0                sysMMapperFreeMemory
                0x00000000000438f8                sysMMapperMapMemory
                0x0000000000043910                sysMMapperUnmapMemory
                0x0000000000043928                sysMMapperAllocateMemory
                0x0000000000043940                sysMMapperAllocateMemoryFromContainer
                0x0000000000043958                sysStrlen
                0x0000000000043970                sysStrcpy
                0x0000000000043988                sysStrncpy
                0x00000000000439a0                sysStrcat
                0x00000000000439b8                sysStrncat
                0x00000000000439d0                sysStrchr
                0x00000000000439e8                sysStrrchr
                0x0000000000043a00                sysStrcmp
                0x0000000000043a18                sysStrncmp
                0x0000000000043a30                sysStrncasecmp
                0x0000000000043a48                sysToLower
                0x0000000000043a60                sysToUpper
                0x0000000000043a78                sysSpuElfGetSegments
                0x0000000000043a90                sysSpuElfGetInformation
                0x0000000000043aa8                sysSpuRawLoad
                0x0000000000043ac0                sysSpuRawImageLoad
                0x0000000000043ad8                sysSpuImageClose
                0x0000000000043af0                sysSpuImageImport
                0x0000000000043b08                sysSpuPrintfAttachGroup
                0x0000000000043b20                sysSpuPrintfAttachThread
                0x0000000000043b38                sysSpuPrintfDetachGroup
                0x0000000000043b50                sysSpuPrintfDetach_Tread
                0x0000000000043b68                sysSpuPrintfFinalize
                0x0000000000043b80                sysSpuPrintfInitialize
                0x0000000000043b98                sysConsoleGetc
                0x0000000000043bb0                sysConsolePutc
                0x0000000000043bc8                sysConsoleWrite
                0x0000000000043be0                sysPrintf
                0x0000000000043bf8                sysSprintf
                0x0000000000043c10                sysSnprintf
                0x0000000000043c28                sysVprintf
                0x0000000000043c40                sysVsprintf
                0x0000000000043c58                sysVsnprintf
 .opd           0x0000000000043c70       0x78 f:/PSDK3/psl1ght/ppu/lib\libpngdec.a(pngdec.o)
                0x0000000000043cb8                pngLoadFromFile
                0x0000000000043cd0                pngLoadFromBuffer
 .opd           0x0000000000043ce8      0x2b8 f:/PSDK3/psl1ght/ppu/lib\libpngdec.a(sprx.o)
                0x0000000000043ce8                pngDecCreate
                0x0000000000043d00                pngDecDestroy
                0x0000000000043d18                pngDecOpen
                0x0000000000043d30                pngDecClose
                0x0000000000043d48                pngDecReadHeader
                0x0000000000043d60                pngDecDecodeData
                0x0000000000043d78                pngDecSetParameter
                0x0000000000043d90                pngDecExtCreate
                0x0000000000043da8                pngDecExtOpen
                0x0000000000043dc0                pngDecExtReadHeader
                0x0000000000043dd8                pngDecExtDecodeData
                0x0000000000043df0                pngDecExtSetParameter
                0x0000000000043e08                pngDecGetbKGD
                0x0000000000043e20                pngDecGetcHRM
                0x0000000000043e38                pngDecGetgAMA
                0x0000000000043e50                pngDecGethIST
                0x0000000000043e68                pngDecGetiCCP
                0x0000000000043e80                pngDecGetoFFs
                0x0000000000043e98                pngDecGetpCAL
                0x0000000000043eb0                pngDecGetpHYs
                0x0000000000043ec8                pngDecGetsBIT
                0x0000000000043ee0                pngDecGetsCAL
                0x0000000000043ef8                pngDecGetsPLT
                0x0000000000043f10                pngDecGetsRGB
                0x0000000000043f28                pngDecGettIME
                0x0000000000043f40                pngDecGettRNS
                0x0000000000043f58                pngDecGetPLTE
                0x0000000000043f70                pngDecUnknownChunks
                0x0000000000043f88                pngDecGetTextChunk
 .opd           0x0000000000043fa0       0xc0 f:/PSDK3/psl1ght/ppu/lib\libsysmodule.a(sprx.o)
                0x0000000000043fa0                sysModuleInitialize
                0x0000000000043fb8                sysModuleFinalize
                0x0000000000043fd0                sysModuleLoad
                0x0000000000043fe8                sysModuleUnload
                0x0000000000044000                sysModuleIsLoaded
                0x0000000000044018                sysModuleGetImagesize
                0x0000000000044030                sysModuleFetchImage
                0x0000000000044048                sysModuleSetMemcontainer
 .opd           0x0000000000044060       0x18 f:/psdk3/ps3dev/ppu/bin/../lib/gcc/powerpc64-ps3-elf/4.5.2/../../../../powerpc64-ps3-elf/lib\libm.a(lib_a-s_sqrt.o)
                0x0000000000044060                sqrt
 .opd           0x0000000000044078       0x18 f:/psdk3/ps3dev/ppu/bin/../lib/gcc/powerpc64-ps3-elf/4.5.2/../../../../powerpc64-ps3-elf/lib\libm.a(lib_a-sf_cos.o)
                0x0000000000044078                cosf
 .opd           0x0000000000044090       0x18 f:/psdk3/ps3dev/ppu/bin/../lib/gcc/powerpc64-ps3-elf/4.5.2/../../../../powerpc64-ps3-elf/lib\libm.a(lib_a-sf_sin.o)
                0x0000000000044090                sinf
 .opd           0x00000000000440a8       0x18 f:/psdk3/ps3dev/ppu/bin/../lib/gcc/powerpc64-ps3-elf/4.5.2/../../../../powerpc64-ps3-elf/lib\libm.a(lib_a-sf_sine.o)
                0x00000000000440a8                sinef
 .opd           0x00000000000440c0       0x18 f:/psdk3/ps3dev/ppu/bin/../lib/gcc/powerpc64-ps3-elf/4.5.2/../../../../powerpc64-ps3-elf/lib\libm.a(lib_a-sf_sqrt.o)
                0x00000000000440c0                sqrtf
 .opd           0x00000000000440d8       0x18 f:/psdk3/ps3dev/ppu/bin/../lib/gcc/powerpc64-ps3-elf/4.5.2/../../../../powerpc64-ps3-elf/lib\libm.a(lib_a-sf_tan.o)
                0x00000000000440d8                tanf
 .opd           0x00000000000440f0       0x18 f:/psdk3/ps3dev/ppu/bin/../lib/gcc/powerpc64-ps3-elf/4.5.2/../../../../powerpc64-ps3-elf/lib\libm.a(lib_a-s_frexp.o)
                0x00000000000440f0                frexp
 .opd           0x0000000000044108       0x18 f:/psdk3/ps3dev/ppu/bin/../lib/gcc/powerpc64-ps3-elf/4.5.2/../../../../powerpc64-ps3-elf/lib\libm.a(lib_a-s_ispos.o)
                0x0000000000044108                ispos
 .opd           0x0000000000044120       0x18 f:/psdk3/ps3dev/ppu/bin/../lib/gcc/powerpc64-ps3-elf/4.5.2/../../../../powerpc64-ps3-elf/lib\libm.a(lib_a-s_ldexp.o)
                0x0000000000044120                ldexp
 .opd           0x0000000000044138       0x18 f:/psdk3/ps3dev/ppu/bin/../lib/gcc/powerpc64-ps3-elf/4.5.2/../../../../powerpc64-ps3-elf/lib\libm.a(lib_a-s_numtest.o)
                0x0000000000044138                numtest
 .opd           0x0000000000044150       0x18 f:/psdk3/ps3dev/ppu/bin/../lib/gcc/powerpc64-ps3-elf/4.5.2/../../../../powerpc64-ps3-elf/lib\libm.a(lib_a-sf_fabs.o)
                0x0000000000044150                fabsf
 .opd           0x0000000000044168       0x18 f:/psdk3/ps3dev/ppu/bin/../lib/gcc/powerpc64-ps3-elf/4.5.2/../../../../powerpc64-ps3-elf/lib\libm.a(lib_a-sf_frexp.o)
                0x0000000000044168                frexpf
 .opd           0x0000000000044180       0x18 f:/psdk3/ps3dev/ppu/bin/../lib/gcc/powerpc64-ps3-elf/4.5.2/../../../../powerpc64-ps3-elf/lib\libm.a(lib_a-sf_ispos.o)
                0x0000000000044180                isposf
 .opd           0x0000000000044198       0x18 f:/psdk3/ps3dev/ppu/bin/../lib/gcc/powerpc64-ps3-elf/4.5.2/../../../../powerpc64-ps3-elf/lib\libm.a(lib_a-sf_ldexp.o)
                0x0000000000044198                ldexpf
 .opd           0x00000000000441b0       0x18 f:/psdk3/ps3dev/ppu/bin/../lib/gcc/powerpc64-ps3-elf/4.5.2/../../../../powerpc64-ps3-elf/lib\libm.a(lib_a-sf_numtest.o)
                0x00000000000441b0                numtestf
 .opd           0x00000000000441c8       0x30 f:/psdk3/ps3dev/ppu/bin/../lib/gcc/powerpc64-ps3-elf/4.5.2/../../../../powerpc64-ps3-elf/lib\libsysbase.a(sleep.o)
                0x00000000000441c8                usleep
                0x00000000000441e0                sleep
 .opd           0x00000000000441f8       0x18 f:/psdk3/ps3dev/ppu/bin/../lib/gcc/powerpc64-ps3-elf/4.5.2/../../../../powerpc64-ps3-elf/lib\libc.a(lib_a-atexit.o)
                0x00000000000441f8                atexit
 .opd           0x0000000000044210       0x18 f:/psdk3/ps3dev/ppu/bin/../lib/gcc/powerpc64-ps3-elf/4.5.2/../../../../powerpc64-ps3-elf/lib\libc.a(lib_a-errno.o)
                0x0000000000044210                __errno
 .opd           0x0000000000044228       0x18 f:/psdk3/ps3dev/ppu/bin/../lib/gcc/powerpc64-ps3-elf/4.5.2/../../../../powerpc64-ps3-elf/lib\libc.a(lib_a-exit.o)
                0x0000000000044228                exit
 .opd           0x0000000000044240       0x18 f:/psdk3/ps3dev/ppu/bin/../lib/gcc/powerpc64-ps3-elf/4.5.2/../../../../powerpc64-ps3-elf/lib\libc.a(lib_a-getreent.o)
                0x0000000000044240                __getreent
 .opd           0x0000000000044258       0x18 f:/psdk3/ps3dev/ppu/bin/../lib/gcc/powerpc64-ps3-elf/4.5.2/../../../../powerpc64-ps3-elf/lib\libc.a(lib_a-malign.o)
                0x0000000000044258                memalign
 .opd           0x0000000000044270       0x18 f:/psdk3/ps3dev/ppu/bin/../lib/gcc/powerpc64-ps3-elf/4.5.2/../../../../powerpc64-ps3-elf/lib\libc.a(lib_a-malignr.o)
                0x0000000000044270                _memalign_r
 .opd           0x0000000000044288       0x30 f:/psdk3/ps3dev/ppu/bin/../lib/gcc/powerpc64-ps3-elf/4.5.2/../../../../powerpc64-ps3-elf/lib\libc.a(lib_a-malloc.o)
                0x0000000000044288                malloc
                0x00000000000442a0                free
 .opd           0x00000000000442b8       0x18 f:/psdk3/ps3dev/ppu/bin/../lib/gcc/powerpc64-ps3-elf/4.5.2/../../../../powerpc64-ps3-elf/lib\libc.a(lib_a-mallocr.o)
                0x00000000000442b8                _malloc_r
 .opd           0x00000000000442d0       0x18 f:/psdk3/ps3dev/ppu/bin/../lib/gcc/powerpc64-ps3-elf/4.5.2/../../../../powerpc64-ps3-elf/lib\libc.a(lib_a-memcpy.o)
                0x00000000000442d0                memcpy
 .opd           0x00000000000442e8       0x18 f:/psdk3/ps3dev/ppu/bin/../lib/gcc/powerpc64-ps3-elf/4.5.2/../../../../powerpc64-ps3-elf/lib\libc.a(lib_a-memset.o)
                0x00000000000442e8                memset
 .opd           0x0000000000044300       0x30 f:/psdk3/ps3dev/ppu/bin/../lib/gcc/powerpc64-ps3-elf/4.5.2/../../../../powerpc64-ps3-elf/lib\libc.a(lib_a-mlock.o)
                0x0000000000044300                __malloc_lock
                0x0000000000044318                __malloc_unlock
 .opd           0x0000000000044330       0x30 f:/psdk3/ps3dev/ppu/bin/../lib/gcc/powerpc64-ps3-elf/4.5.2/../../../../powerpc64-ps3-elf/lib\libc.a(lib_a-sscanf.o)
                0x0000000000044330                sscanf
                0x0000000000044348                _sscanf_r
 .opd           0x0000000000044360       0x78 f:/psdk3/ps3dev/ppu/bin/../lib/gcc/powerpc64-ps3-elf/4.5.2/../../../../powerpc64-ps3-elf/lib\libc.a(lib_a-stdio.o)
                0x0000000000044360                __sread
                0x0000000000044378                __seofread
                0x0000000000044390                __swrite
                0x00000000000443a8                __sseek
                0x00000000000443c0                __sclose
 .opd           0x00000000000443d8       0x18 f:/psdk3/ps3dev/ppu/bin/../lib/gcc/powerpc64-ps3-elf/4.5.2/../../../../powerpc64-ps3-elf/lib\libc.a(lib_a-strcasecmp.o)
                0x00000000000443d8                strcasecmp
 .opd           0x00000000000443f0       0x18 f:/psdk3/ps3dev/ppu/bin/../lib/gcc/powerpc64-ps3-elf/4.5.2/../../../../powerpc64-ps3-elf/lib\libc.a(lib_a-strlen.o)
                0x00000000000443f0                strlen
 .opd           0x0000000000044408       0x18 f:/psdk3/ps3dev/ppu/bin/../lib/gcc/powerpc64-ps3-elf/4.5.2/../../../../powerpc64-ps3-elf/lib\libc.a(lib_a-strncpy.o)
                0x0000000000044408                strncpy
 .opd           0x0000000000044420       0x18 f:/psdk3/ps3dev/ppu/bin/../lib/gcc/powerpc64-ps3-elf/4.5.2/../../../../powerpc64-ps3-elf/lib\libc.a(lib_a-svfscanf.o)
                0x0000000000044420                __ssvfscanf_r
 .opd           0x0000000000044438       0x30 f:/psdk3/ps3dev/ppu/bin/../lib/gcc/powerpc64-ps3-elf/4.5.2/../../../../powerpc64-ps3-elf/lib\libc.a(lib_a-vsprintf.o)
                0x0000000000044438                _vsprintf_r
                0x0000000000044450                vsprintf
 .opd           0x0000000000044468       0x18 f:/psdk3/ps3dev/ppu/bin/../lib/gcc/powerpc64-ps3-elf/4.5.2/../../../../powerpc64-ps3-elf/lib\libc.a(lib_a-__atexit.o)
                0x0000000000044468                __register_exitproc
 .opd           0x0000000000044480       0x18 f:/psdk3/ps3dev/ppu/bin/../lib/gcc/powerpc64-ps3-elf/4.5.2/../../../../powerpc64-ps3-elf/lib\libc.a(lib_a-__call_atexit.o)
                0x0000000000044480                __call_exitprocs
 .opd           0x0000000000044498      0x138 f:/psdk3/ps3dev/ppu/bin/../lib/gcc/powerpc64-ps3-elf/4.5.2/../../../../powerpc64-ps3-elf/lib\libc.a(lib_a-findfp.o)
                0x0000000000044498                _cleanup_r
                0x00000000000444e0                __sfmoreglue
                0x00000000000444f8                _cleanup
                0x0000000000044510                __sfp_lock_acquire
                0x0000000000044528                __sfp_lock_release
                0x0000000000044540                __sinit_lock_acquire
                0x0000000000044558                __sinit_lock_release
                0x0000000000044570                __sinit
                0x0000000000044588                __sfp
                0x00000000000445a0                __fp_lock_all
                0x00000000000445b8                __fp_unlock_all
 .opd           0x00000000000445d0       0x30 f:/psdk3/ps3dev/ppu/bin/../lib/gcc/powerpc64-ps3-elf/4.5.2/../../../../powerpc64-ps3-elf/lib\libc.a(lib_a-freer.o)
                0x00000000000445d0                _malloc_trim_r
                0x00000000000445e8                _free_r
 .opd           0x0000000000044600       0x30 f:/psdk3/ps3dev/ppu/bin/../lib/gcc/powerpc64-ps3-elf/4.5.2/../../../../powerpc64-ps3-elf/lib\libc.a(lib_a-fwalk.o)
                0x0000000000044600                _fwalk
                0x0000000000044618                _fwalk_reent
 .opd           0x0000000000044630       0x18 f:/psdk3/ps3dev/ppu/bin/../lib/gcc/powerpc64-ps3-elf/4.5.2/../../../../powerpc64-ps3-elf/lib\libc.a(lib_a-iswspace.o)
                0x0000000000044630                iswspace
 .opd           0x0000000000044648       0xc0 f:/psdk3/ps3dev/ppu/bin/../lib/gcc/powerpc64-ps3-elf/4.5.2/../../../../powerpc64-ps3-elf/lib\libc.a(lib_a-locale.o)
                0x0000000000044648                _setlocale_r
                0x0000000000044660                __locale_charset
                0x0000000000044678                __locale_mb_cur_max
                0x0000000000044690                __locale_msgcharset
                0x00000000000446a8                __locale_cjk_lang
                0x00000000000446c0                _localeconv_r
                0x00000000000446d8                setlocale
                0x00000000000446f0                localeconv
 .opd           0x0000000000044708       0x78 f:/psdk3/ps3dev/ppu/bin/../lib/gcc/powerpc64-ps3-elf/4.5.2/../../../../powerpc64-ps3-elf/lib\libc.a(lib_a-lock_recursive.o)
                0x0000000000044708                __libc_lock_init_recursive
                0x0000000000044720                __libc_lock_close_recursive
                0x0000000000044738                __libc_lock_acquire_recursive
                0x0000000000044750                __libc_lock_try_acquire_recursive
                0x0000000000044768                __libc_lock_release_recursive
 .opd           0x0000000000044780       0x30 f:/psdk3/ps3dev/ppu/bin/../lib/gcc/powerpc64-ps3-elf/4.5.2/../../../../powerpc64-ps3-elf/lib\libc.a(lib_a-mbrtowc.o)
                0x0000000000044780                _mbrtowc_r
                0x0000000000044798                mbrtowc
 .opd           0x00000000000447b0       0x30 f:/psdk3/ps3dev/ppu/bin/../lib/gcc/powerpc64-ps3-elf/4.5.2/../../../../powerpc64-ps3-elf/lib\libc.a(lib_a-mbtowc_r.o)
                0x00000000000447b0                __ascii_mbtowc
                0x00000000000447c8                _mbtowc_r
 .opd           0x00000000000447e0       0x18 f:/psdk3/ps3dev/ppu/bin/../lib/gcc/powerpc64-ps3-elf/4.5.2/../../../../powerpc64-ps3-elf/lib\libc.a(lib_a-s_fpclassify.o)
                0x00000000000447e0                __fpclassifyd
 .opd           0x00000000000447f8       0x18 f:/psdk3/ps3dev/ppu/bin/../lib/gcc/powerpc64-ps3-elf/4.5.2/../../../../powerpc64-ps3-elf/lib\libc.a(lib_a-sccl.o)
                0x00000000000447f8                __sccl
 .opd           0x0000000000044810       0x18 f:/psdk3/ps3dev/ppu/bin/../lib/gcc/powerpc64-ps3-elf/4.5.2/../../../../powerpc64-ps3-elf/lib\libc.a(lib_a-sf_nan.o)
                0x0000000000044810                nanf
 .opd           0x0000000000044828       0x30 f:/psdk3/ps3dev/ppu/bin/../lib/gcc/powerpc64-ps3-elf/4.5.2/../../../../powerpc64-ps3-elf/lib\libc.a(lib_a-sprintf.o)
                0x0000000000044828                _sprintf_r
                0x0000000000044840                sprintf
 .opd           0x0000000000044858       0x18 f:/psdk3/ps3dev/ppu/bin/../lib/gcc/powerpc64-ps3-elf/4.5.2/../../../../powerpc64-ps3-elf/lib\libc.a(lib_a-strcmp.o)
                0x0000000000044858                strcmp
 .opd           0x0000000000044870       0x60 f:/psdk3/ps3dev/ppu/bin/../lib/gcc/powerpc64-ps3-elf/4.5.2/../../../../powerpc64-ps3-elf/lib\libc.a(lib_a-strtod.o)
                0x0000000000044888                _strtod_r
                0x00000000000448a0                strtod
                0x00000000000448b8                strtof
 .opd           0x00000000000448d0       0x30 f:/psdk3/ps3dev/ppu/bin/../lib/gcc/powerpc64-ps3-elf/4.5.2/../../../../powerpc64-ps3-elf/lib\libc.a(lib_a-strtol.o)
                0x00000000000448d0                _strtol_r
                0x00000000000448e8                strtol
 .opd           0x0000000000044900       0x18 f:/psdk3/ps3dev/ppu/bin/../lib/gcc/powerpc64-ps3-elf/4.5.2/../../../../powerpc64-ps3-elf/lib\libc.a(lib_a-strtoll_r.o)
                0x0000000000044900                _strtoll_r
 .opd           0x0000000000044918       0x30 f:/psdk3/ps3dev/ppu/bin/../lib/gcc/powerpc64-ps3-elf/4.5.2/../../../../powerpc64-ps3-elf/lib\libc.a(lib_a-strtoul.o)
                0x0000000000044918                _strtoul_r
                0x0000000000044930                strtoul
 .opd           0x0000000000044948       0x18 f:/psdk3/ps3dev/ppu/bin/../lib/gcc/powerpc64-ps3-elf/4.5.2/../../../../powerpc64-ps3-elf/lib\libc.a(lib_a-strtoull_r.o)
                0x0000000000044948                _strtoull_r
 .opd           0x0000000000044960       0x60 f:/psdk3/ps3dev/ppu/bin/../lib/gcc/powerpc64-ps3-elf/4.5.2/../../../../powerpc64-ps3-elf/lib\libc.a(lib_a-svfiscanf.o)
                0x0000000000044960                _sungetc_r
                0x0000000000044978                __ssrefill_r
                0x0000000000044990                _sfread_r
                0x00000000000449a8                __ssvfiscanf_r
 .opd           0x00000000000449c0       0x18 f:/psdk3/ps3dev/ppu/bin/../lib/gcc/powerpc64-ps3-elf/4.5.2/../../../../powerpc64-ps3-elf/lib\libc.a(lib_a-svfprintf.o)
                0x00000000000449c0                _svfprintf_r
 .opd           0x00000000000449d8       0x48 f:/psdk3/ps3dev/ppu/bin/../lib/gcc/powerpc64-ps3-elf/4.5.2/../../../../powerpc64-ps3-elf/lib\libc.a(lib_a-ungetc.o)
                0x00000000000449d8                __submore
                0x00000000000449f0                _ungetc_r
                0x0000000000044a08                ungetc
 .opd           0x0000000000044a20       0x30 f:/psdk3/ps3dev/ppu/bin/../lib/gcc/powerpc64-ps3-elf/4.5.2/../../../../powerpc64-ps3-elf/lib\libc.a(lib_a-dtoa.o)
                0x0000000000044a38                _dtoa_r
 .opd           0x0000000000044a50       0x30 f:/psdk3/ps3dev/ppu/bin/../lib/gcc/powerpc64-ps3-elf/4.5.2/../../../../powerpc64-ps3-elf/lib\libc.a(lib_a-fclose.o)
                0x0000000000044a50                _fclose_r
                0x0000000000044a68                fclose
 .opd           0x0000000000044a80       0x30 f:/psdk3/ps3dev/ppu/bin/../lib/gcc/powerpc64-ps3-elf/4.5.2/../../../../powerpc64-ps3-elf/lib\libc.a(lib_a-fflush.o)
                0x0000000000044a80                _fflush_r
                0x0000000000044a98                fflush
 .opd           0x0000000000044ab0       0x48 f:/psdk3/ps3dev/ppu/bin/../lib/gcc/powerpc64-ps3-elf/4.5.2/../../../../powerpc64-ps3-elf/lib\libc.a(lib_a-gdtoa-gethex.o)
                0x0000000000044ac8                __hexdig_init
                0x0000000000044ae0                __gethex
 .opd           0x0000000000044af8       0x18 f:/psdk3/ps3dev/ppu/bin/../lib/gcc/powerpc64-ps3-elf/4.5.2/../../../../powerpc64-ps3-elf/lib\libc.a(lib_a-gdtoa-hexnan.o)
                0x0000000000044af8                __hexnan
 .opd           0x0000000000044b10       0x30 f:/psdk3/ps3dev/ppu/bin/../lib/gcc/powerpc64-ps3-elf/4.5.2/../../../../powerpc64-ps3-elf/lib\libc.a(lib_a-lock_internal.o)
                0x0000000000044b28                __libc_auto_lock_allocate
 .opd           0x0000000000044b40       0x18 f:/psdk3/ps3dev/ppu/bin/../lib/gcc/powerpc64-ps3-elf/4.5.2/../../../../powerpc64-ps3-elf/lib\libc.a(lib_a-memchr.o)
                0x0000000000044b40                memchr
 .opd           0x0000000000044b58      0x1c8 f:/psdk3/ps3dev/ppu/bin/../lib/gcc/powerpc64-ps3-elf/4.5.2/../../../../powerpc64-ps3-elf/lib\libc.a(lib_a-mprec.o)
                0x0000000000044b58                _Balloc
                0x0000000000044b70                _Bfree
                0x0000000000044b88                __multadd
                0x0000000000044ba0                __s2b
                0x0000000000044bb8                __hi0bits
                0x0000000000044bd0                __lo0bits
                0x0000000000044be8                __i2b
                0x0000000000044c00                __multiply
                0x0000000000044c18                __pow5mult
                0x0000000000044c30                __lshift
                0x0000000000044c48                __mcmp
                0x0000000000044c60                __mdiff
                0x0000000000044c78                __ulp
                0x0000000000044c90                __b2d
                0x0000000000044ca8                __d2b
                0x0000000000044cc0                __ratio
                0x0000000000044cd8                _mprec_log10
                0x0000000000044cf0                __copybits
                0x0000000000044d08                __any_on
 .opd           0x0000000000044d20       0x18 f:/psdk3/ps3dev/ppu/bin/../lib/gcc/powerpc64-ps3-elf/4.5.2/../../../../powerpc64-ps3-elf/lib\libc.a(lib_a-reallocr.o)
                0x0000000000044d20                _realloc_r
 .opd           0x0000000000044d38       0x18 f:/psdk3/ps3dev/ppu/bin/../lib/gcc/powerpc64-ps3-elf/4.5.2/../../../../powerpc64-ps3-elf/lib\libc.a(lib_a-strncmp.o)
                0x0000000000044d38                strncmp
 .opd           0x0000000000044d50       0x30 f:/psdk3/ps3dev/ppu/bin/../lib/gcc/powerpc64-ps3-elf/4.5.2/../../../../powerpc64-ps3-elf/lib\libc.a(lib_a-svfiprintf.o)
                0x0000000000044d50                __ssprint_r
                0x0000000000044d68                _svfiprintf_r
 .opd           0x0000000000044d80       0x18 f:/psdk3/ps3dev/ppu/bin/../lib/gcc/powerpc64-ps3-elf/4.5.2/../../../../powerpc64-ps3-elf/lib\libc.a(lib_a-abort.o)
                0x0000000000044d80                abort
 .opd           0x0000000000044d98       0x18 f:/psdk3/ps3dev/ppu/bin/../lib/gcc/powerpc64-ps3-elf/4.5.2/../../../../powerpc64-ps3-elf/lib\libc.a(lib_a-callocr.o)
                0x0000000000044d98                _calloc_r
 .opd           0x0000000000044db0       0x18 f:/psdk3/ps3dev/ppu/bin/../lib/gcc/powerpc64-ps3-elf/4.5.2/../../../../powerpc64-ps3-elf/lib\libc.a(lib_a-memmove.o)
                0x0000000000044db0                memmove
 .opd           0x0000000000044dc8       0xc0 f:/psdk3/ps3dev/ppu/bin/../lib/gcc/powerpc64-ps3-elf/4.5.2/../../../../powerpc64-ps3-elf/lib\libc.a(lib_a-signal.o)
                0x0000000000044dc8                _init_signal_r
                0x0000000000044de0                _signal_r
                0x0000000000044df8                _raise_r
                0x0000000000044e10                __sigtramp_r
                0x0000000000044e28                raise
                0x0000000000044e40                signal
                0x0000000000044e58                _init_signal
                0x0000000000044e70                __sigtramp
 .opd           0x0000000000044e88       0x18 f:/psdk3/ps3dev/ppu/bin/../lib/gcc/powerpc64-ps3-elf/4.5.2/../../../../powerpc64-ps3-elf/lib\libsysbase.a(close.o)
                0x0000000000044e88                _close_r
 .opd           0x0000000000044ea0       0x18 f:/psdk3/ps3dev/ppu/bin/../lib/gcc/powerpc64-ps3-elf/4.5.2/../../../../powerpc64-ps3-elf/lib\libsysbase.a(sbrk.o)
                0x0000000000044ea0                _sbrk_r
 .opd           0x0000000000044eb8       0x18 f:/psdk3/ps3dev/ppu/bin/../lib/gcc/powerpc64-ps3-elf/4.5.2/../../../../powerpc64-ps3-elf/lib\libsysbase.a(_exit.o)
                0x0000000000044eb8                _exit
 .opd           0x0000000000044ed0       0x18 f:/psdk3/ps3dev/ppu/bin/../lib/gcc/powerpc64-ps3-elf/4.5.2/../../../../powerpc64-ps3-elf/lib\libsysbase.a(lseek.o)
                0x0000000000044ed0                _lseek_r
 .opd           0x0000000000044ee8       0x18 f:/psdk3/ps3dev/ppu/bin/../lib/gcc/powerpc64-ps3-elf/4.5.2/../../../../powerpc64-ps3-elf/lib\libsysbase.a(read.o)
                0x0000000000044ee8                _read_r
 .opd           0x0000000000044f00       0x18 f:/psdk3/ps3dev/ppu/bin/../lib/gcc/powerpc64-ps3-elf/4.5.2/../../../../powerpc64-ps3-elf/lib\libsysbase.a(write.o)
                0x0000000000044f00                _write_r
 .opd           0x0000000000044f18       0x78 f:/psdk3/ps3dev/ppu/bin/../lib/gcc/powerpc64-ps3-elf/4.5.2/../../../../powerpc64-ps3-elf/lib\libsysbase.a(lock.o)
                0x0000000000044f18                sys_lwmutex_create
                0x0000000000044f30                sys_lwmutex_destroy
                0x0000000000044f48                sys_lwmutex_lock
                0x0000000000044f60                sys_lwmutex_trylock
                0x0000000000044f78                sys_lwmutex_unlock
 .opd           0x0000000000044f90       0x18 f:/psdk3/ps3dev/ppu/bin/../lib/gcc/powerpc64-ps3-elf/4.5.2/../../../../powerpc64-ps3-elf/lib\libsysbase.a(getpid.o)
                0x0000000000044f90                _getpid_r
 .opd           0x0000000000044fa8       0x18 f:/psdk3/ps3dev/ppu/bin/../lib/gcc/powerpc64-ps3-elf/4.5.2/../../../../powerpc64-ps3-elf/lib\libsysbase.a(kill.o)
                0x0000000000044fa8                _kill_r
 .opd           0x0000000000044fc0       0x18 f:/psdk3/ps3dev/ppu/bin/../lib/gcc/powerpc64-ps3-elf/4.5.2/crtend.o

.branch_lt      0x0000000000044fd8        0x0
 *(.branch_lt)
 .branch_lt     0x0000000000044fd8        0x0 linker stubs

.got            0x0000000000044fd8      0xcf8
 *(.got .toc)
 .toc           0x0000000000044fd8       0x50 f:/psdk3/ps3dev/ppu/bin/../lib/gcc/powerpc64-ps3-elf/4.5.2/crtbegin.o
 .toc           0x0000000000045028       0x28 f:/PSDK3/psl1ght/ppu/lib\librt.a(sbrk.o)
 .toc           0x0000000000045050        0x8 f:/psdk3/ps3dev/ppu/bin/../lib/gcc/powerpc64-ps3-elf/4.5.2/crtend.o
 .toc           0x0000000000045058      0x118 f:/psdk3/ps3dev/ppu/bin/../lib/gcc/powerpc64-ps3-elf/4.5.2/../../../../powerpc64-ps3-elf/lib/lv2-crt0.o
 .toc           0x0000000000045170       0xd8 main.o
 .toc           0x0000000000045248       0x48 f:/PSDK3/ps3dev/portlibs/ppu/lib\libfont.a(libfont.o)
 .toc           0x0000000000045290      0x370 f:/PSDK3/ps3dev/portlibs/ppu/lib\libtiny3d.a(tiny3d.o)
 .toc           0x0000000000045600       0x28 f:/PSDK3/ps3dev/portlibs/ppu/lib\libtiny3d.a(commands.o)
 .toc           0x0000000000045628       0x38 f:/PSDK3/ps3dev/portlibs/ppu/lib\libtiny3d.a(matrix.o)
 .toc           0x0000000000045660       0x18 f:/PSDK3/ps3dev/portlibs/ppu/lib\libtiny3d.a(mm.o)
 .toc           0x0000000000045678       0x60 f:/PSDK3/ps3dev/portlibs/ppu/lib\libtiny3d.a(rsxutil.o)
 .toc           0x00000000000456d8        0x8 f:/PSDK3/psl1ght/ppu/lib\librt.a(open.o)
 .toc           0x00000000000456e0        0x8 f:/PSDK3/psl1ght/ppu/lib\librt.a(socket.o)
 .toc           0x00000000000456e8        0x8 f:/PSDK3/psl1ght/ppu/lib\librt.a(mkdir.o)
 .toc           0x00000000000456f0        0x8 f:/PSDK3/psl1ght/ppu/lib\librt.a(umask.o)
 .toc           0x00000000000456f8       0x10 f:/PSDK3/psl1ght/ppu/lib\libpngdec.a(pngdec.o)
 .toc           0x0000000000045708       0x38 f:/psdk3/ps3dev/ppu/bin/../lib/gcc/powerpc64-ps3-elf/4.5.2/../../../../powerpc64-ps3-elf/lib\libm.a(lib_a-s_sqrt.o)
 .toc           0x0000000000045740       0x60 f:/psdk3/ps3dev/ppu/bin/../lib/gcc/powerpc64-ps3-elf/4.5.2/../../../../powerpc64-ps3-elf/lib\libm.a(lib_a-sf_sine.o)
 .toc           0x00000000000457a0       0x38 f:/psdk3/ps3dev/ppu/bin/../lib/gcc/powerpc64-ps3-elf/4.5.2/../../../../powerpc64-ps3-elf/lib\libm.a(lib_a-sf_sqrt.o)
 .toc           0x00000000000457d8       0x58 f:/psdk3/ps3dev/ppu/bin/../lib/gcc/powerpc64-ps3-elf/4.5.2/../../../../powerpc64-ps3-elf/lib\libm.a(lib_a-sf_tan.o)
 .toc           0x0000000000045830        0x8 f:/psdk3/ps3dev/ppu/bin/../lib/gcc/powerpc64-ps3-elf/4.5.2/../../../../powerpc64-ps3-elf/lib\libm.a(lib_a-s_ldexp.o)
 .toc           0x0000000000045838        0x8 f:/psdk3/ps3dev/ppu/bin/../lib/gcc/powerpc64-ps3-elf/4.5.2/../../../../powerpc64-ps3-elf/lib\libm.a(lib_a-s_numtest.o)
 .toc           0x0000000000045840        0x8 f:/psdk3/ps3dev/ppu/bin/../lib/gcc/powerpc64-ps3-elf/4.5.2/../../../../powerpc64-ps3-elf/lib\libm.a(lib_a-sf_fabs.o)
 .toc           0x0000000000045848        0x8 f:/psdk3/ps3dev/ppu/bin/../lib/gcc/powerpc64-ps3-elf/4.5.2/../../../../powerpc64-ps3-elf/lib\libm.a(lib_a-sf_ldexp.o)
 .toc           0x0000000000045850        0x8 f:/psdk3/ps3dev/ppu/bin/../lib/gcc/powerpc64-ps3-elf/4.5.2/../../../../powerpc64-ps3-elf/lib\libm.a(lib_a-sf_numtest.o)
 .toc           0x0000000000045858        0x8 f:/psdk3/ps3dev/ppu/bin/../lib/gcc/powerpc64-ps3-elf/4.5.2/../../../../powerpc64-ps3-elf/lib\libsysbase.a(sleep.o)
 .toc           0x0000000000045860        0x8 f:/psdk3/ps3dev/ppu/bin/../lib/gcc/powerpc64-ps3-elf/4.5.2/../../../../powerpc64-ps3-elf/lib\libc.a(lib_a-exit.o)
 .toc           0x0000000000045868        0x8 f:/psdk3/ps3dev/ppu/bin/../lib/gcc/powerpc64-ps3-elf/4.5.2/../../../../powerpc64-ps3-elf/lib\libc.a(lib_a-getreent.o)
 .toc           0x0000000000045870       0x30 f:/psdk3/ps3dev/ppu/bin/../lib/gcc/powerpc64-ps3-elf/4.5.2/../../../../powerpc64-ps3-elf/lib\libc.a(lib_a-mallocr.o)
 .toc           0x00000000000458a0        0x8 f:/psdk3/ps3dev/ppu/bin/../lib/gcc/powerpc64-ps3-elf/4.5.2/../../../../powerpc64-ps3-elf/lib\libc.a(lib_a-mlock.o)
 .toc           0x00000000000458a8        0x8 f:/psdk3/ps3dev/ppu/bin/../lib/gcc/powerpc64-ps3-elf/4.5.2/../../../../powerpc64-ps3-elf/lib\libc.a(lib_a-sscanf.o)
 .toc           0x00000000000458b0        0x8 f:/psdk3/ps3dev/ppu/bin/../lib/gcc/powerpc64-ps3-elf/4.5.2/../../../../powerpc64-ps3-elf/lib\libc.a(lib_a-strcasecmp.o)
 .toc           0x00000000000458b8       0x40 f:/psdk3/ps3dev/ppu/bin/../lib/gcc/powerpc64-ps3-elf/4.5.2/../../../../powerpc64-ps3-elf/lib\libc.a(lib_a-svfscanf.o)
 .toc           0x00000000000458f8       0x18 f:/psdk3/ps3dev/ppu/bin/../lib/gcc/powerpc64-ps3-elf/4.5.2/../../../../powerpc64-ps3-elf/lib\libc.a(lib_a-__atexit.o)
 .toc           0x0000000000045910       0x18 f:/psdk3/ps3dev/ppu/bin/../lib/gcc/powerpc64-ps3-elf/4.5.2/../../../../powerpc64-ps3-elf/lib\libc.a(lib_a-__call_atexit.o)
 .toc           0x0000000000045928       0x58 f:/psdk3/ps3dev/ppu/bin/../lib/gcc/powerpc64-ps3-elf/4.5.2/../../../../powerpc64-ps3-elf/lib\libc.a(lib_a-findfp.o)
 .toc           0x0000000000045980       0x28 f:/psdk3/ps3dev/ppu/bin/../lib/gcc/powerpc64-ps3-elf/4.5.2/../../../../powerpc64-ps3-elf/lib\libc.a(lib_a-freer.o)
 .toc           0x00000000000459a8        0x8 f:/psdk3/ps3dev/ppu/bin/../lib/gcc/powerpc64-ps3-elf/4.5.2/../../../../powerpc64-ps3-elf/lib\libc.a(lib_a-iswspace.o)
 .toc           0x00000000000459b0       0x38 f:/psdk3/ps3dev/ppu/bin/../lib/gcc/powerpc64-ps3-elf/4.5.2/../../../../powerpc64-ps3-elf/lib\libc.a(lib_a-locale.o)
 .toc           0x00000000000459e8        0x8 f:/psdk3/ps3dev/ppu/bin/../lib/gcc/powerpc64-ps3-elf/4.5.2/../../../../powerpc64-ps3-elf/lib\libc.a(lib_a-lock_recursive.o)
 .toc           0x00000000000459f0       0x10 f:/psdk3/ps3dev/ppu/bin/../lib/gcc/powerpc64-ps3-elf/4.5.2/../../../../powerpc64-ps3-elf/lib\libc.a(lib_a-mbrtowc.o)
 .toc           0x0000000000045a00        0x8 f:/psdk3/ps3dev/ppu/bin/../lib/gcc/powerpc64-ps3-elf/4.5.2/../../../../powerpc64-ps3-elf/lib\libc.a(lib_a-mbtowc_r.o)
 .toc           0x0000000000045a08        0x8 f:/psdk3/ps3dev/ppu/bin/../lib/gcc/powerpc64-ps3-elf/4.5.2/../../../../powerpc64-ps3-elf/lib\libc.a(lib_a-sf_nan.o)
 .toc           0x0000000000045a10       0xb0 f:/psdk3/ps3dev/ppu/bin/../lib/gcc/powerpc64-ps3-elf/4.5.2/../../../../powerpc64-ps3-elf/lib\libc.a(lib_a-strtod.o)
 .toc           0x0000000000045ac0        0x8 f:/psdk3/ps3dev/ppu/bin/../lib/gcc/powerpc64-ps3-elf/4.5.2/../../../../powerpc64-ps3-elf/lib\libc.a(lib_a-strtol.o)
 .toc           0x0000000000045ac8        0x8 f:/psdk3/ps3dev/ppu/bin/../lib/gcc/powerpc64-ps3-elf/4.5.2/../../../../powerpc64-ps3-elf/lib\libc.a(lib_a-strtoll_r.o)
 .toc           0x0000000000045ad0        0x8 f:/psdk3/ps3dev/ppu/bin/../lib/gcc/powerpc64-ps3-elf/4.5.2/../../../../powerpc64-ps3-elf/lib\libc.a(lib_a-strtoul.o)
 .toc           0x0000000000045ad8        0x8 f:/psdk3/ps3dev/ppu/bin/../lib/gcc/powerpc64-ps3-elf/4.5.2/../../../../powerpc64-ps3-elf/lib\libc.a(lib_a-strtoull_r.o)
 .toc           0x0000000000045ae0       0x30 f:/psdk3/ps3dev/ppu/bin/../lib/gcc/powerpc64-ps3-elf/4.5.2/../../../../powerpc64-ps3-elf/lib\libc.a(lib_a-svfiscanf.o)
 .toc           0x0000000000045b10       0x60 f:/psdk3/ps3dev/ppu/bin/../lib/gcc/powerpc64-ps3-elf/4.5.2/../../../../powerpc64-ps3-elf/lib\libc.a(lib_a-svfprintf.o)
 .toc           0x0000000000045b70       0x80 f:/psdk3/ps3dev/ppu/bin/../lib/gcc/powerpc64-ps3-elf/4.5.2/../../../../powerpc64-ps3-elf/lib\libc.a(lib_a-dtoa.o)
 .toc           0x0000000000045bf0       0x10 f:/psdk3/ps3dev/ppu/bin/../lib/gcc/powerpc64-ps3-elf/4.5.2/../../../../powerpc64-ps3-elf/lib\libc.a(lib_a-fflush.o)
 .toc           0x0000000000045c00       0x20 f:/psdk3/ps3dev/ppu/bin/../lib/gcc/powerpc64-ps3-elf/4.5.2/../../../../powerpc64-ps3-elf/lib\libc.a(lib_a-gdtoa-gethex.o)
 .toc           0x0000000000045c20        0x8 f:/psdk3/ps3dev/ppu/bin/../lib/gcc/powerpc64-ps3-elf/4.5.2/../../../../powerpc64-ps3-elf/lib\libc.a(lib_a-gdtoa-hexnan.o)
 .toc           0x0000000000045c28       0x10 f:/psdk3/ps3dev/ppu/bin/../lib/gcc/powerpc64-ps3-elf/4.5.2/../../../../powerpc64-ps3-elf/lib\libc.a(lib_a-lock_internal.o)
 .toc           0x0000000000045c38       0x20 f:/psdk3/ps3dev/ppu/bin/../lib/gcc/powerpc64-ps3-elf/4.5.2/../../../../powerpc64-ps3-elf/lib\libc.a(lib_a-mprec.o)
 .toc           0x0000000000045c58        0x8 f:/psdk3/ps3dev/ppu/bin/../lib/gcc/powerpc64-ps3-elf/4.5.2/../../../../powerpc64-ps3-elf/lib\libc.a(lib_a-reallocr.o)
 .toc           0x0000000000045c60       0x30 f:/psdk3/ps3dev/ppu/bin/../lib/gcc/powerpc64-ps3-elf/4.5.2/../../../../powerpc64-ps3-elf/lib\libc.a(lib_a-svfiprintf.o)
 .toc           0x0000000000045c90        0x8 f:/psdk3/ps3dev/ppu/bin/../lib/gcc/powerpc64-ps3-elf/4.5.2/../../../../powerpc64-ps3-elf/lib\libsysbase.a(close.o)
 .toc           0x0000000000045c98        0x8 f:/psdk3/ps3dev/ppu/bin/../lib/gcc/powerpc64-ps3-elf/4.5.2/../../../../powerpc64-ps3-elf/lib\libsysbase.a(sbrk.o)
 .toc           0x0000000000045ca0        0x8 f:/psdk3/ps3dev/ppu/bin/../lib/gcc/powerpc64-ps3-elf/4.5.2/../../../../powerpc64-ps3-elf/lib\libsysbase.a(_exit.o)
 .toc           0x0000000000045ca8        0x8 f:/psdk3/ps3dev/ppu/bin/../lib/gcc/powerpc64-ps3-elf/4.5.2/../../../../powerpc64-ps3-elf/lib\libsysbase.a(lseek.o)
 .toc           0x0000000000045cb0        0x8 f:/psdk3/ps3dev/ppu/bin/../lib/gcc/powerpc64-ps3-elf/4.5.2/../../../../powerpc64-ps3-elf/lib\libsysbase.a(read.o)
 .toc           0x0000000000045cb8        0x8 f:/psdk3/ps3dev/ppu/bin/../lib/gcc/powerpc64-ps3-elf/4.5.2/../../../../powerpc64-ps3-elf/lib\libsysbase.a(write.o)
 .toc           0x0000000000045cc0        0x8 f:/psdk3/ps3dev/ppu/bin/../lib/gcc/powerpc64-ps3-elf/4.5.2/../../../../powerpc64-ps3-elf/lib\libsysbase.a(lock.o)
 .toc           0x0000000000045cc8        0x8 f:/psdk3/ps3dev/ppu/bin/../lib/gcc/powerpc64-ps3-elf/4.5.2/../../../../powerpc64-ps3-elf/lib\libsysbase.a(getpid.o)
 .toc           0x0000000000045cd0        0x0 msxfont.o
 .toc           0x0000000000045cd0        0x0 f:/PSDK3/ps3dev/portlibs/ppu/lib\libtiny3d.a(glue.o)
 .toc           0x0000000000045cd0        0x0 f:/PSDK3/ps3dev/portlibs/ppu/lib\libtiny3d.a(realityVP.o)
 .toc           0x0000000000045cd0        0x0 f:/PSDK3/ps3dev/portlibs/ppu/lib\libtiny3d.a(buffer.o)
 .got           0x0000000000045cd0        0x0 f:/PSDK3/psl1ght/ppu/lib\libgcm_sys.a(sprx.o)
 .got           0x0000000000045cd0        0x0 f:/PSDK3/psl1ght/ppu/lib\libio.a(sprx.o)
 .got           0x0000000000045cd0        0x0 f:/PSDK3/psl1ght/ppu/lib\libsysutil.a(sprx.o)
 .toc           0x0000000000045cd0        0x0 f:/PSDK3/psl1ght/ppu/lib\libsysutil.a(sysutil_wrapper.o)
 .toc           0x0000000000045cd0        0x0 f:/PSDK3/psl1ght/ppu/lib\librt.a(exit.o)
 .toc           0x0000000000045cd0        0x0 f:/PSDK3/psl1ght/ppu/lib\librt.a(close.o)
 .toc           0x0000000000045cd0        0x0 f:/PSDK3/psl1ght/ppu/lib\librt.a(lseek.o)
 .toc           0x0000000000045cd0        0x0 f:/PSDK3/psl1ght/ppu/lib\librt.a(read.o)
 .toc           0x0000000000045cd0        0x0 f:/PSDK3/psl1ght/ppu/lib\librt.a(sleep.o)
 .toc           0x0000000000045cd0        0x0 f:/PSDK3/psl1ght/ppu/lib\librt.a(write.o)
 .toc           0x0000000000045cd0        0x0 f:/PSDK3/psl1ght/ppu/lib\librt.a(fstat.o)
 .toc           0x0000000000045cd0        0x0 f:/PSDK3/psl1ght/ppu/lib\librt.a(lock.o)
 .toc           0x0000000000045cd0        0x0 f:/PSDK3/psl1ght/ppu/lib\librt.a(dirent.o)
 .toc           0x0000000000045cd0        0x0 f:/PSDK3/psl1ght/ppu/lib\librt.a(times.o)
 .toc           0x0000000000045cd0        0x0 f:/PSDK3/psl1ght/ppu/lib\librt.a(lv2errno.o)
 .toc           0x0000000000045cd0        0x0 f:/PSDK3/psl1ght/ppu/lib\librt.a(heap.o)
 .toc           0x0000000000045cd0        0x0 f:/PSDK3/psl1ght/ppu/lib\librt.a(chmod.o)
 .toc           0x0000000000045cd0        0x0 f:/PSDK3/psl1ght/ppu/lib\librt.a(rmdir.o)
 .toc           0x0000000000045cd0        0x0 f:/PSDK3/psl1ght/ppu/lib\librt.a(isatty.o)
 .toc           0x0000000000045cd0        0x0 f:/PSDK3/psl1ght/ppu/lib\librt.a(gettod.o)
 .toc           0x0000000000045cd0        0x0 f:/PSDK3/psl1ght/ppu/lib\librt.a(settod.o)
 .got           0x0000000000045cd0        0x0 f:/PSDK3/psl1ght/ppu/lib\liblv2.a(sprx.o)
 .got           0x0000000000045cd0        0x0 f:/PSDK3/psl1ght/ppu/lib\libpngdec.a(sprx.o)
 .got           0x0000000000045cd0        0x0 f:/PSDK3/psl1ght/ppu/lib\libsysmodule.a(sprx.o)
 .toc           0x0000000000045cd0        0x0 f:/psdk3/ps3dev/ppu/bin/../lib/gcc/powerpc64-ps3-elf/4.5.2/../../../../powerpc64-ps3-elf/lib\libm.a(lib_a-sf_cos.o)
 .toc           0x0000000000045cd0        0x0 f:/psdk3/ps3dev/ppu/bin/../lib/gcc/powerpc64-ps3-elf/4.5.2/../../../../powerpc64-ps3-elf/lib\libm.a(lib_a-sf_sin.o)
 .toc           0x0000000000045cd0        0x0 f:/psdk3/ps3dev/ppu/bin/../lib/gcc/powerpc64-ps3-elf/4.5.2/../../../../powerpc64-ps3-elf/lib\libm.a(lib_a-s_frexp.o)
 .toc           0x0000000000045cd0        0x0 f:/psdk3/ps3dev/ppu/bin/../lib/gcc/powerpc64-ps3-elf/4.5.2/../../../../powerpc64-ps3-elf/lib\libm.a(lib_a-s_ispos.o)
 .toc           0x0000000000045cd0        0x0 f:/psdk3/ps3dev/ppu/bin/../lib/gcc/powerpc64-ps3-elf/4.5.2/../../../../powerpc64-ps3-elf/lib\libm.a(lib_a-s_mathcnst.o)
 .toc           0x0000000000045cd0        0x0 f:/psdk3/ps3dev/ppu/bin/../lib/gcc/powerpc64-ps3-elf/4.5.2/../../../../powerpc64-ps3-elf/lib\libm.a(lib_a-sf_frexp.o)
 .toc           0x0000000000045cd0        0x0 f:/psdk3/ps3dev/ppu/bin/../lib/gcc/powerpc64-ps3-elf/4.5.2/../../../../powerpc64-ps3-elf/lib\libm.a(lib_a-sf_ispos.o)
 .toc           0x0000000000045cd0        0x0 f:/psdk3/ps3dev/ppu/bin/../lib/gcc/powerpc64-ps3-elf/4.5.2/../../../../powerpc64-ps3-elf/lib\libsysbase.a(syscalls.o)
 .toc           0x0000000000045cd0        0x0 f:/psdk3/ps3dev/ppu/bin/../lib/gcc/powerpc64-ps3-elf/4.5.2/../../../../powerpc64-ps3-elf/lib\libc.a(lib_a-atexit.o)
 .toc           0x0000000000045cd0        0x0 f:/psdk3/ps3dev/ppu/bin/../lib/gcc/powerpc64-ps3-elf/4.5.2/../../../../powerpc64-ps3-elf/lib\libc.a(lib_a-errno.o)
 .toc           0x0000000000045cd0        0x0 f:/psdk3/ps3dev/ppu/bin/../lib/gcc/powerpc64-ps3-elf/4.5.2/../../../../powerpc64-ps3-elf/lib\libc.a(lib_a-impure.o)
 .toc           0x0000000000045cd0        0x0 f:/psdk3/ps3dev/ppu/bin/../lib/gcc/powerpc64-ps3-elf/4.5.2/../../../../powerpc64-ps3-elf/lib\libc.a(lib_a-malign.o)
 .toc           0x0000000000045cd0        0x0 f:/psdk3/ps3dev/ppu/bin/../lib/gcc/powerpc64-ps3-elf/4.5.2/../../../../powerpc64-ps3-elf/lib\libc.a(lib_a-malignr.o)
 .toc           0x0000000000045cd0        0x0 f:/psdk3/ps3dev/ppu/bin/../lib/gcc/powerpc64-ps3-elf/4.5.2/../../../../powerpc64-ps3-elf/lib\libc.a(lib_a-malloc.o)
 .toc           0x0000000000045cd0        0x0 f:/psdk3/ps3dev/ppu/bin/../lib/gcc/powerpc64-ps3-elf/4.5.2/../../../../powerpc64-ps3-elf/lib\libc.a(lib_a-memcpy.o)
 .toc           0x0000000000045cd0        0x0 f:/psdk3/ps3dev/ppu/bin/../lib/gcc/powerpc64-ps3-elf/4.5.2/../../../../powerpc64-ps3-elf/lib\libc.a(lib_a-memset.o)
 .toc           0x0000000000045cd0        0x0 f:/psdk3/ps3dev/ppu/bin/../lib/gcc/powerpc64-ps3-elf/4.5.2/../../../../powerpc64-ps3-elf/lib\libc.a(lib_a-stdio.o)
 .toc           0x0000000000045cd0        0x0 f:/psdk3/ps3dev/ppu/bin/../lib/gcc/powerpc64-ps3-elf/4.5.2/../../../../powerpc64-ps3-elf/lib\libc.a(lib_a-strlen.o)
 .toc           0x0000000000045cd0        0x0 f:/psdk3/ps3dev/ppu/bin/../lib/gcc/powerpc64-ps3-elf/4.5.2/../../../../powerpc64-ps3-elf/lib\libc.a(lib_a-strncpy.o)
 .toc           0x0000000000045cd0        0x0 f:/psdk3/ps3dev/ppu/bin/../lib/gcc/powerpc64-ps3-elf/4.5.2/../../../../powerpc64-ps3-elf/lib\libc.a(lib_a-vsprintf.o)
 .toc           0x0000000000045cd0        0x0 f:/psdk3/ps3dev/ppu/bin/../lib/gcc/powerpc64-ps3-elf/4.5.2/../../../../powerpc64-ps3-elf/lib\libc.a(lib_a-ctype_.o)
 .toc           0x0000000000045cd0        0x0 f:/psdk3/ps3dev/ppu/bin/../lib/gcc/powerpc64-ps3-elf/4.5.2/../../../../powerpc64-ps3-elf/lib\libc.a(lib_a-fwalk.o)
 .toc           0x0000000000045cd0        0x0 f:/psdk3/ps3dev/ppu/bin/../lib/gcc/powerpc64-ps3-elf/4.5.2/../../../../powerpc64-ps3-elf/lib\libc.a(lib_a-s_fpclassify.o)
 .toc           0x0000000000045cd0        0x0 f:/psdk3/ps3dev/ppu/bin/../lib/gcc/powerpc64-ps3-elf/4.5.2/../../../../powerpc64-ps3-elf/lib\libc.a(lib_a-sccl.o)
 .toc           0x0000000000045cd0        0x0 f:/psdk3/ps3dev/ppu/bin/../lib/gcc/powerpc64-ps3-elf/4.5.2/../../../../powerpc64-ps3-elf/lib\libc.a(lib_a-sprintf.o)
 .toc           0x0000000000045cd0        0x0 f:/psdk3/ps3dev/ppu/bin/../lib/gcc/powerpc64-ps3-elf/4.5.2/../../../../powerpc64-ps3-elf/lib\libc.a(lib_a-strcmp.o)
 .toc           0x0000000000045cd0        0x0 f:/psdk3/ps3dev/ppu/bin/../lib/gcc/powerpc64-ps3-elf/4.5.2/../../../../powerpc64-ps3-elf/lib\libc.a(lib_a-ungetc.o)
 .toc           0x0000000000045cd0        0x0 f:/psdk3/ps3dev/ppu/bin/../lib/gcc/powerpc64-ps3-elf/4.5.2/../../../../powerpc64-ps3-elf/lib\libc.a(lib_a-fclose.o)
 .toc           0x0000000000045cd0        0x0 f:/psdk3/ps3dev/ppu/bin/../lib/gcc/powerpc64-ps3-elf/4.5.2/../../../../powerpc64-ps3-elf/lib\libc.a(lib_a-memchr.o)
 .toc           0x0000000000045cd0        0x0 f:/psdk3/ps3dev/ppu/bin/../lib/gcc/powerpc64-ps3-elf/4.5.2/../../../../powerpc64-ps3-elf/lib\libc.a(lib_a-strncmp.o)
 .toc           0x0000000000045cd0        0x0 f:/psdk3/ps3dev/ppu/bin/../lib/gcc/powerpc64-ps3-elf/4.5.2/../../../../powerpc64-ps3-elf/lib\libc.a(lib_a-abort.o)
 .toc           0x0000000000045cd0        0x0 f:/psdk3/ps3dev/ppu/bin/../lib/gcc/powerpc64-ps3-elf/4.5.2/../../../../powerpc64-ps3-elf/lib\libc.a(lib_a-callocr.o)
 .toc           0x0000000000045cd0        0x0 f:/psdk3/ps3dev/ppu/bin/../lib/gcc/powerpc64-ps3-elf/4.5.2/../../../../powerpc64-ps3-elf/lib\libc.a(lib_a-memmove.o)
 .toc           0x0000000000045cd0        0x0 f:/psdk3/ps3dev/ppu/bin/../lib/gcc/powerpc64-ps3-elf/4.5.2/../../../../powerpc64-ps3-elf/lib\libc.a(lib_a-signal.o)
 .toc           0x0000000000045cd0        0x0 f:/psdk3/ps3dev/ppu/bin/../lib/gcc/powerpc64-ps3-elf/4.5.2/../../../../powerpc64-ps3-elf/lib\libsysbase.a(kill.o)

.toc.sceStub
 *(.toc.sceStub)
 *(SORT(.toc.sceStub.*))

.tdata
 *(.tdata .tdata.* .gnu.linkonce.td.*)

.tbss           0x0000000000045cd0      0x780
 *(.tbss .tbss.* .gnu.linkonce.tb.*)
 .tbss.t_reent  0x0000000000045cd0      0x778 f:/psdk3/ps3dev/ppu/bin/../lib/gcc/powerpc64-ps3-elf/4.5.2/../../../../powerpc64-ps3-elf/lib\libc.a(lib_a-getreent.o)
 .tbss.t_reentp
                0x0000000000046448        0x8 f:/psdk3/ps3dev/ppu/bin/../lib/gcc/powerpc64-ps3-elf/4.5.2/../../../../powerpc64-ps3-elf/lib\libc.a(lib_a-getreent.o)
 *(.tcommon)
                0x0000000010000000                . = ALIGN (0x10000000)

.rodata         0x0000000010000000    0x209f0
 *(.rodata .rodata.* .gnu.linkonce.r.*)
 .rodata        0x0000000010000000       0x18 f:/psdk3/ps3dev/ppu/bin/../lib/gcc/powerpc64-ps3-elf/4.5.2/../../../../powerpc64-ps3-elf/lib/lv2-crt0.o
                0x0000000010000000                _start
 *fill*         0x0000000010000018       0x28 00
 .rodata        0x0000000010000040    0x1f363 picture_png.bin.o
                0x0000000010000040                picture_png_bin
                0x000000001001f39f                picture_png_bin_end
                0x000000001001f39f                picture_png_bin_size
 *fill*         0x000000001001f3a3        0x1 00
 .rodata.cst4   0x000000001001f3a4       0x24 main.o
 .rodata.cst8   0x000000001001f3c8       0x40 main.o
 .rodata.str1.8
                0x000000001001f408       0x8e main.o
 *fill*         0x000000001001f496        0x2 00
 .rodata.cst4   0x000000001001f498       0x10 f:/PSDK3/ps3dev/portlibs/ppu/lib\libfont.a(libfont.o)
                                         0x18 (size before relaxing)
 .rodata.str1.8
                0x000000001001f4a8      0x112 f:/PSDK3/ps3dev/portlibs/ppu/lib\libtiny3d.a(tiny3d.o)
 *fill*         0x000000001001f5ba        0x2 00
 .rodata.cst4   0x000000001001f5bc       0x40 f:/PSDK3/ps3dev/portlibs/ppu/lib\libtiny3d.a(tiny3d.o)
                                         0x60 (size before relaxing)
 *fill*         0x000000001001f5fc        0x4 00
 .rodata.fpshader_list
                0x000000001001f600       0x70 f:/PSDK3/ps3dev/portlibs/ppu/lib\libtiny3d.a(tiny3d.o)
 .rodata        0x000000001001f670      0xe00 f:/PSDK3/ps3dev/portlibs/ppu/lib\libtiny3d.a(vshader_text_normal.vcg.o)
                0x000000001001f670                vshader_text_normal_bin
 .rodata.offset_cmds
                0x0000000010020470       0x14 f:/PSDK3/ps3dev/portlibs/ppu/lib\libtiny3d.a(commands.o)
 .rodata.dma_cmds
                0x0000000010020484       0x14 f:/PSDK3/ps3dev/portlibs/ppu/lib\libtiny3d.a(commands.o)
 .rodata.pitch_cmds
                0x0000000010020498       0x14 f:/PSDK3/ps3dev/portlibs/ppu/lib\libtiny3d.a(commands.o)
 .rodata.cst4   0x00000000100204ac        0xc f:/PSDK3/ps3dev/portlibs/ppu/lib\libtiny3d.a(matrix.o)
                                         0x14 (size before relaxing)
 .rodata.cst8   0x00000000100204b8        0x8 f:/PSDK3/ps3dev/portlibs/ppu/lib\libtiny3d.a(matrix.o)
 .rodata.matrix_ident
                0x00000000100204c0       0x40 f:/PSDK3/ps3dev/portlibs/ppu/lib\libtiny3d.a(matrix.o)
 .rodata.str1.8
                0x0000000010020500        0xc f:/PSDK3/psl1ght/ppu/lib\librt.a(socket.o)
 .rodata.cst4   0x0000000000000000        0x4 f:/psdk3/ps3dev/ppu/bin/../lib/gcc/powerpc64-ps3-elf/4.5.2/../../../../powerpc64-ps3-elf/lib\libm.a(lib_a-s_sqrt.o)
 *fill*         0x000000001002050c        0x4 00
 .rodata.cst8   0x0000000010020510       0x18 f:/psdk3/ps3dev/ppu/bin/../lib/gcc/powerpc64-ps3-elf/4.5.2/../../../../powerpc64-ps3-elf/lib\libm.a(lib_a-s_sqrt.o)
                                         0x20 (size before relaxing)
 .rodata.cst4   0x0000000010020528       0x1c f:/psdk3/ps3dev/ppu/bin/../lib/gcc/powerpc64-ps3-elf/4.5.2/../../../../powerpc64-ps3-elf/lib\libm.a(lib_a-sf_sine.o)
                                         0x24 (size before relaxing)
 *fill*         0x0000000010020544        0x4 00
 .rodata.cst8   0x0000000010020548        0x8 f:/psdk3/ps3dev/ppu/bin/../lib/gcc/powerpc64-ps3-elf/4.5.2/../../../../powerpc64-ps3-elf/lib\libm.a(lib_a-sf_sine.o)
 .rodata.cst4   0x0000000000000000        0x8 f:/psdk3/ps3dev/ppu/bin/../lib/gcc/powerpc64-ps3-elf/4.5.2/../../../../powerpc64-ps3-elf/lib\libm.a(lib_a-sf_sqrt.o)
 .rodata.cst8   0x0000000000000000       0x18 f:/psdk3/ps3dev/ppu/bin/../lib/gcc/powerpc64-ps3-elf/4.5.2/../../../../powerpc64-ps3-elf/lib\libm.a(lib_a-sf_sqrt.o)
 .rodata.cst4   0x0000000010020550       0x10 f:/psdk3/ps3dev/ppu/bin/../lib/gcc/powerpc64-ps3-elf/4.5.2/../../../../powerpc64-ps3-elf/lib\libm.a(lib_a-sf_tan.o)
                                         0x1c (size before relaxing)
 .rodata.cst8   0x0000000010020560       0x10 f:/psdk3/ps3dev/ppu/bin/../lib/gcc/powerpc64-ps3-elf/4.5.2/../../../../powerpc64-ps3-elf/lib\libm.a(lib_a-sf_tan.o)
 .rodata.z_notanum
                0x0000000010020570       0x10 f:/psdk3/ps3dev/ppu/bin/../lib/gcc/powerpc64-ps3-elf/4.5.2/../../../../powerpc64-ps3-elf/lib\libm.a(lib_a-s_mathcnst.o)
                0x0000000010020570                z_notanum
 .rodata.z_infinity_f
                0x0000000010020580        0x8 f:/psdk3/ps3dev/ppu/bin/../lib/gcc/powerpc64-ps3-elf/4.5.2/../../../../powerpc64-ps3-elf/lib\libm.a(lib_a-s_mathcnst.o)
                0x0000000010020580                z_infinity_f
 .rodata.z_hugeval
                0x0000000010020588       0x10 f:/psdk3/ps3dev/ppu/bin/../lib/gcc/powerpc64-ps3-elf/4.5.2/../../../../powerpc64-ps3-elf/lib\libm.a(lib_a-s_mathcnst.o)
                0x0000000010020588                z_hugeval
 .rodata.z_hugeval_f
                0x0000000010020598        0x8 f:/psdk3/ps3dev/ppu/bin/../lib/gcc/powerpc64-ps3-elf/4.5.2/../../../../powerpc64-ps3-elf/lib\libm.a(lib_a-s_mathcnst.o)
                0x0000000010020598                z_hugeval_f
 .rodata.z_infinity
                0x00000000100205a0       0x10 f:/psdk3/ps3dev/ppu/bin/../lib/gcc/powerpc64-ps3-elf/4.5.2/../../../../powerpc64-ps3-elf/lib\libm.a(lib_a-s_mathcnst.o)
                0x00000000100205a0                z_infinity
 .rodata.z_notanum_f
                0x00000000100205b0        0x8 f:/psdk3/ps3dev/ppu/bin/../lib/gcc/powerpc64-ps3-elf/4.5.2/../../../../powerpc64-ps3-elf/lib\libm.a(lib_a-s_mathcnst.o)
                0x00000000100205b0                z_notanum_f
 .rodata.cst8   0x0000000000000000        0x8 f:/psdk3/ps3dev/ppu/bin/../lib/gcc/powerpc64-ps3-elf/4.5.2/../../../../powerpc64-ps3-elf/lib\libm.a(lib_a-s_numtest.o)
 .rodata.cst4   0x0000000000000000        0x4 f:/psdk3/ps3dev/ppu/bin/../lib/gcc/powerpc64-ps3-elf/4.5.2/../../../../powerpc64-ps3-elf/lib\libm.a(lib_a-sf_fabs.o)
 .rodata.cst4   0x0000000000000000        0x4 f:/psdk3/ps3dev/ppu/bin/../lib/gcc/powerpc64-ps3-elf/4.5.2/../../../../powerpc64-ps3-elf/lib\libm.a(lib_a-sf_numtest.o)
 .rodata.str1.8
                0x00000000100205b8        0x2 f:/psdk3/ps3dev/ppu/bin/../lib/gcc/powerpc64-ps3-elf/4.5.2/../../../../powerpc64-ps3-elf/lib\libc.a(lib_a-getreent.o)
 .rodata.str1.8
                0x0000000000000000        0x2 f:/psdk3/ps3dev/ppu/bin/../lib/gcc/powerpc64-ps3-elf/4.5.2/../../../../powerpc64-ps3-elf/lib\libc.a(lib_a-impure.o)
 *fill*         0x00000000100205ba        0x6 00
 .rodata._global_impure_ptr
                0x00000000100205c0        0x8 f:/psdk3/ps3dev/ppu/bin/../lib/gcc/powerpc64-ps3-elf/4.5.2/../../../../powerpc64-ps3-elf/lib\libc.a(lib_a-impure.o)
                0x00000000100205c0                _global_impure_ptr
 .rodata.basefix.4341
                0x00000000100205c8       0x22 f:/psdk3/ps3dev/ppu/bin/../lib/gcc/powerpc64-ps3-elf/4.5.2/../../../../powerpc64-ps3-elf/lib\libc.a(lib_a-svfscanf.o)
 *fill*         0x00000000100205ea        0x6 00
 .rodata.str1.8
                0x00000000100205f0        0x5 f:/psdk3/ps3dev/ppu/bin/../lib/gcc/powerpc64-ps3-elf/4.5.2/../../../../powerpc64-ps3-elf/lib\libc.a(lib_a-svfscanf.o)
 *fill*         0x00000000100205f5        0x3 00
 .rodata._ctype_
                0x00000000100205f8      0x101 f:/psdk3/ps3dev/ppu/bin/../lib/gcc/powerpc64-ps3-elf/4.5.2/../../../../powerpc64-ps3-elf/lib\libc.a(lib_a-ctype_.o)
                0x00000000100205f8                _ctype_
 *fill*         0x00000000100206f9        0x7 00
 .rodata.str1.8
                0x0000000010020700        0xa f:/psdk3/ps3dev/ppu/bin/../lib/gcc/powerpc64-ps3-elf/4.5.2/../../../../powerpc64-ps3-elf/lib\libc.a(lib_a-locale.o)
                                         0x1a (size before relaxing)
 *fill*         0x000000001002070a        0x2 00
 .rodata.__libc_lock_attributes
                0x000000001002070c       0x10 f:/psdk3/ps3dev/ppu/bin/../lib/gcc/powerpc64-ps3-elf/4.5.2/../../../../powerpc64-ps3-elf/lib\libc.a(lib_a-lock_recursive.o)
 .rodata.str1.8
                0x0000000000000000        0x1 f:/psdk3/ps3dev/ppu/bin/../lib/gcc/powerpc64-ps3-elf/4.5.2/../../../../powerpc64-ps3-elf/lib\libc.a(lib_a-mbrtowc.o)
 .rodata.cst4   0x000000001002071c        0x4 f:/psdk3/ps3dev/ppu/bin/../lib/gcc/powerpc64-ps3-elf/4.5.2/../../../../powerpc64-ps3-elf/lib\libc.a(lib_a-sf_nan.o)
 .rodata.cst4   0x0000000010020720        0xc f:/psdk3/ps3dev/ppu/bin/../lib/gcc/powerpc64-ps3-elf/4.5.2/../../../../powerpc64-ps3-elf/lib\libc.a(lib_a-strtod.o)
                                         0x14 (size before relaxing)
 *fill*         0x000000001002072c        0x4 00
 .rodata.cst8   0x0000000010020730       0x20 f:/psdk3/ps3dev/ppu/bin/../lib/gcc/powerpc64-ps3-elf/4.5.2/../../../../powerpc64-ps3-elf/lib\libc.a(lib_a-strtod.o)
                                         0x28 (size before relaxing)
 .rodata.str1.8
                0x0000000010020750       0x13 f:/psdk3/ps3dev/ppu/bin/../lib/gcc/powerpc64-ps3-elf/4.5.2/../../../../powerpc64-ps3-elf/lib\libc.a(lib_a-strtod.o)
 *fill*         0x0000000010020763        0x5 00
 .rodata.tinytens
                0x0000000010020768       0x28 f:/psdk3/ps3dev/ppu/bin/../lib/gcc/powerpc64-ps3-elf/4.5.2/../../../../powerpc64-ps3-elf/lib\libc.a(lib_a-strtod.o)
 .rodata.basefix.3841
                0x0000000010020790       0x22 f:/psdk3/ps3dev/ppu/bin/../lib/gcc/powerpc64-ps3-elf/4.5.2/../../../../powerpc64-ps3-elf/lib\libc.a(lib_a-svfiscanf.o)
 *fill*         0x00000000100207b2        0x6 00
 .rodata.zeroes.4425
                0x00000000100207b8       0x10 f:/psdk3/ps3dev/ppu/bin/../lib/gcc/powerpc64-ps3-elf/4.5.2/../../../../powerpc64-ps3-elf/lib\libc.a(lib_a-svfprintf.o)
 .rodata.cst8   0x0000000000000000        0x8 f:/psdk3/ps3dev/ppu/bin/../lib/gcc/powerpc64-ps3-elf/4.5.2/../../../../powerpc64-ps3-elf/lib\libc.a(lib_a-svfprintf.o)
 .rodata.blanks.4424
                0x00000000100207c8       0x10 f:/psdk3/ps3dev/ppu/bin/../lib/gcc/powerpc64-ps3-elf/4.5.2/../../../../powerpc64-ps3-elf/lib\libc.a(lib_a-svfprintf.o)
 .rodata.str1.8
                0x00000000100207d8       0x5a f:/psdk3/ps3dev/ppu/bin/../lib/gcc/powerpc64-ps3-elf/4.5.2/../../../../powerpc64-ps3-elf/lib\libc.a(lib_a-svfprintf.o)
 *fill*         0x0000000010020832        0x2 00
 .rodata.cst4   0x0000000010020834       0x10 f:/psdk3/ps3dev/ppu/bin/../lib/gcc/powerpc64-ps3-elf/4.5.2/../../../../powerpc64-ps3-elf/lib\libc.a(lib_a-dtoa.o)
                                         0x18 (size before relaxing)
 *fill*         0x0000000010020844        0x4 00
 .rodata.cst8   0x0000000010020848       0x18 f:/psdk3/ps3dev/ppu/bin/../lib/gcc/powerpc64-ps3-elf/4.5.2/../../../../powerpc64-ps3-elf/lib\libc.a(lib_a-dtoa.o)
                                         0x20 (size before relaxing)
 .rodata.str1.8
                0x0000000010020860       0x14 f:/psdk3/ps3dev/ppu/bin/../lib/gcc/powerpc64-ps3-elf/4.5.2/../../../../powerpc64-ps3-elf/lib\libc.a(lib_a-dtoa.o)
                                         0x1a (size before relaxing)
 *fill*         0x0000000010020874        0x4 00
 .rodata.str1.8
                0x0000000010020878       0x20 f:/psdk3/ps3dev/ppu/bin/../lib/gcc/powerpc64-ps3-elf/4.5.2/../../../../powerpc64-ps3-elf/lib\libc.a(lib_a-gdtoa-gethex.o)
                                         0x1b (size before relaxing)
 .rodata.__libc_lock_attributes
                0x0000000010020898       0x10 f:/psdk3/ps3dev/ppu/bin/../lib/gcc/powerpc64-ps3-elf/4.5.2/../../../../powerpc64-ps3-elf/lib\libc.a(lib_a-lock_internal.o)
 .rodata.cst4   0x0000000000000000        0x8 f:/psdk3/ps3dev/ppu/bin/../lib/gcc/powerpc64-ps3-elf/4.5.2/../../../../powerpc64-ps3-elf/lib\libc.a(lib_a-mprec.o)
 .rodata.p05.2968
                0x00000000100208a8        0xc f:/psdk3/ps3dev/ppu/bin/../lib/gcc/powerpc64-ps3-elf/4.5.2/../../../../powerpc64-ps3-elf/lib\libc.a(lib_a-mprec.o)
 *fill*         0x00000000100208b4        0x4 00
 .rodata.__mprec_bigtens
                0x00000000100208b8       0x28 f:/psdk3/ps3dev/ppu/bin/../lib/gcc/powerpc64-ps3-elf/4.5.2/../../../../powerpc64-ps3-elf/lib\libc.a(lib_a-mprec.o)
                0x00000000100208b8                __mprec_bigtens
 .rodata.__mprec_tinytens
                0x00000000100208e0       0x28 f:/psdk3/ps3dev/ppu/bin/../lib/gcc/powerpc64-ps3-elf/4.5.2/../../../../powerpc64-ps3-elf/lib\libc.a(lib_a-mprec.o)
                0x00000000100208e0                __mprec_tinytens
 .rodata.__mprec_tens
                0x0000000010020908       0xc8 f:/psdk3/ps3dev/ppu/bin/../lib/gcc/powerpc64-ps3-elf/4.5.2/../../../../powerpc64-ps3-elf/lib\libc.a(lib_a-mprec.o)
                0x0000000010020908                __mprec_tens
 .rodata.zeroes.4369
                0x00000000100209d0       0x10 f:/psdk3/ps3dev/ppu/bin/../lib/gcc/powerpc64-ps3-elf/4.5.2/../../../../powerpc64-ps3-elf/lib\libc.a(lib_a-svfiprintf.o)
 .rodata.blanks.4368
                0x00000000100209e0       0x10 f:/psdk3/ps3dev/ppu/bin/../lib/gcc/powerpc64-ps3-elf/4.5.2/../../../../powerpc64-ps3-elf/lib\libc.a(lib_a-svfiprintf.o)
 .rodata.str1.8
                0x0000000000000000       0x37 f:/psdk3/ps3dev/ppu/bin/../lib/gcc/powerpc64-ps3-elf/4.5.2/../../../../powerpc64-ps3-elf/lib\libc.a(lib_a-svfiprintf.o)

.rodata1
 *(.rodata1)

.spu_image
 *(.spu_image .spu_image.*)
                0x0000000010030000                . = ALIGN (0x10000)

.data           0x0000000010030000     0x20f8
 *(.data .data.* .gnu.linkonce.d.*)
 .data          0x0000000010030000        0x0 f:/psdk3/ps3dev/ppu/bin/../lib/gcc/powerpc64-ps3-elf/4.5.2/../../../../powerpc64-ps3-elf/lib/lv2-crti.o
 .data          0x0000000010030000        0x0 f:/psdk3/ps3dev/ppu/bin/../lib/gcc/powerpc64-ps3-elf/4.5.2/crtbegin.o
 .data.__dso_handle
                0x0000000010030000        0x8 f:/psdk3/ps3dev/ppu/bin/../lib/gcc/powerpc64-ps3-elf/4.5.2/crtbegin.o
                0x0000000010030000                __dso_handle
 .data          0x0000000010030008        0x0 f:/psdk3/ps3dev/ppu/bin/../lib/gcc/powerpc64-ps3-elf/4.5.2/../../../../powerpc64-ps3-elf/lib/lv2-crt0.o
 .data          0x0000000010030008        0x0 f:/psdk3/ps3dev/ppu/bin/../lib/gcc/powerpc64-ps3-elf/4.5.2/../../../../powerpc64-ps3-elf/lib/lv2-sprx.o
 .data          0x0000000010030008        0x0 picture_png.bin.o
 .data          0x0000000010030008        0x0 main.o
 .data          0x0000000010030008        0x0 msxfont.o
 .data.msx      0x0000000010030008      0x800 msxfont.o
                0x0000000010030008                msx
 .data          0x0000000010030808        0x0 f:/PSDK3/ps3dev/portlibs/ppu/lib\libfont.a(libfont.o)
 .data          0x0000000010030808        0x0 f:/PSDK3/ps3dev/portlibs/ppu/lib\libtiny3d.a(tiny3d.o)
 .data.nv30_fp_texture_color2_alt
                0x0000000010030808       0x7c f:/PSDK3/ps3dev/portlibs/ppu/lib\libtiny3d.a(tiny3d.o)
 .data.scale2D_x_viewport
                0x0000000010030884        0x4 f:/PSDK3/ps3dev/portlibs/ppu/lib\libtiny3d.a(tiny3d.o)
 .data.nv30_fp_yuv
                0x0000000010030888      0x11c f:/PSDK3/ps3dev/portlibs/ppu/lib\libtiny3d.a(tiny3d.o)
 .data.scale2D_x_surface
                0x00000000100309a4        0x4 f:/PSDK3/ps3dev/portlibs/ppu/lib\libtiny3d.a(tiny3d.o)
 .data.scale2D_y_surface
                0x00000000100309a8        0x4 f:/PSDK3/ps3dev/portlibs/ppu/lib\libtiny3d.a(tiny3d.o)
 .data.nv30_fp_yuv8
                0x00000000100309ac      0x17c f:/PSDK3/ps3dev/portlibs/ppu/lib\libtiny3d.a(tiny3d.o)
 .data.nv30_fp_texture_color
                0x0000000010030b28       0x2c f:/PSDK3/ps3dev/portlibs/ppu/lib\libtiny3d.a(tiny3d.o)
 .data.nv30_fp_yuv_color8
                0x0000000010030b54      0x17c f:/PSDK3/ps3dev/portlibs/ppu/lib\libtiny3d.a(tiny3d.o)
 .data.min_vertex
                0x0000000010030cd0        0x4 f:/PSDK3/ps3dev/portlibs/ppu/lib\libtiny3d.a(tiny3d.o)
 .data.nv30_fp_yuv_color
                0x0000000010030cd4      0x12c f:/PSDK3/ps3dev/portlibs/ppu/lib\libtiny3d.a(tiny3d.o)
 .data.scale3D_x_viewport
                0x0000000010030e00        0x4 f:/PSDK3/ps3dev/portlibs/ppu/lib\libtiny3d.a(tiny3d.o)
 .data.mod_vertex
                0x0000000010030e04        0x4 f:/PSDK3/ps3dev/portlibs/ppu/lib\libtiny3d.a(tiny3d.o)
 .data.nv30_fp_texture
                0x0000000010030e08       0x1c f:/PSDK3/ps3dev/portlibs/ppu/lib\libtiny3d.a(tiny3d.o)
 .data.nv30_fp_color
                0x0000000010030e24       0x1c f:/PSDK3/ps3dev/portlibs/ppu/lib\libtiny3d.a(tiny3d.o)
 .data.scale3D_y_viewport
                0x0000000010030e40        0x4 f:/PSDK3/ps3dev/portlibs/ppu/lib\libtiny3d.a(tiny3d.o)
 .data.matrix_ident
                0x0000000010030e44       0x40 f:/PSDK3/ps3dev/portlibs/ppu/lib\libtiny3d.a(tiny3d.o)
 .data.size_rsx_vertex
                0x0000000010030e84        0x4 f:/PSDK3/ps3dev/portlibs/ppu/lib\libtiny3d.a(tiny3d.o)
 .data.nv30_fp_texture2_alt
                0x0000000010030e88       0x6c f:/PSDK3/ps3dev/portlibs/ppu/lib\libtiny3d.a(tiny3d.o)
 .data.current_shader
                0x0000000010030ef4        0x4 f:/PSDK3/ps3dev/portlibs/ppu/lib\libtiny3d.a(tiny3d.o)
 .data.nv30_fp_texture_color2
                0x0000000010030ef8       0x4c f:/PSDK3/ps3dev/portlibs/ppu/lib\libtiny3d.a(tiny3d.o)
 .data.nv30_fp_texture2_alt2
                0x0000000010030f44       0x5c f:/PSDK3/ps3dev/portlibs/ppu/lib\libtiny3d.a(tiny3d.o)
 .data.nv30_fp_texture_color2_alt2
                0x0000000010030fa0       0x6c f:/PSDK3/ps3dev/portlibs/ppu/lib\libtiny3d.a(tiny3d.o)
 .data.nv30_fp_texture2
                0x000000001003100c       0x3c f:/PSDK3/ps3dev/portlibs/ppu/lib\libtiny3d.a(tiny3d.o)
 .data.scale2D_y_viewport
                0x0000000010031048        0x4 f:/PSDK3/ps3dev/portlibs/ppu/lib\libtiny3d.a(tiny3d.o)
 .data.polygon  0x000000001003104c        0x4 f:/PSDK3/ps3dev/portlibs/ppu/lib\libtiny3d.a(tiny3d.o)
 .data          0x0000000010031050        0x0 f:/PSDK3/ps3dev/portlibs/ppu/lib\libtiny3d.a(vshader_text_normal.vcg.o)
 .data          0x0000000010031050        0x0 f:/PSDK3/ps3dev/portlibs/ppu/lib\libtiny3d.a(commands.o)
 .data          0x0000000010031050        0x0 f:/PSDK3/ps3dev/portlibs/ppu/lib\libtiny3d.a(glue.o)
 .data          0x0000000010031050        0x0 f:/PSDK3/ps3dev/portlibs/ppu/lib\libtiny3d.a(matrix.o)
 .data          0x0000000010031050        0x0 f:/PSDK3/ps3dev/portlibs/ppu/lib\libtiny3d.a(mm.o)
 .data          0x0000000010031050        0x0 f:/PSDK3/ps3dev/portlibs/ppu/lib\libtiny3d.a(realityVP.o)
 .data          0x0000000010031050        0x0 f:/PSDK3/ps3dev/portlibs/ppu/lib\libtiny3d.a(rsxutil.o)
 .data          0x0000000010031050        0x0 f:/PSDK3/ps3dev/portlibs/ppu/lib\libtiny3d.a(buffer.o)
 .data          0x0000000010031050        0x0 f:/PSDK3/psl1ght/ppu/lib\libgcm_sys.a(sprx.o)
 .data          0x0000000010031050        0x0 f:/PSDK3/psl1ght/ppu/lib\libio.a(sprx.o)
 .data          0x0000000010031050        0x0 f:/PSDK3/psl1ght/ppu/lib\libsysutil.a(sprx.o)
 .data          0x0000000010031050        0x0 f:/PSDK3/psl1ght/ppu/lib\libsysutil.a(sysutil_wrapper.o)
 .data          0x0000000010031050        0x0 f:/PSDK3/psl1ght/ppu/lib\librt.a(sbrk.o)
 .data          0x0000000010031050        0x0 f:/PSDK3/psl1ght/ppu/lib\librt.a(exit.o)
 .data          0x0000000010031050        0x0 f:/PSDK3/psl1ght/ppu/lib\librt.a(close.o)
 .data          0x0000000010031050        0x0 f:/PSDK3/psl1ght/ppu/lib\librt.a(lseek.o)
 .data          0x0000000010031050        0x0 f:/PSDK3/psl1ght/ppu/lib\librt.a(read.o)
 .data          0x0000000010031050        0x0 f:/PSDK3/psl1ght/ppu/lib\librt.a(open.o)
 .data          0x0000000010031050        0x0 f:/PSDK3/psl1ght/ppu/lib\librt.a(sleep.o)
 .data          0x0000000010031050        0x0 f:/PSDK3/psl1ght/ppu/lib\librt.a(write.o)
 .data          0x0000000010031050        0x0 f:/PSDK3/psl1ght/ppu/lib\librt.a(fstat.o)
 .data          0x0000000010031050        0x0 f:/PSDK3/psl1ght/ppu/lib\librt.a(socket.o)
 .data          0x0000000010031050        0x0 f:/PSDK3/psl1ght/ppu/lib\librt.a(lock.o)
 .data          0x0000000010031050        0x0 f:/PSDK3/psl1ght/ppu/lib\librt.a(dirent.o)
 .data          0x0000000010031050        0x0 f:/PSDK3/psl1ght/ppu/lib\librt.a(mkdir.o)
 .data          0x0000000010031050        0x0 f:/PSDK3/psl1ght/ppu/lib\librt.a(times.o)
 .data          0x0000000010031050        0x0 f:/PSDK3/psl1ght/ppu/lib\librt.a(umask.o)
 .data.g_umask  0x0000000010031050        0x4 f:/PSDK3/psl1ght/ppu/lib\librt.a(umask.o)
                0x0000000010031050                g_umask
 .data          0x0000000010031054        0x0 f:/PSDK3/psl1ght/ppu/lib\librt.a(lv2errno.o)
 .data          0x0000000010031054        0x0 f:/PSDK3/psl1ght/ppu/lib\librt.a(heap.o)
 .data          0x0000000010031054        0x0 f:/PSDK3/psl1ght/ppu/lib\librt.a(chmod.o)
 .data          0x0000000010031054        0x0 f:/PSDK3/psl1ght/ppu/lib\librt.a(rmdir.o)
 .data          0x0000000010031054        0x0 f:/PSDK3/psl1ght/ppu/lib\librt.a(isatty.o)
 .data          0x0000000010031054        0x0 f:/PSDK3/psl1ght/ppu/lib\librt.a(gettod.o)
 .data          0x0000000010031054        0x0 f:/PSDK3/psl1ght/ppu/lib\librt.a(settod.o)
 .data          0x0000000010031054        0x0 f:/PSDK3/psl1ght/ppu/lib\liblv2.a(sprx.o)
 .data          0x0000000010031054        0x0 f:/PSDK3/psl1ght/ppu/lib\libpngdec.a(pngdec.o)
 .data          0x0000000010031054        0x0 f:/PSDK3/psl1ght/ppu/lib\libpngdec.a(sprx.o)
 .data          0x0000000010031054        0x0 f:/PSDK3/psl1ght/ppu/lib\libsysmodule.a(sprx.o)
 .data          0x0000000010031054        0x0 f:/psdk3/ps3dev/ppu/bin/../lib/gcc/powerpc64-ps3-elf/4.5.2/../../../../powerpc64-ps3-elf/lib\libm.a(lib_a-s_sqrt.o)
 .data          0x0000000010031054        0x0 f:/psdk3/ps3dev/ppu/bin/../lib/gcc/powerpc64-ps3-elf/4.5.2/../../../../powerpc64-ps3-elf/lib\libm.a(lib_a-sf_cos.o)
 .data          0x0000000010031054        0x0 f:/psdk3/ps3dev/ppu/bin/../lib/gcc/powerpc64-ps3-elf/4.5.2/../../../../powerpc64-ps3-elf/lib\libm.a(lib_a-sf_sin.o)
 .data          0x0000000010031054        0x0 f:/psdk3/ps3dev/ppu/bin/../lib/gcc/powerpc64-ps3-elf/4.5.2/../../../../powerpc64-ps3-elf/lib\libm.a(lib_a-sf_sine.o)
 .data          0x0000000010031054        0x0 f:/psdk3/ps3dev/ppu/bin/../lib/gcc/powerpc64-ps3-elf/4.5.2/../../../../powerpc64-ps3-elf/lib\libm.a(lib_a-sf_sqrt.o)
 .data          0x0000000010031054        0x0 f:/psdk3/ps3dev/ppu/bin/../lib/gcc/powerpc64-ps3-elf/4.5.2/../../../../powerpc64-ps3-elf/lib\libm.a(lib_a-sf_tan.o)
 .data          0x0000000010031054        0x0 f:/psdk3/ps3dev/ppu/bin/../lib/gcc/powerpc64-ps3-elf/4.5.2/../../../../powerpc64-ps3-elf/lib\libm.a(lib_a-s_frexp.o)
 .data          0x0000000010031054        0x0 f:/psdk3/ps3dev/ppu/bin/../lib/gcc/powerpc64-ps3-elf/4.5.2/../../../../powerpc64-ps3-elf/lib\libm.a(lib_a-s_ispos.o)
 .data          0x0000000010031054        0x0 f:/psdk3/ps3dev/ppu/bin/../lib/gcc/powerpc64-ps3-elf/4.5.2/../../../../powerpc64-ps3-elf/lib\libm.a(lib_a-s_ldexp.o)
 .data          0x0000000010031054        0x0 f:/psdk3/ps3dev/ppu/bin/../lib/gcc/powerpc64-ps3-elf/4.5.2/../../../../powerpc64-ps3-elf/lib\libm.a(lib_a-s_mathcnst.o)
 *fill*         0x0000000010031054        0x4 00
 .data.z_rooteps
                0x0000000010031058        0x8 f:/psdk3/ps3dev/ppu/bin/../lib/gcc/powerpc64-ps3-elf/4.5.2/../../../../powerpc64-ps3-elf/lib\libm.a(lib_a-s_mathcnst.o)
                0x0000000010031058                z_rooteps
 .data.z_rooteps_f
                0x0000000010031060        0x4 f:/psdk3/ps3dev/ppu/bin/../lib/gcc/powerpc64-ps3-elf/4.5.2/../../../../powerpc64-ps3-elf/lib\libm.a(lib_a-s_mathcnst.o)
                0x0000000010031060                z_rooteps_f
 *fill*         0x0000000010031064        0x4 00
 .data.BIGX     0x0000000010031068        0x8 f:/psdk3/ps3dev/ppu/bin/../lib/gcc/powerpc64-ps3-elf/4.5.2/../../../../powerpc64-ps3-elf/lib\libm.a(lib_a-s_mathcnst.o)
                0x0000000010031068                BIGX
 .data.SMALLX   0x0000000010031070        0x8 f:/psdk3/ps3dev/ppu/bin/../lib/gcc/powerpc64-ps3-elf/4.5.2/../../../../powerpc64-ps3-elf/lib\libm.a(lib_a-s_mathcnst.o)
                0x0000000010031070                SMALLX
 .data          0x0000000010031078        0x0 f:/psdk3/ps3dev/ppu/bin/../lib/gcc/powerpc64-ps3-elf/4.5.2/../../../../powerpc64-ps3-elf/lib\libm.a(lib_a-s_numtest.o)
 .data          0x0000000010031078        0x0 f:/psdk3/ps3dev/ppu/bin/../lib/gcc/powerpc64-ps3-elf/4.5.2/../../../../powerpc64-ps3-elf/lib\libm.a(lib_a-sf_fabs.o)
 .data          0x0000000010031078        0x0 f:/psdk3/ps3dev/ppu/bin/../lib/gcc/powerpc64-ps3-elf/4.5.2/../../../../powerpc64-ps3-elf/lib\libm.a(lib_a-sf_frexp.o)
 .data          0x0000000010031078        0x0 f:/psdk3/ps3dev/ppu/bin/../lib/gcc/powerpc64-ps3-elf/4.5.2/../../../../powerpc64-ps3-elf/lib\libm.a(lib_a-sf_ispos.o)
 .data          0x0000000010031078        0x0 f:/psdk3/ps3dev/ppu/bin/../lib/gcc/powerpc64-ps3-elf/4.5.2/../../../../powerpc64-ps3-elf/lib\libm.a(lib_a-sf_ldexp.o)
 .data          0x0000000010031078        0x0 f:/psdk3/ps3dev/ppu/bin/../lib/gcc/powerpc64-ps3-elf/4.5.2/../../../../powerpc64-ps3-elf/lib\libm.a(lib_a-sf_numtest.o)
 .data          0x0000000010031078        0x0 f:/psdk3/ps3dev/ppu/bin/../lib/gcc/powerpc64-ps3-elf/4.5.2/../../../../powerpc64-ps3-elf/lib\libsysbase.a(syscalls.o)
 .data          0x0000000010031078        0x0 f:/psdk3/ps3dev/ppu/bin/../lib/gcc/powerpc64-ps3-elf/4.5.2/../../../../powerpc64-ps3-elf/lib\libsysbase.a(sleep.o)
 .data          0x0000000010031078        0x0 f:/psdk3/ps3dev/ppu/bin/../lib/gcc/powerpc64-ps3-elf/4.5.2/../../../../powerpc64-ps3-elf/lib\libc.a(lib_a-atexit.o)
 .data          0x0000000010031078        0x0 f:/psdk3/ps3dev/ppu/bin/../lib/gcc/powerpc64-ps3-elf/4.5.2/../../../../powerpc64-ps3-elf/lib\libc.a(lib_a-errno.o)
 .data          0x0000000010031078        0x0 f:/psdk3/ps3dev/ppu/bin/../lib/gcc/powerpc64-ps3-elf/4.5.2/../../../../powerpc64-ps3-elf/lib\libc.a(lib_a-exit.o)
 .data          0x0000000010031078        0x0 f:/psdk3/ps3dev/ppu/bin/../lib/gcc/powerpc64-ps3-elf/4.5.2/../../../../powerpc64-ps3-elf/lib\libc.a(lib_a-getreent.o)
 .data          0x0000000010031078        0x0 f:/psdk3/ps3dev/ppu/bin/../lib/gcc/powerpc64-ps3-elf/4.5.2/../../../../powerpc64-ps3-elf/lib\libc.a(lib_a-impure.o)
 .data.impure_data
                0x0000000010031078      0x778 f:/psdk3/ps3dev/ppu/bin/../lib/gcc/powerpc64-ps3-elf/4.5.2/../../../../powerpc64-ps3-elf/lib\libc.a(lib_a-impure.o)
 .data._impure_ptr
                0x00000000100317f0        0x8 f:/psdk3/ps3dev/ppu/bin/../lib/gcc/powerpc64-ps3-elf/4.5.2/../../../../powerpc64-ps3-elf/lib\libc.a(lib_a-impure.o)
                0x00000000100317f0                _impure_ptr
 .data          0x00000000100317f8        0x0 f:/psdk3/ps3dev/ppu/bin/../lib/gcc/powerpc64-ps3-elf/4.5.2/../../../../powerpc64-ps3-elf/lib\libc.a(lib_a-malign.o)
 .data          0x00000000100317f8        0x0 f:/psdk3/ps3dev/ppu/bin/../lib/gcc/powerpc64-ps3-elf/4.5.2/../../../../powerpc64-ps3-elf/lib\libc.a(lib_a-malignr.o)
 .data          0x00000000100317f8        0x0 f:/psdk3/ps3dev/ppu/bin/../lib/gcc/powerpc64-ps3-elf/4.5.2/../../../../powerpc64-ps3-elf/lib\libc.a(lib_a-malloc.o)
 .data          0x00000000100317f8        0x0 f:/psdk3/ps3dev/ppu/bin/../lib/gcc/powerpc64-ps3-elf/4.5.2/../../../../powerpc64-ps3-elf/lib\libc.a(lib_a-mallocr.o)
 .data.rel.__malloc_av_
                0x00000000100317f8      0x810 f:/psdk3/ps3dev/ppu/bin/../lib/gcc/powerpc64-ps3-elf/4.5.2/../../../../powerpc64-ps3-elf/lib\libc.a(lib_a-mallocr.o)
                0x00000000100317f8                __malloc_av_
 .data.__malloc_trim_threshold
                0x0000000010032008        0x8 f:/psdk3/ps3dev/ppu/bin/../lib/gcc/powerpc64-ps3-elf/4.5.2/../../../../powerpc64-ps3-elf/lib\libc.a(lib_a-mallocr.o)
                0x0000000010032008                __malloc_trim_threshold
 .data.__malloc_sbrk_base
                0x0000000010032010        0x8 f:/psdk3/ps3dev/ppu/bin/../lib/gcc/powerpc64-ps3-elf/4.5.2/../../../../powerpc64-ps3-elf/lib\libc.a(lib_a-mallocr.o)
                0x0000000010032010                __malloc_sbrk_base
 .data          0x0000000010032018        0x0 f:/psdk3/ps3dev/ppu/bin/../lib/gcc/powerpc64-ps3-elf/4.5.2/../../../../powerpc64-ps3-elf/lib\libc.a(lib_a-memcpy.o)
 .data          0x0000000010032018        0x0 f:/psdk3/ps3dev/ppu/bin/../lib/gcc/powerpc64-ps3-elf/4.5.2/../../../../powerpc64-ps3-elf/lib\libc.a(lib_a-memset.o)
 .data          0x0000000010032018        0x0 f:/psdk3/ps3dev/ppu/bin/../lib/gcc/powerpc64-ps3-elf/4.5.2/../../../../powerpc64-ps3-elf/lib\libc.a(lib_a-mlock.o)
 .data          0x0000000010032018        0x0 f:/psdk3/ps3dev/ppu/bin/../lib/gcc/powerpc64-ps3-elf/4.5.2/../../../../powerpc64-ps3-elf/lib\libc.a(lib_a-sscanf.o)
 .data          0x0000000010032018        0x0 f:/psdk3/ps3dev/ppu/bin/../lib/gcc/powerpc64-ps3-elf/4.5.2/../../../../powerpc64-ps3-elf/lib\libc.a(lib_a-stdio.o)
 .data          0x0000000010032018        0x0 f:/psdk3/ps3dev/ppu/bin/../lib/gcc/powerpc64-ps3-elf/4.5.2/../../../../powerpc64-ps3-elf/lib\libc.a(lib_a-strcasecmp.o)
 .data          0x0000000010032018        0x0 f:/psdk3/ps3dev/ppu/bin/../lib/gcc/powerpc64-ps3-elf/4.5.2/../../../../powerpc64-ps3-elf/lib\libc.a(lib_a-strlen.o)
 .data          0x0000000010032018        0x0 f:/psdk3/ps3dev/ppu/bin/../lib/gcc/powerpc64-ps3-elf/4.5.2/../../../../powerpc64-ps3-elf/lib\libc.a(lib_a-strncpy.o)
 .data          0x0000000010032018        0x0 f:/psdk3/ps3dev/ppu/bin/../lib/gcc/powerpc64-ps3-elf/4.5.2/../../../../powerpc64-ps3-elf/lib\libc.a(lib_a-svfscanf.o)
 .data          0x0000000010032018        0x0 f:/psdk3/ps3dev/ppu/bin/../lib/gcc/powerpc64-ps3-elf/4.5.2/../../../../powerpc64-ps3-elf/lib\libc.a(lib_a-vsprintf.o)
 .data          0x0000000010032018        0x0 f:/psdk3/ps3dev/ppu/bin/../lib/gcc/powerpc64-ps3-elf/4.5.2/../../../../powerpc64-ps3-elf/lib\libc.a(lib_a-__atexit.o)
 .data          0x0000000010032018        0x0 f:/psdk3/ps3dev/ppu/bin/../lib/gcc/powerpc64-ps3-elf/4.5.2/../../../../powerpc64-ps3-elf/lib\libc.a(lib_a-__call_atexit.o)
 .data          0x0000000010032018        0x0 f:/psdk3/ps3dev/ppu/bin/../lib/gcc/powerpc64-ps3-elf/4.5.2/../../../../powerpc64-ps3-elf/lib\libc.a(lib_a-ctype_.o)
 .data.rel.__ctype_ptr__
                0x0000000010032018        0x8 f:/psdk3/ps3dev/ppu/bin/../lib/gcc/powerpc64-ps3-elf/4.5.2/../../../../powerpc64-ps3-elf/lib\libc.a(lib_a-ctype_.o)
                0x0000000010032018                __ctype_ptr__
 .data          0x0000000010032020        0x0 f:/psdk3/ps3dev/ppu/bin/../lib/gcc/powerpc64-ps3-elf/4.5.2/../../../../powerpc64-ps3-elf/lib\libc.a(lib_a-findfp.o)
 .data          0x0000000010032020        0x0 f:/psdk3/ps3dev/ppu/bin/../lib/gcc/powerpc64-ps3-elf/4.5.2/../../../../powerpc64-ps3-elf/lib\libc.a(lib_a-freer.o)
 .data          0x0000000010032020        0x0 f:/psdk3/ps3dev/ppu/bin/../lib/gcc/powerpc64-ps3-elf/4.5.2/../../../../powerpc64-ps3-elf/lib\libc.a(lib_a-fwalk.o)
 .data          0x0000000010032020        0x0 f:/psdk3/ps3dev/ppu/bin/../lib/gcc/powerpc64-ps3-elf/4.5.2/../../../../powerpc64-ps3-elf/lib\libc.a(lib_a-iswspace.o)
 .data          0x0000000010032020        0x0 f:/psdk3/ps3dev/ppu/bin/../lib/gcc/powerpc64-ps3-elf/4.5.2/../../../../powerpc64-ps3-elf/lib\libc.a(lib_a-locale.o)
 .data.lc_message_charset
                0x0000000010032020       0x20 f:/psdk3/ps3dev/ppu/bin/../lib/gcc/powerpc64-ps3-elf/4.5.2/../../../../powerpc64-ps3-elf/lib\libc.a(lib_a-locale.o)
 .data.lconv    0x0000000010032040       0x60 f:/psdk3/ps3dev/ppu/bin/../lib/gcc/powerpc64-ps3-elf/4.5.2/../../../../powerpc64-ps3-elf/lib\libc.a(lib_a-locale.o)
 .data.lc_ctype_charset
                0x00000000100320a0       0x20 f:/psdk3/ps3dev/ppu/bin/../lib/gcc/powerpc64-ps3-elf/4.5.2/../../../../powerpc64-ps3-elf/lib\libc.a(lib_a-locale.o)
 .data.__mb_cur_max
                0x00000000100320c0        0x4 f:/psdk3/ps3dev/ppu/bin/../lib/gcc/powerpc64-ps3-elf/4.5.2/../../../../powerpc64-ps3-elf/lib\libc.a(lib_a-locale.o)
                0x00000000100320c0                __mb_cur_max
 .data          0x00000000100320c4        0x0 f:/psdk3/ps3dev/ppu/bin/../lib/gcc/powerpc64-ps3-elf/4.5.2/../../../../powerpc64-ps3-elf/lib\libc.a(lib_a-lock_recursive.o)
 .data          0x00000000100320c4        0x0 f:/psdk3/ps3dev/ppu/bin/../lib/gcc/powerpc64-ps3-elf/4.5.2/../../../../powerpc64-ps3-elf/lib\libc.a(lib_a-mbrtowc.o)
 .data          0x00000000100320c4        0x0 f:/psdk3/ps3dev/ppu/bin/../lib/gcc/powerpc64-ps3-elf/4.5.2/../../../../powerpc64-ps3-elf/lib\libc.a(lib_a-mbtowc_r.o)
 *fill*         0x00000000100320c4        0x4 00
 .data.rel.__mbtowc
                0x00000000100320c8        0x8 f:/psdk3/ps3dev/ppu/bin/../lib/gcc/powerpc64-ps3-elf/4.5.2/../../../../powerpc64-ps3-elf/lib\libc.a(lib_a-mbtowc_r.o)
                0x00000000100320c8                __mbtowc
 .data          0x00000000100320d0        0x0 f:/psdk3/ps3dev/ppu/bin/../lib/gcc/powerpc64-ps3-elf/4.5.2/../../../../powerpc64-ps3-elf/lib\libc.a(lib_a-s_fpclassify.o)
 .data          0x00000000100320d0        0x0 f:/psdk3/ps3dev/ppu/bin/../lib/gcc/powerpc64-ps3-elf/4.5.2/../../../../powerpc64-ps3-elf/lib\libc.a(lib_a-sccl.o)
 .data          0x00000000100320d0        0x0 f:/psdk3/ps3dev/ppu/bin/../lib/gcc/powerpc64-ps3-elf/4.5.2/../../../../powerpc64-ps3-elf/lib\libc.a(lib_a-sf_nan.o)
 .data          0x00000000100320d0        0x0 f:/psdk3/ps3dev/ppu/bin/../lib/gcc/powerpc64-ps3-elf/4.5.2/../../../../powerpc64-ps3-elf/lib\libc.a(lib_a-sprintf.o)
 .data          0x00000000100320d0        0x0 f:/psdk3/ps3dev/ppu/bin/../lib/gcc/powerpc64-ps3-elf/4.5.2/../../../../powerpc64-ps3-elf/lib\libc.a(lib_a-strcmp.o)
 .data          0x00000000100320d0        0x0 f:/psdk3/ps3dev/ppu/bin/../lib/gcc/powerpc64-ps3-elf/4.5.2/../../../../powerpc64-ps3-elf/lib\libc.a(lib_a-strtod.o)
 .data.fpi.2928
                0x00000000100320d0       0x14 f:/psdk3/ps3dev/ppu/bin/../lib/gcc/powerpc64-ps3-elf/4.5.2/../../../../powerpc64-ps3-elf/lib\libc.a(lib_a-strtod.o)
 .data.fpinan.2964
                0x00000000100320e4       0x14 f:/psdk3/ps3dev/ppu/bin/../lib/gcc/powerpc64-ps3-elf/4.5.2/../../../../powerpc64-ps3-elf/lib\libc.a(lib_a-strtod.o)
 .data          0x00000000100320f8        0x0 f:/psdk3/ps3dev/ppu/bin/../lib/gcc/powerpc64-ps3-elf/4.5.2/../../../../powerpc64-ps3-elf/lib\libc.a(lib_a-strtol.o)
 .data          0x00000000100320f8        0x0 f:/psdk3/ps3dev/ppu/bin/../lib/gcc/powerpc64-ps3-elf/4.5.2/../../../../powerpc64-ps3-elf/lib\libc.a(lib_a-strtoll_r.o)
 .data          0x00000000100320f8        0x0 f:/psdk3/ps3dev/ppu/bin/../lib/gcc/powerpc64-ps3-elf/4.5.2/../../../../powerpc64-ps3-elf/lib\libc.a(lib_a-strtoul.o)
 .data          0x00000000100320f8        0x0 f:/psdk3/ps3dev/ppu/bin/../lib/gcc/powerpc64-ps3-elf/4.5.2/../../../../powerpc64-ps3-elf/lib\libc.a(lib_a-strtoull_r.o)
 .data          0x00000000100320f8        0x0 f:/psdk3/ps3dev/ppu/bin/../lib/gcc/powerpc64-ps3-elf/4.5.2/../../../../powerpc64-ps3-elf/lib\libc.a(lib_a-svfiscanf.o)
 .data          0x00000000100320f8        0x0 f:/psdk3/ps3dev/ppu/bin/../lib/gcc/powerpc64-ps3-elf/4.5.2/../../../../powerpc64-ps3-elf/lib\libc.a(lib_a-svfprintf.o)
 .data          0x00000000100320f8        0x0 f:/psdk3/ps3dev/ppu/bin/../lib/gcc/powerpc64-ps3-elf/4.5.2/../../../../powerpc64-ps3-elf/lib\libc.a(lib_a-ungetc.o)
 .data          0x00000000100320f8        0x0 f:/psdk3/ps3dev/ppu/bin/../lib/gcc/powerpc64-ps3-elf/4.5.2/../../../../powerpc64-ps3-elf/lib\libc.a(lib_a-dtoa.o)
 .data          0x00000000100320f8        0x0 f:/psdk3/ps3dev/ppu/bin/../lib/gcc/powerpc64-ps3-elf/4.5.2/../../../../powerpc64-ps3-elf/lib\libc.a(lib_a-fclose.o)
 .data          0x00000000100320f8        0x0 f:/psdk3/ps3dev/ppu/bin/../lib/gcc/powerpc64-ps3-elf/4.5.2/../../../../powerpc64-ps3-elf/lib\libc.a(lib_a-fflush.o)
 .data          0x00000000100320f8        0x0 f:/psdk3/ps3dev/ppu/bin/../lib/gcc/powerpc64-ps3-elf/4.5.2/../../../../powerpc64-ps3-elf/lib\libc.a(lib_a-gdtoa-gethex.o)
 .data          0x00000000100320f8        0x0 f:/psdk3/ps3dev/ppu/bin/../lib/gcc/powerpc64-ps3-elf/4.5.2/../../../../powerpc64-ps3-elf/lib\libc.a(lib_a-gdtoa-hexnan.o)
 .data          0x00000000100320f8        0x0 f:/psdk3/ps3dev/ppu/bin/../lib/gcc/powerpc64-ps3-elf/4.5.2/../../../../powerpc64-ps3-elf/lib\libc.a(lib_a-lock_internal.o)
 .data          0x00000000100320f8        0x0 f:/psdk3/ps3dev/ppu/bin/../lib/gcc/powerpc64-ps3-elf/4.5.2/../../../../powerpc64-ps3-elf/lib\libc.a(lib_a-memchr.o)
 .data          0x00000000100320f8        0x0 f:/psdk3/ps3dev/ppu/bin/../lib/gcc/powerpc64-ps3-elf/4.5.2/../../../../powerpc64-ps3-elf/lib\libc.a(lib_a-mprec.o)
 .data          0x00000000100320f8        0x0 f:/psdk3/ps3dev/ppu/bin/../lib/gcc/powerpc64-ps3-elf/4.5.2/../../../../powerpc64-ps3-elf/lib\libc.a(lib_a-reallocr.o)
 .data          0x00000000100320f8        0x0 f:/psdk3/ps3dev/ppu/bin/../lib/gcc/powerpc64-ps3-elf/4.5.2/../../../../powerpc64-ps3-elf/lib\libc.a(lib_a-strncmp.o)
 .data          0x00000000100320f8        0x0 f:/psdk3/ps3dev/ppu/bin/../lib/gcc/powerpc64-ps3-elf/4.5.2/../../../../powerpc64-ps3-elf/lib\libc.a(lib_a-svfiprintf.o)
 .data          0x00000000100320f8        0x0 f:/psdk3/ps3dev/ppu/bin/../lib/gcc/powerpc64-ps3-elf/4.5.2/../../../../powerpc64-ps3-elf/lib\libc.a(lib_a-abort.o)
 .data          0x00000000100320f8        0x0 f:/psdk3/ps3dev/ppu/bin/../lib/gcc/powerpc64-ps3-elf/4.5.2/../../../../powerpc64-ps3-elf/lib\libc.a(lib_a-callocr.o)
 .data          0x00000000100320f8        0x0 f:/psdk3/ps3dev/ppu/bin/../lib/gcc/powerpc64-ps3-elf/4.5.2/../../../../powerpc64-ps3-elf/lib\libc.a(lib_a-memmove.o)
 .data          0x00000000100320f8        0x0 f:/psdk3/ps3dev/ppu/bin/../lib/gcc/powerpc64-ps3-elf/4.5.2/../../../../powerpc64-ps3-elf/lib\libc.a(lib_a-signal.o)
 .data          0x00000000100320f8        0x0 f:/psdk3/ps3dev/ppu/bin/../lib/gcc/powerpc64-ps3-elf/4.5.2/../../../../powerpc64-ps3-elf/lib\libsysbase.a(close.o)
 .data          0x00000000100320f8        0x0 f:/psdk3/ps3dev/ppu/bin/../lib/gcc/powerpc64-ps3-elf/4.5.2/../../../../powerpc64-ps3-elf/lib\libsysbase.a(sbrk.o)
 .data          0x00000000100320f8        0x0 f:/psdk3/ps3dev/ppu/bin/../lib/gcc/powerpc64-ps3-elf/4.5.2/../../../../powerpc64-ps3-elf/lib\libsysbase.a(_exit.o)
 .data          0x00000000100320f8        0x0 f:/psdk3/ps3dev/ppu/bin/../lib/gcc/powerpc64-ps3-elf/4.5.2/../../../../powerpc64-ps3-elf/lib\libsysbase.a(lseek.o)
 .data          0x00000000100320f8        0x0 f:/psdk3/ps3dev/ppu/bin/../lib/gcc/powerpc64-ps3-elf/4.5.2/../../../../powerpc64-ps3-elf/lib\libsysbase.a(read.o)
 .data          0x00000000100320f8        0x0 f:/psdk3/ps3dev/ppu/bin/../lib/gcc/powerpc64-ps3-elf/4.5.2/../../../../powerpc64-ps3-elf/lib\libsysbase.a(write.o)
 .data          0x00000000100320f8        0x0 f:/psdk3/ps3dev/ppu/bin/../lib/gcc/powerpc64-ps3-elf/4.5.2/../../../../powerpc64-ps3-elf/lib\libsysbase.a(lock.o)
 .data          0x00000000100320f8        0x0 f:/psdk3/ps3dev/ppu/bin/../lib/gcc/powerpc64-ps3-elf/4.5.2/../../../../powerpc64-ps3-elf/lib\libsysbase.a(getpid.o)
 .data          0x00000000100320f8        0x0 f:/psdk3/ps3dev/ppu/bin/../lib/gcc/powerpc64-ps3-elf/4.5.2/../../../../powerpc64-ps3-elf/lib\libsysbase.a(kill.o)
 .data          0x00000000100320f8        0x0 f:/psdk3/ps3dev/ppu/bin/../lib/gcc/powerpc64-ps3-elf/4.5.2/crtend.o
 .data          0x00000000100320f8        0x0 f:/psdk3/ps3dev/ppu/bin/../lib/gcc/powerpc64-ps3-elf/4.5.2/../../../../powerpc64-ps3-elf/lib/lv2-crtn.o
 *(.gnu.linkonce.d.*personality*)

.data1
 *(.data1)

.sdata
 *(.sdata .sdata.* .gnu.linkonce.s.*)
                0x00000000100320f8                _edata = .
                0x00000000100320f8                PROVIDE (edata, .)
                0x00000000100320f8                __bss_start = .

.tocbss
 *(.tocbss)

.sbss           0x00000000100320f8        0x0
                0x00000000100320f8                PROVIDE (__sbss_start, .)
                0x00000000100320f8                PROVIDE (___sbss_start, .)
 *(.dynsbss)
 *(.sbss .sbss.* .gnu.linkonce.sb.*)
 *(.scommon)
                0x00000000100320f8                PROVIDE (__sbss_end, .)
                0x00000000100320f8                PROVIDE (___sbss_end, .)

.plt
 *(.plt)

.bss            0x0000000010032100    0x160a8
 *(.dynbss)
 *(.bss .bss.* .gnu.linkonce.b.*)
 .bss           0x0000000010032100        0x0 f:/psdk3/ps3dev/ppu/bin/../lib/gcc/powerpc64-ps3-elf/4.5.2/../../../../powerpc64-ps3-elf/lib/lv2-crti.o
 .bss           0x0000000010032100        0x0 f:/psdk3/ps3dev/ppu/bin/../lib/gcc/powerpc64-ps3-elf/4.5.2/crtbegin.o
 .bss.completed.4302
                0x0000000010032100        0x1 f:/psdk3/ps3dev/ppu/bin/../lib/gcc/powerpc64-ps3-elf/4.5.2/crtbegin.o
 *fill*         0x0000000010032101        0x7 00
 .bss.dtor_idx.4304
                0x0000000010032108        0x8 f:/psdk3/ps3dev/ppu/bin/../lib/gcc/powerpc64-ps3-elf/4.5.2/crtbegin.o
 .bss.object.4314
                0x0000000010032110       0x30 f:/psdk3/ps3dev/ppu/bin/../lib/gcc/powerpc64-ps3-elf/4.5.2/crtbegin.o
 .bss           0x0000000010032140        0x8 f:/psdk3/ps3dev/ppu/bin/../lib/gcc/powerpc64-ps3-elf/4.5.2/../../../../powerpc64-ps3-elf/lib/lv2-crt0.o
                0x0000000010032140                __libc_stack_end
 .bss           0x0000000010032148        0x0 f:/psdk3/ps3dev/ppu/bin/../lib/gcc/powerpc64-ps3-elf/4.5.2/../../../../powerpc64-ps3-elf/lib/lv2-sprx.o
 .bss           0x0000000010032148        0x0 picture_png.bin.o
 .bss           0x0000000010032148        0x0 main.o
 .bss           0x0000000010032148        0x0 msxfont.o
 .bss           0x0000000010032148        0x0 f:/PSDK3/ps3dev/portlibs/ppu/lib\libfont.a(libfont.o)
 .bss.letter_bitmap.4570
                0x0000000010032148    0x10100 f:/PSDK3/ps3dev/portlibs/ppu/lib\libfont.a(libfont.o)
 .bss.font_datas
                0x0000000010042248     0x2124 f:/PSDK3/ps3dev/portlibs/ppu/lib\libfont.a(libfont.o)
 *fill*         0x000000001004436c        0x4 00
 .bss.buff      0x0000000010044370     0x1000 f:/PSDK3/ps3dev/portlibs/ppu/lib\libfont.a(libfont.o)
 .bss           0x0000000010045370        0x0 f:/PSDK3/ps3dev/portlibs/ppu/lib\libtiny3d.a(tiny3d.o)
 .bss.data_shader
                0x0000000010045370      0x708 f:/PSDK3/ps3dev/portlibs/ppu/lib\libtiny3d.a(tiny3d.o)
 .bss.tiny3d_menu_open
                0x0000000010045a78        0x4 f:/PSDK3/ps3dev/portlibs/ppu/lib\libtiny3d.a(tiny3d.o)
 *fill*         0x0000000010045a7c        0x4 00
 .bss.CtrlReg   0x0000000010045a80        0x8 f:/PSDK3/ps3dev/portlibs/ppu/lib\libtiny3d.a(tiny3d.o)
 .bss.grab_list
                0x0000000010045a88        0x4 f:/PSDK3/ps3dev/portlibs/ppu/lib\libtiny3d.a(tiny3d.o)
 .bss.tinyerror_incallback
                0x0000000010045a8c        0x4 f:/PSDK3/ps3dev/portlibs/ppu/lib\libtiny3d.a(tiny3d.o)
                0x0000000010045a8c                tinyerror_incallback
 .bss.off_head_vertex
                0x0000000010045a90        0x4 f:/PSDK3/ps3dev/portlibs/ppu/lib\libtiny3d.a(tiny3d.o)
 .bss.y_viewport_2D
                0x0000000010045a94        0x4 f:/PSDK3/ps3dev/portlibs/ppu/lib\libtiny3d.a(tiny3d.o)
 .bss.pos_rsx_vertex
                0x0000000010045a98        0x4 f:/PSDK3/ps3dev/portlibs/ppu/lib\libtiny3d.a(tiny3d.o)
 .bss.set_apply_matrix
                0x0000000010045a9c        0x4 f:/PSDK3/ps3dev/portlibs/ppu/lib\libtiny3d.a(tiny3d.o)
 .bss.tiny3d_drawing_status
                0x0000000010045aa0        0x4 f:/PSDK3/ps3dev/portlibs/ppu/lib\libtiny3d.a(tiny3d.o)
 .bss.y_viewport_3D
                0x0000000010045aa4        0x4 f:/PSDK3/ps3dev/portlibs/ppu/lib\libtiny3d.a(tiny3d.o)
 .bss.enable_yuv
                0x0000000010045aa8        0x4 f:/PSDK3/ps3dev/portlibs/ppu/lib\libtiny3d.a(tiny3d.o)
 .bss.user_viewport
                0x0000000010045aac        0x4 f:/PSDK3/ps3dev/portlibs/ppu/lib\libtiny3d.a(tiny3d.o)
 .bss.material  0x0000000010045ab0       0x40 f:/PSDK3/ps3dev/portlibs/ppu/lib\libtiny3d.a(tiny3d.o)
 .bss.select_fp
                0x0000000010045af0        0x4 f:/PSDK3/ps3dev/portlibs/ppu/lib\libtiny3d.a(tiny3d.o)
 *fill*         0x0000000010045af4        0x4 00
 .bss.last_list
                0x0000000010045af8        0x8 f:/PSDK3/ps3dev/portlibs/ppu/lib\libtiny3d.a(tiny3d.o)
 .bss.tinycallback_flag
                0x0000000010045b00        0x4 f:/PSDK3/ps3dev/portlibs/ppu/lib\libtiny3d.a(tiny3d.o)
                0x0000000010045b00                tinycallback_flag
 .bss.project_mat
                0x0000000010045b04       0x40 f:/PSDK3/ps3dev/portlibs/ppu/lib\libtiny3d.a(tiny3d.o)
 *fill*         0x0000000010045b44        0x4 00
 .bss.curr_list
                0x0000000010045b48        0x8 f:/PSDK3/ps3dev/portlibs/ppu/lib\libtiny3d.a(tiny3d.o)
 .bss.apply_matrix
                0x0000000010045b50       0x40 f:/PSDK3/ps3dev/portlibs/ppu/lib\libtiny3d.a(tiny3d.o)
 .bss.model_view
                0x0000000010045b90       0x40 f:/PSDK3/ps3dev/portlibs/ppu/lib\libtiny3d.a(tiny3d.o)
 .bss.tiny_3d_alarm
                0x0000000010045bd0        0x4 f:/PSDK3/ps3dev/portlibs/ppu/lib\libtiny3d.a(tiny3d.o)
 .bss.off_vtx.5075
                0x0000000010045bd4        0x4 f:/PSDK3/ps3dev/portlibs/ppu/lib\libtiny3d.a(tiny3d.o)
 .bss.x_viewport_3D
                0x0000000010045bd8        0x4 f:/PSDK3/ps3dev/portlibs/ppu/lib\libtiny3d.a(tiny3d.o)
 .bss.render_target
                0x0000000010045bdc       0x10 f:/PSDK3/ps3dev/portlibs/ppu/lib\libtiny3d.a(tiny3d.o)
 .bss.n_vertex  0x0000000010045bec        0x4 f:/PSDK3/ps3dev/portlibs/ppu/lib\libtiny3d.a(tiny3d.o)
 .bss.light     0x0000000010045bf0       0xa0 f:/PSDK3/ps3dev/portlibs/ppu/lib\libtiny3d.a(tiny3d.o)
 .bss.Video_currentBuffer
                0x0000000010045c90        0x4 f:/PSDK3/ps3dev/portlibs/ppu/lib\libtiny3d.a(tiny3d.o)
                0x0000000010045c90                Video_currentBuffer
 .bss.inited    0x0000000010045c94        0x4 f:/PSDK3/ps3dev/portlibs/ppu/lib\libtiny3d.a(tiny3d.o)
 .bss.off_start_vertex
                0x0000000010045c98        0x4 f:/PSDK3/ps3dev/portlibs/ppu/lib\libtiny3d.a(tiny3d.o)
 *fill*         0x0000000010045c9c        0x4 00
 .bss.rsx_vertex
                0x0000000010045ca0        0x8 f:/PSDK3/ps3dev/portlibs/ppu/lib\libtiny3d.a(tiny3d.o)
 .bss.flag_vertex
                0x0000000010045ca8        0x4 f:/PSDK3/ps3dev/portlibs/ppu/lib\libtiny3d.a(tiny3d.o)
 *fill*         0x0000000010045cac        0x4 00
 .bss.list_base
                0x0000000010045cb0        0x8 f:/PSDK3/ps3dev/portlibs/ppu/lib\libtiny3d.a(tiny3d.o)
 .bss.use_2d    0x0000000010045cb8        0x4 f:/PSDK3/ps3dev/portlibs/ppu/lib\libtiny3d.a(tiny3d.o)
 .bss.x_viewport_2D
                0x0000000010045cbc        0x4 f:/PSDK3/ps3dev/portlibs/ppu/lib\libtiny3d.a(tiny3d.o)
 .bss.curr_list_index
                0x0000000010045cc0        0x4 f:/PSDK3/ps3dev/portlibs/ppu/lib\libtiny3d.a(tiny3d.o)
 .bss.vertex_data
                0x0000000010045cc4       0x40 f:/PSDK3/ps3dev/portlibs/ppu/lib\libtiny3d.a(tiny3d.o)
 .bss           0x0000000010045d04        0x0 f:/PSDK3/ps3dev/portlibs/ppu/lib\libtiny3d.a(vshader_text_normal.vcg.o)
 .bss           0x0000000010045d04        0x0 f:/PSDK3/ps3dev/portlibs/ppu/lib\libtiny3d.a(commands.o)
 .bss           0x0000000010045d04        0x0 f:/PSDK3/ps3dev/portlibs/ppu/lib\libtiny3d.a(glue.o)
 .bss           0x0000000010045d04        0x0 f:/PSDK3/ps3dev/portlibs/ppu/lib\libtiny3d.a(matrix.o)
 .bss           0x0000000010045d04        0x0 f:/PSDK3/ps3dev/portlibs/ppu/lib\libtiny3d.a(mm.o)
 .bss.initialized
                0x0000000010045d04        0x1 f:/PSDK3/ps3dev/portlibs/ppu/lib\libtiny3d.a(mm.o)
 .bss           0x0000000010045d05        0x0 f:/PSDK3/ps3dev/portlibs/ppu/lib\libtiny3d.a(realityVP.o)
 .bss           0x0000000010045d05        0x0 f:/PSDK3/ps3dev/portlibs/ppu/lib\libtiny3d.a(rsxutil.o)
 *fill*         0x0000000010045d05        0x3 00
 .bss.depth_buffer
                0x0000000010045d08        0x8 f:/PSDK3/ps3dev/portlibs/ppu/lib\libtiny3d.a(rsxutil.o)
 .bss.depth_offset
                0x0000000010045d10        0x4 f:/PSDK3/ps3dev/portlibs/ppu/lib\libtiny3d.a(rsxutil.o)
 *fill*         0x0000000010045d14        0x4 00
 .bss.tiny_host_addr
                0x0000000010045d18        0x8 f:/PSDK3/ps3dev/portlibs/ppu/lib\libtiny3d.a(rsxutil.o)
                0x0000000010045d18                tiny_host_addr
 .bss.zformat   0x0000000010045d20        0x4 f:/PSDK3/ps3dev/portlibs/ppu/lib\libtiny3d.a(rsxutil.o)
 .bss.offset    0x0000000010045d24        0x8 f:/PSDK3/ps3dev/portlibs/ppu/lib\libtiny3d.a(rsxutil.o)
 .bss.depth_pitch
                0x0000000010045d2c        0x4 f:/PSDK3/ps3dev/portlibs/ppu/lib\libtiny3d.a(rsxutil.o)
 .bss           0x0000000010045d30        0x0 f:/PSDK3/ps3dev/portlibs/ppu/lib\libtiny3d.a(buffer.o)
 .bss           0x0000000010045d30        0x0 f:/PSDK3/psl1ght/ppu/lib\libgcm_sys.a(sprx.o)
 .bss           0x0000000010045d30        0x0 f:/PSDK3/psl1ght/ppu/lib\libio.a(sprx.o)
 .bss           0x0000000010045d30        0x0 f:/PSDK3/psl1ght/ppu/lib\libsysutil.a(sprx.o)
 .bss           0x0000000010045d30        0x0 f:/PSDK3/psl1ght/ppu/lib\libsysutil.a(sysutil_wrapper.o)
 .bss           0x0000000010045d30        0x0 f:/PSDK3/psl1ght/ppu/lib\librt.a(sbrk.o)
 .bss.__sbrk_baseaddr
                0x0000000010045d30        0x4 f:/PSDK3/psl1ght/ppu/lib\librt.a(sbrk.o)
 *fill*         0x0000000010045d34        0x4 00
 .bss.__sbrk_curr_regionentry
                0x0000000010045d38        0x8 f:/PSDK3/psl1ght/ppu/lib\librt.a(sbrk.o)
 .bss.__region_list_entries
                0x0000000010045d40     0x2020 f:/PSDK3/psl1ght/ppu/lib\librt.a(sbrk.o)
 .bss.__sbrk_spinlock
                0x0000000010047d60        0x4 f:/PSDK3/psl1ght/ppu/lib\librt.a(sbrk.o)
 *fill*         0x0000000010047d64        0x4 00
 .bss.__region_heap
                0x0000000010047d68       0x48 f:/PSDK3/psl1ght/ppu/lib\librt.a(sbrk.o)
 .bss           0x0000000010047db0        0x0 f:/PSDK3/psl1ght/ppu/lib\librt.a(exit.o)
 .bss           0x0000000010047db0        0x0 f:/PSDK3/psl1ght/ppu/lib\librt.a(close.o)
 .bss           0x0000000010047db0        0x0 f:/PSDK3/psl1ght/ppu/lib\librt.a(lseek.o)
 .bss           0x0000000010047db0        0x0 f:/PSDK3/psl1ght/ppu/lib\librt.a(read.o)
 .bss           0x0000000010047db0        0x0 f:/PSDK3/psl1ght/ppu/lib\librt.a(open.o)
 .bss           0x0000000010047db0        0x0 f:/PSDK3/psl1ght/ppu/lib\librt.a(sleep.o)
 .bss           0x0000000010047db0        0x0 f:/PSDK3/psl1ght/ppu/lib\librt.a(write.o)
 .bss           0x0000000010047db0        0x0 f:/PSDK3/psl1ght/ppu/lib\librt.a(fstat.o)
 .bss           0x0000000010047db0        0x0 f:/PSDK3/psl1ght/ppu/lib\librt.a(socket.o)
 .bss           0x0000000010047db0        0x0 f:/PSDK3/psl1ght/ppu/lib\librt.a(lock.o)
 .bss           0x0000000010047db0        0x0 f:/PSDK3/psl1ght/ppu/lib\librt.a(dirent.o)
 .bss           0x0000000010047db0        0x0 f:/PSDK3/psl1ght/ppu/lib\librt.a(mkdir.o)
 .bss           0x0000000010047db0        0x0 f:/PSDK3/psl1ght/ppu/lib\librt.a(times.o)
 .bss           0x0000000010047db0        0x0 f:/PSDK3/psl1ght/ppu/lib\librt.a(umask.o)
 .bss           0x0000000010047db0        0x0 f:/PSDK3/psl1ght/ppu/lib\librt.a(lv2errno.o)
 .bss           0x0000000010047db0        0x0 f:/PSDK3/psl1ght/ppu/lib\librt.a(heap.o)
 .bss           0x0000000010047db0        0x0 f:/PSDK3/psl1ght/ppu/lib\librt.a(chmod.o)
 .bss           0x0000000010047db0        0x0 f:/PSDK3/psl1ght/ppu/lib\librt.a(rmdir.o)
 .bss           0x0000000010047db0        0x0 f:/PSDK3/psl1ght/ppu/lib\librt.a(isatty.o)
 .bss           0x0000000010047db0        0x0 f:/PSDK3/psl1ght/ppu/lib\librt.a(gettod.o)
 .bss           0x0000000010047db0        0x0 f:/PSDK3/psl1ght/ppu/lib\librt.a(settod.o)
 .bss           0x0000000010047db0        0x0 f:/PSDK3/psl1ght/ppu/lib\liblv2.a(sprx.o)
 .bss           0x0000000010047db0        0x0 f:/PSDK3/psl1ght/ppu/lib\libpngdec.a(pngdec.o)
 .bss           0x0000000010047db0        0x0 f:/PSDK3/psl1ght/ppu/lib\libpngdec.a(sprx.o)
 .bss           0x0000000010047db0        0x0 f:/PSDK3/psl1ght/ppu/lib\libsysmodule.a(sprx.o)
 .bss           0x0000000010047db0        0x0 f:/psdk3/ps3dev/ppu/bin/../lib/gcc/powerpc64-ps3-elf/4.5.2/../../../../powerpc64-ps3-elf/lib\libm.a(lib_a-s_sqrt.o)
 .bss           0x0000000010047db0        0x0 f:/psdk3/ps3dev/ppu/bin/../lib/gcc/powerpc64-ps3-elf/4.5.2/../../../../powerpc64-ps3-elf/lib\libm.a(lib_a-sf_cos.o)
 .bss           0x0000000010047db0        0x0 f:/psdk3/ps3dev/ppu/bin/../lib/gcc/powerpc64-ps3-elf/4.5.2/../../../../powerpc64-ps3-elf/lib\libm.a(lib_a-sf_sin.o)
 .bss           0x0000000010047db0        0x0 f:/psdk3/ps3dev/ppu/bin/../lib/gcc/powerpc64-ps3-elf/4.5.2/../../../../powerpc64-ps3-elf/lib\libm.a(lib_a-sf_sine.o)
 .bss           0x0000000010047db0        0x0 f:/psdk3/ps3dev/ppu/bin/../lib/gcc/powerpc64-ps3-elf/4.5.2/../../../../powerpc64-ps3-elf/lib\libm.a(lib_a-sf_sqrt.o)
 .bss           0x0000000010047db0        0x0 f:/psdk3/ps3dev/ppu/bin/../lib/gcc/powerpc64-ps3-elf/4.5.2/../../../../powerpc64-ps3-elf/lib\libm.a(lib_a-sf_tan.o)
 .bss           0x0000000010047db0        0x0 f:/psdk3/ps3dev/ppu/bin/../lib/gcc/powerpc64-ps3-elf/4.5.2/../../../../powerpc64-ps3-elf/lib\libm.a(lib_a-s_frexp.o)
 .bss           0x0000000010047db0        0x0 f:/psdk3/ps3dev/ppu/bin/../lib/gcc/powerpc64-ps3-elf/4.5.2/../../../../powerpc64-ps3-elf/lib\libm.a(lib_a-s_ispos.o)
 .bss           0x0000000010047db0        0x0 f:/psdk3/ps3dev/ppu/bin/../lib/gcc/powerpc64-ps3-elf/4.5.2/../../../../powerpc64-ps3-elf/lib\libm.a(lib_a-s_ldexp.o)
 .bss           0x0000000010047db0        0x0 f:/psdk3/ps3dev/ppu/bin/../lib/gcc/powerpc64-ps3-elf/4.5.2/../../../../powerpc64-ps3-elf/lib\libm.a(lib_a-s_mathcnst.o)
 .bss           0x0000000010047db0        0x0 f:/psdk3/ps3dev/ppu/bin/../lib/gcc/powerpc64-ps3-elf/4.5.2/../../../../powerpc64-ps3-elf/lib\libm.a(lib_a-s_numtest.o)
 .bss           0x0000000010047db0        0x0 f:/psdk3/ps3dev/ppu/bin/../lib/gcc/powerpc64-ps3-elf/4.5.2/../../../../powerpc64-ps3-elf/lib\libm.a(lib_a-sf_fabs.o)
 .bss           0x0000000010047db0        0x0 f:/psdk3/ps3dev/ppu/bin/../lib/gcc/powerpc64-ps3-elf/4.5.2/../../../../powerpc64-ps3-elf/lib\libm.a(lib_a-sf_frexp.o)
 .bss           0x0000000010047db0        0x0 f:/psdk3/ps3dev/ppu/bin/../lib/gcc/powerpc64-ps3-elf/4.5.2/../../../../powerpc64-ps3-elf/lib\libm.a(lib_a-sf_ispos.o)
 .bss           0x0000000010047db0        0x0 f:/psdk3/ps3dev/ppu/bin/../lib/gcc/powerpc64-ps3-elf/4.5.2/../../../../powerpc64-ps3-elf/lib\libm.a(lib_a-sf_ldexp.o)
 .bss           0x0000000010047db0        0x0 f:/psdk3/ps3dev/ppu/bin/../lib/gcc/powerpc64-ps3-elf/4.5.2/../../../../powerpc64-ps3-elf/lib\libm.a(lib_a-sf_numtest.o)
 .bss           0x0000000010047db0        0x0 f:/psdk3/ps3dev/ppu/bin/../lib/gcc/powerpc64-ps3-elf/4.5.2/../../../../powerpc64-ps3-elf/lib\libsysbase.a(syscalls.o)
 .bss.__syscalls
                0x0000000010047db0      0x170 f:/psdk3/ps3dev/ppu/bin/../lib/gcc/powerpc64-ps3-elf/4.5.2/../../../../powerpc64-ps3-elf/lib\libsysbase.a(syscalls.o)
                0x0000000010047db0                __syscalls
 .bss           0x0000000010047f20        0x0 f:/psdk3/ps3dev/ppu/bin/../lib/gcc/powerpc64-ps3-elf/4.5.2/../../../../powerpc64-ps3-elf/lib\libsysbase.a(sleep.o)
 .bss           0x0000000010047f20        0x0 f:/psdk3/ps3dev/ppu/bin/../lib/gcc/powerpc64-ps3-elf/4.5.2/../../../../powerpc64-ps3-elf/lib\libc.a(lib_a-atexit.o)
 .bss           0x0000000010047f20        0x0 f:/psdk3/ps3dev/ppu/bin/../lib/gcc/powerpc64-ps3-elf/4.5.2/../../../../powerpc64-ps3-elf/lib\libc.a(lib_a-errno.o)
 .bss           0x0000000010047f20        0x0 f:/psdk3/ps3dev/ppu/bin/../lib/gcc/powerpc64-ps3-elf/4.5.2/../../../../powerpc64-ps3-elf/lib\libc.a(lib_a-exit.o)
 .bss           0x0000000010047f20        0x0 f:/psdk3/ps3dev/ppu/bin/../lib/gcc/powerpc64-ps3-elf/4.5.2/../../../../powerpc64-ps3-elf/lib\libc.a(lib_a-getreent.o)
 .bss           0x0000000010047f20        0x0 f:/psdk3/ps3dev/ppu/bin/../lib/gcc/powerpc64-ps3-elf/4.5.2/../../../../powerpc64-ps3-elf/lib\libc.a(lib_a-impure.o)
 .bss           0x0000000010047f20        0x0 f:/psdk3/ps3dev/ppu/bin/../lib/gcc/powerpc64-ps3-elf/4.5.2/../../../../powerpc64-ps3-elf/lib\libc.a(lib_a-malign.o)
 .bss           0x0000000010047f20        0x0 f:/psdk3/ps3dev/ppu/bin/../lib/gcc/powerpc64-ps3-elf/4.5.2/../../../../powerpc64-ps3-elf/lib\libc.a(lib_a-malignr.o)
 .bss           0x0000000010047f20        0x0 f:/psdk3/ps3dev/ppu/bin/../lib/gcc/powerpc64-ps3-elf/4.5.2/../../../../powerpc64-ps3-elf/lib\libc.a(lib_a-malloc.o)
 .bss           0x0000000010047f20        0x0 f:/psdk3/ps3dev/ppu/bin/../lib/gcc/powerpc64-ps3-elf/4.5.2/../../../../powerpc64-ps3-elf/lib\libc.a(lib_a-mallocr.o)
 .bss.__malloc_max_total_mem
                0x0000000010047f20        0x8 f:/psdk3/ps3dev/ppu/bin/../lib/gcc/powerpc64-ps3-elf/4.5.2/../../../../powerpc64-ps3-elf/lib\libc.a(lib_a-mallocr.o)
                0x0000000010047f20                __malloc_max_total_mem
 .bss.__malloc_max_sbrked_mem
                0x0000000010047f28        0x8 f:/psdk3/ps3dev/ppu/bin/../lib/gcc/powerpc64-ps3-elf/4.5.2/../../../../powerpc64-ps3-elf/lib\libc.a(lib_a-mallocr.o)
                0x0000000010047f28                __malloc_max_sbrked_mem
 .bss.__malloc_top_pad
                0x0000000010047f30        0x8 f:/psdk3/ps3dev/ppu/bin/../lib/gcc/powerpc64-ps3-elf/4.5.2/../../../../powerpc64-ps3-elf/lib\libc.a(lib_a-mallocr.o)
                0x0000000010047f30                __malloc_top_pad
 .bss.__malloc_current_mallinfo
                0x0000000010047f38       0x28 f:/psdk3/ps3dev/ppu/bin/../lib/gcc/powerpc64-ps3-elf/4.5.2/../../../../powerpc64-ps3-elf/lib\libc.a(lib_a-mallocr.o)
                0x0000000010047f38                __malloc_current_mallinfo
 .bss           0x0000000010047f60        0x0 f:/psdk3/ps3dev/ppu/bin/../lib/gcc/powerpc64-ps3-elf/4.5.2/../../../../powerpc64-ps3-elf/lib\libc.a(lib_a-memcpy.o)
 .bss           0x0000000010047f60        0x0 f:/psdk3/ps3dev/ppu/bin/../lib/gcc/powerpc64-ps3-elf/4.5.2/../../../../powerpc64-ps3-elf/lib\libc.a(lib_a-memset.o)
 .bss           0x0000000010047f60        0x0 f:/psdk3/ps3dev/ppu/bin/../lib/gcc/powerpc64-ps3-elf/4.5.2/../../../../powerpc64-ps3-elf/lib\libc.a(lib_a-mlock.o)
 .bss.__malloc_lock_object
                0x0000000010047f60       0x18 f:/psdk3/ps3dev/ppu/bin/../lib/gcc/powerpc64-ps3-elf/4.5.2/../../../../powerpc64-ps3-elf/lib\libc.a(lib_a-mlock.o)
 .bss           0x0000000010047f78        0x0 f:/psdk3/ps3dev/ppu/bin/../lib/gcc/powerpc64-ps3-elf/4.5.2/../../../../powerpc64-ps3-elf/lib\libc.a(lib_a-sscanf.o)
 .bss           0x0000000010047f78        0x0 f:/psdk3/ps3dev/ppu/bin/../lib/gcc/powerpc64-ps3-elf/4.5.2/../../../../powerpc64-ps3-elf/lib\libc.a(lib_a-stdio.o)
 .bss           0x0000000010047f78        0x0 f:/psdk3/ps3dev/ppu/bin/../lib/gcc/powerpc64-ps3-elf/4.5.2/../../../../powerpc64-ps3-elf/lib\libc.a(lib_a-strcasecmp.o)
 .bss           0x0000000010047f78        0x0 f:/psdk3/ps3dev/ppu/bin/../lib/gcc/powerpc64-ps3-elf/4.5.2/../../../../powerpc64-ps3-elf/lib\libc.a(lib_a-strlen.o)
 .bss           0x0000000010047f78        0x0 f:/psdk3/ps3dev/ppu/bin/../lib/gcc/powerpc64-ps3-elf/4.5.2/../../../../powerpc64-ps3-elf/lib\libc.a(lib_a-strncpy.o)
 .bss           0x0000000010047f78        0x0 f:/psdk3/ps3dev/ppu/bin/../lib/gcc/powerpc64-ps3-elf/4.5.2/../../../../powerpc64-ps3-elf/lib\libc.a(lib_a-svfscanf.o)
 .bss           0x0000000010047f78        0x0 f:/psdk3/ps3dev/ppu/bin/../lib/gcc/powerpc64-ps3-elf/4.5.2/../../../../powerpc64-ps3-elf/lib\libc.a(lib_a-vsprintf.o)
 .bss           0x0000000010047f78        0x0 f:/psdk3/ps3dev/ppu/bin/../lib/gcc/powerpc64-ps3-elf/4.5.2/../../../../powerpc64-ps3-elf/lib\libc.a(lib_a-__atexit.o)
 .bss.__atexit_lock
                0x0000000010047f78       0x18 f:/psdk3/ps3dev/ppu/bin/../lib/gcc/powerpc64-ps3-elf/4.5.2/../../../../powerpc64-ps3-elf/lib\libc.a(lib_a-__atexit.o)
                0x0000000010047f78                __atexit_lock
 .bss           0x0000000010047f90        0x0 f:/psdk3/ps3dev/ppu/bin/../lib/gcc/powerpc64-ps3-elf/4.5.2/../../../../powerpc64-ps3-elf/lib\libc.a(lib_a-__call_atexit.o)
 .bss           0x0000000010047f90        0x0 f:/psdk3/ps3dev/ppu/bin/../lib/gcc/powerpc64-ps3-elf/4.5.2/../../../../powerpc64-ps3-elf/lib\libc.a(lib_a-ctype_.o)
 .bss           0x0000000010047f90        0x0 f:/psdk3/ps3dev/ppu/bin/../lib/gcc/powerpc64-ps3-elf/4.5.2/../../../../powerpc64-ps3-elf/lib\libc.a(lib_a-findfp.o)
 .bss.__sfp_lock
                0x0000000010047f90       0x18 f:/psdk3/ps3dev/ppu/bin/../lib/gcc/powerpc64-ps3-elf/4.5.2/../../../../powerpc64-ps3-elf/lib\libc.a(lib_a-findfp.o)
 .bss.__sinit_lock
                0x0000000010047fa8       0x18 f:/psdk3/ps3dev/ppu/bin/../lib/gcc/powerpc64-ps3-elf/4.5.2/../../../../powerpc64-ps3-elf/lib\libc.a(lib_a-findfp.o)
 .bss           0x0000000010047fc0        0x0 f:/psdk3/ps3dev/ppu/bin/../lib/gcc/powerpc64-ps3-elf/4.5.2/../../../../powerpc64-ps3-elf/lib\libc.a(lib_a-freer.o)
 .bss           0x0000000010047fc0        0x0 f:/psdk3/ps3dev/ppu/bin/../lib/gcc/powerpc64-ps3-elf/4.5.2/../../../../powerpc64-ps3-elf/lib\libc.a(lib_a-fwalk.o)
 .bss           0x0000000010047fc0        0x0 f:/psdk3/ps3dev/ppu/bin/../lib/gcc/powerpc64-ps3-elf/4.5.2/../../../../powerpc64-ps3-elf/lib\libc.a(lib_a-iswspace.o)
 .bss           0x0000000010047fc0        0x0 f:/psdk3/ps3dev/ppu/bin/../lib/gcc/powerpc64-ps3-elf/4.5.2/../../../../powerpc64-ps3-elf/lib\libc.a(lib_a-locale.o)
 .bss._PathLocale
                0x0000000010047fc0        0x8 f:/psdk3/ps3dev/ppu/bin/../lib/gcc/powerpc64-ps3-elf/4.5.2/../../../../powerpc64-ps3-elf/lib\libc.a(lib_a-locale.o)
                0x0000000010047fc0                _PathLocale
 .bss.__nlocale_changed
                0x0000000010047fc8        0x4 f:/psdk3/ps3dev/ppu/bin/../lib/gcc/powerpc64-ps3-elf/4.5.2/../../../../powerpc64-ps3-elf/lib\libc.a(lib_a-locale.o)
                0x0000000010047fc8                __nlocale_changed
 .bss.__mlocale_changed
                0x0000000010047fcc        0x4 f:/psdk3/ps3dev/ppu/bin/../lib/gcc/powerpc64-ps3-elf/4.5.2/../../../../powerpc64-ps3-elf/lib\libc.a(lib_a-locale.o)
                0x0000000010047fcc                __mlocale_changed
 .bss           0x0000000010047fd0        0x0 f:/psdk3/ps3dev/ppu/bin/../lib/gcc/powerpc64-ps3-elf/4.5.2/../../../../powerpc64-ps3-elf/lib\libc.a(lib_a-lock_recursive.o)
 .bss           0x0000000010047fd0        0x0 f:/psdk3/ps3dev/ppu/bin/../lib/gcc/powerpc64-ps3-elf/4.5.2/../../../../powerpc64-ps3-elf/lib\libc.a(lib_a-mbrtowc.o)
 .bss           0x0000000010047fd0        0x0 f:/psdk3/ps3dev/ppu/bin/../lib/gcc/powerpc64-ps3-elf/4.5.2/../../../../powerpc64-ps3-elf/lib\libc.a(lib_a-mbtowc_r.o)
 .bss           0x0000000010047fd0        0x0 f:/psdk3/ps3dev/ppu/bin/../lib/gcc/powerpc64-ps3-elf/4.5.2/../../../../powerpc64-ps3-elf/lib\libc.a(lib_a-s_fpclassify.o)
 .bss           0x0000000010047fd0        0x0 f:/psdk3/ps3dev/ppu/bin/../lib/gcc/powerpc64-ps3-elf/4.5.2/../../../../powerpc64-ps3-elf/lib\libc.a(lib_a-sccl.o)
 .bss           0x0000000010047fd0        0x0 f:/psdk3/ps3dev/ppu/bin/../lib/gcc/powerpc64-ps3-elf/4.5.2/../../../../powerpc64-ps3-elf/lib\libc.a(lib_a-sf_nan.o)
 .bss           0x0000000010047fd0        0x0 f:/psdk3/ps3dev/ppu/bin/../lib/gcc/powerpc64-ps3-elf/4.5.2/../../../../powerpc64-ps3-elf/lib\libc.a(lib_a-sprintf.o)
 .bss           0x0000000010047fd0        0x0 f:/psdk3/ps3dev/ppu/bin/../lib/gcc/powerpc64-ps3-elf/4.5.2/../../../../powerpc64-ps3-elf/lib\libc.a(lib_a-strcmp.o)
 .bss           0x0000000010047fd0        0x0 f:/psdk3/ps3dev/ppu/bin/../lib/gcc/powerpc64-ps3-elf/4.5.2/../../../../powerpc64-ps3-elf/lib\libc.a(lib_a-strtod.o)
 .bss           0x0000000010047fd0        0x0 f:/psdk3/ps3dev/ppu/bin/../lib/gcc/powerpc64-ps3-elf/4.5.2/../../../../powerpc64-ps3-elf/lib\libc.a(lib_a-strtol.o)
 .bss           0x0000000010047fd0        0x0 f:/psdk3/ps3dev/ppu/bin/../lib/gcc/powerpc64-ps3-elf/4.5.2/../../../../powerpc64-ps3-elf/lib\libc.a(lib_a-strtoll_r.o)
 .bss           0x0000000010047fd0        0x0 f:/psdk3/ps3dev/ppu/bin/../lib/gcc/powerpc64-ps3-elf/4.5.2/../../../../powerpc64-ps3-elf/lib\libc.a(lib_a-strtoul.o)
 .bss           0x0000000010047fd0        0x0 f:/psdk3/ps3dev/ppu/bin/../lib/gcc/powerpc64-ps3-elf/4.5.2/../../../../powerpc64-ps3-elf/lib\libc.a(lib_a-strtoull_r.o)
 .bss           0x0000000010047fd0        0x0 f:/psdk3/ps3dev/ppu/bin/../lib/gcc/powerpc64-ps3-elf/4.5.2/../../../../powerpc64-ps3-elf/lib\libc.a(lib_a-svfiscanf.o)
 .bss           0x0000000010047fd0        0x0 f:/psdk3/ps3dev/ppu/bin/../lib/gcc/powerpc64-ps3-elf/4.5.2/../../../../powerpc64-ps3-elf/lib\libc.a(lib_a-svfprintf.o)
 .bss           0x0000000010047fd0        0x0 f:/psdk3/ps3dev/ppu/bin/../lib/gcc/powerpc64-ps3-elf/4.5.2/../../../../powerpc64-ps3-elf/lib\libc.a(lib_a-ungetc.o)
 .bss           0x0000000010047fd0        0x0 f:/psdk3/ps3dev/ppu/bin/../lib/gcc/powerpc64-ps3-elf/4.5.2/../../../../powerpc64-ps3-elf/lib\libc.a(lib_a-dtoa.o)
 .bss           0x0000000010047fd0        0x0 f:/psdk3/ps3dev/ppu/bin/../lib/gcc/powerpc64-ps3-elf/4.5.2/../../../../powerpc64-ps3-elf/lib\libc.a(lib_a-fclose.o)
 .bss           0x0000000010047fd0        0x0 f:/psdk3/ps3dev/ppu/bin/../lib/gcc/powerpc64-ps3-elf/4.5.2/../../../../powerpc64-ps3-elf/lib\libc.a(lib_a-fflush.o)
 .bss           0x0000000010047fd0        0x0 f:/psdk3/ps3dev/ppu/bin/../lib/gcc/powerpc64-ps3-elf/4.5.2/../../../../powerpc64-ps3-elf/lib\libc.a(lib_a-gdtoa-gethex.o)
 .bss           0x0000000010047fd0        0x0 f:/psdk3/ps3dev/ppu/bin/../lib/gcc/powerpc64-ps3-elf/4.5.2/../../../../powerpc64-ps3-elf/lib\libc.a(lib_a-gdtoa-hexnan.o)
 .bss           0x0000000010047fd0        0x0 f:/psdk3/ps3dev/ppu/bin/../lib/gcc/powerpc64-ps3-elf/4.5.2/../../../../powerpc64-ps3-elf/lib\libc.a(lib_a-lock_internal.o)
 .bss.metaLock  0x0000000010047fd0       0x18 f:/psdk3/ps3dev/ppu/bin/../lib/gcc/powerpc64-ps3-elf/4.5.2/../../../../powerpc64-ps3-elf/lib\libc.a(lib_a-lock_internal.o)
 .bss           0x0000000010047fe8        0x0 f:/psdk3/ps3dev/ppu/bin/../lib/gcc/powerpc64-ps3-elf/4.5.2/../../../../powerpc64-ps3-elf/lib\libc.a(lib_a-memchr.o)
 .bss           0x0000000010047fe8        0x0 f:/psdk3/ps3dev/ppu/bin/../lib/gcc/powerpc64-ps3-elf/4.5.2/../../../../powerpc64-ps3-elf/lib\libc.a(lib_a-mprec.o)
 .bss           0x0000000010047fe8        0x0 f:/psdk3/ps3dev/ppu/bin/../lib/gcc/powerpc64-ps3-elf/4.5.2/../../../../powerpc64-ps3-elf/lib\libc.a(lib_a-reallocr.o)
 .bss           0x0000000010047fe8        0x0 f:/psdk3/ps3dev/ppu/bin/../lib/gcc/powerpc64-ps3-elf/4.5.2/../../../../powerpc64-ps3-elf/lib\libc.a(lib_a-strncmp.o)
 .bss           0x0000000010047fe8        0x0 f:/psdk3/ps3dev/ppu/bin/../lib/gcc/powerpc64-ps3-elf/4.5.2/../../../../powerpc64-ps3-elf/lib\libc.a(lib_a-svfiprintf.o)
 .bss           0x0000000010047fe8        0x0 f:/psdk3/ps3dev/ppu/bin/../lib/gcc/powerpc64-ps3-elf/4.5.2/../../../../powerpc64-ps3-elf/lib\libc.a(lib_a-abort.o)
 .bss           0x0000000010047fe8        0x0 f:/psdk3/ps3dev/ppu/bin/../lib/gcc/powerpc64-ps3-elf/4.5.2/../../../../powerpc64-ps3-elf/lib\libc.a(lib_a-callocr.o)
 .bss           0x0000000010047fe8        0x0 f:/psdk3/ps3dev/ppu/bin/../lib/gcc/powerpc64-ps3-elf/4.5.2/../../../../powerpc64-ps3-elf/lib\libc.a(lib_a-memmove.o)
 .bss           0x0000000010047fe8        0x0 f:/psdk3/ps3dev/ppu/bin/../lib/gcc/powerpc64-ps3-elf/4.5.2/../../../../powerpc64-ps3-elf/lib\libc.a(lib_a-signal.o)
 .bss           0x0000000010047fe8        0x0 f:/psdk3/ps3dev/ppu/bin/../lib/gcc/powerpc64-ps3-elf/4.5.2/../../../../powerpc64-ps3-elf/lib\libsysbase.a(close.o)
 .bss           0x0000000010047fe8        0x0 f:/psdk3/ps3dev/ppu/bin/../lib/gcc/powerpc64-ps3-elf/4.5.2/../../../../powerpc64-ps3-elf/lib\libsysbase.a(sbrk.o)
 .bss           0x0000000010047fe8        0x0 f:/psdk3/ps3dev/ppu/bin/../lib/gcc/powerpc64-ps3-elf/4.5.2/../../../../powerpc64-ps3-elf/lib\libsysbase.a(_exit.o)
 .bss           0x0000000010047fe8        0x0 f:/psdk3/ps3dev/ppu/bin/../lib/gcc/powerpc64-ps3-elf/4.5.2/../../../../powerpc64-ps3-elf/lib\libsysbase.a(lseek.o)
 .bss           0x0000000010047fe8        0x0 f:/psdk3/ps3dev/ppu/bin/../lib/gcc/powerpc64-ps3-elf/4.5.2/../../../../powerpc64-ps3-elf/lib\libsysbase.a(read.o)
 .bss           0x0000000010047fe8        0x0 f:/psdk3/ps3dev/ppu/bin/../lib/gcc/powerpc64-ps3-elf/4.5.2/../../../../powerpc64-ps3-elf/lib\libsysbase.a(write.o)
 .bss           0x0000000010047fe8        0x0 f:/psdk3/ps3dev/ppu/bin/../lib/gcc/powerpc64-ps3-elf/4.5.2/../../../../powerpc64-ps3-elf/lib\libsysbase.a(lock.o)
 .bss           0x0000000010047fe8        0x0 f:/psdk3/ps3dev/ppu/bin/../lib/gcc/powerpc64-ps3-elf/4.5.2/../../../../powerpc64-ps3-elf/lib\libsysbase.a(getpid.o)
 .bss           0x0000000010047fe8        0x0 f:/psdk3/ps3dev/ppu/bin/../lib/gcc/powerpc64-ps3-elf/4.5.2/../../../../powerpc64-ps3-elf/lib\libsysbase.a(kill.o)
 .bss           0x0000000010047fe8        0x0 f:/psdk3/ps3dev/ppu/bin/../lib/gcc/powerpc64-ps3-elf/4.5.2/crtend.o
 .bss           0x0000000010047fe8        0x0 f:/psdk3/ps3dev/ppu/bin/../lib/gcc/powerpc64-ps3-elf/4.5.2/../../../../powerpc64-ps3-elf/lib/lv2-crtn.o
 *(COMMON)
 COMMON         0x0000000010047fe8       0x78 main.o
                0x0000000010047fe8                texture
                0x0000000010048048                png1
 COMMON         0x0000000010048060       0x20 f:/PSDK3/ps3dev/portlibs/ppu/lib\libtiny3d.a(mm.o)
                0x0000000010048060                heap_pointer
                0x0000000010048068                config
 COMMON         0x0000000010048080       0x24 f:/PSDK3/ps3dev/portlibs/ppu/lib\libtiny3d.a(rsxutil.o)
                0x0000000010048080                Video_buffer
                0x0000000010048090                Video_aspect
                0x0000000010048094                Video_pitch
                0x0000000010048098                context
                0x00000000100480a0                Video_Resolution
 *fill*         0x00000000100480a4        0x4 00
 COMMON         0x00000000100480a8      0x100 f:/psdk3/ps3dev/ppu/bin/../lib/gcc/powerpc64-ps3-elf/4.5.2/../../../../powerpc64-ps3-elf/lib\libc.a(lib_a-gdtoa-gethex.o)
                0x00000000100480a8                __hexdig
                0x00000000100481a8                . = ALIGN (0x8)

.iplt           0x00000000100481a8        0x0
 .iplt          0x0000000000000000        0x0 linker stubs
                0x0000000020000000                . = ALIGN (0x10000000)

.rsx_image
 *(.rsx_*)
                0x0000000020000000                _end = .
                0x0000000020000000                __end = .
                0x0000000020000000                PROVIDE (end, .)
                0x0000000020000000                . = ALIGN (0x8)

.stab
 *(.stab)

.stabstr
 *(.stabstr)

.stab.excl
 *(.stab.excl)

.stab.exclstr
 *(.stab.exclstr)

.stab.index
 *(.stab.index)

.stab.indexstr
 *(.stab.indexstr)

.comment        0x0000000000000000       0x11
 *(.comment)
 .comment       0x0000000000000000       0x11 f:/psdk3/ps3dev/ppu/bin/../lib/gcc/powerpc64-ps3-elf/4.5.2/crtbegin.o
                                         0x12 (size before relaxing)
 .comment       0x0000000000000000       0x12 f:/psdk3/ps3dev/ppu/bin/../lib/gcc/powerpc64-ps3-elf/4.5.2/../../../../powerpc64-ps3-elf/lib/lv2-crt0.o
 .comment       0x0000000000000000       0x12 main.o
 .comment       0x0000000000000000       0x12 msxfont.o
 .comment       0x0000000000000000       0x12 f:/PSDK3/ps3dev/portlibs/ppu/lib\libfont.a(libfont.o)
 .comment       0x0000000000000000       0x12 f:/PSDK3/ps3dev/portlibs/ppu/lib\libtiny3d.a(tiny3d.o)
 .comment       0x0000000000000000       0x12 f:/PSDK3/ps3dev/portlibs/ppu/lib\libtiny3d.a(commands.o)
 .comment       0x0000000000000000       0x12 f:/PSDK3/ps3dev/portlibs/ppu/lib\libtiny3d.a(glue.o)
 .comment       0x0000000000000000       0x12 f:/PSDK3/ps3dev/portlibs/ppu/lib\libtiny3d.a(matrix.o)
 .comment       0x0000000000000000       0x12 f:/PSDK3/ps3dev/portlibs/ppu/lib\libtiny3d.a(mm.o)
 .comment       0x0000000000000000       0x12 f:/PSDK3/ps3dev/portlibs/ppu/lib\libtiny3d.a(realityVP.o)
 .comment       0x0000000000000000       0x12 f:/PSDK3/ps3dev/portlibs/ppu/lib\libtiny3d.a(rsxutil.o)
 .comment       0x0000000000000000       0x12 f:/PSDK3/ps3dev/portlibs/ppu/lib\libtiny3d.a(buffer.o)
 .comment       0x0000000000000000       0x12 f:/PSDK3/psl1ght/ppu/lib\libgcm_sys.a(sprx.o)
 .comment       0x0000000000000000       0x12 f:/PSDK3/psl1ght/ppu/lib\libio.a(sprx.o)
 .comment       0x0000000000000000       0x12 f:/PSDK3/psl1ght/ppu/lib\libsysutil.a(sprx.o)
 .comment       0x0000000000000000       0x12 f:/PSDK3/psl1ght/ppu/lib\libsysutil.a(sysutil_wrapper.o)
 .comment       0x0000000000000000       0x12 f:/PSDK3/psl1ght/ppu/lib\librt.a(sbrk.o)
 .comment       0x0000000000000000       0x12 f:/PSDK3/psl1ght/ppu/lib\librt.a(exit.o)
 .comment       0x0000000000000000       0x12 f:/PSDK3/psl1ght/ppu/lib\librt.a(close.o)
 .comment       0x0000000000000000       0x12 f:/PSDK3/psl1ght/ppu/lib\librt.a(lseek.o)
 .comment       0x0000000000000000       0x12 f:/PSDK3/psl1ght/ppu/lib\librt.a(read.o)
 .comment       0x0000000000000000       0x12 f:/PSDK3/psl1ght/ppu/lib\librt.a(open.o)
 .comment       0x0000000000000000       0x12 f:/PSDK3/psl1ght/ppu/lib\librt.a(sleep.o)
 .comment       0x0000000000000000       0x12 f:/PSDK3/psl1ght/ppu/lib\librt.a(write.o)
 .comment       0x0000000000000000       0x12 f:/PSDK3/psl1ght/ppu/lib\librt.a(fstat.o)
 .comment       0x0000000000000000       0x12 f:/PSDK3/psl1ght/ppu/lib\librt.a(socket.o)
 .comment       0x0000000000000000       0x12 f:/PSDK3/psl1ght/ppu/lib\librt.a(lock.o)
 .comment       0x0000000000000000       0x12 f:/PSDK3/psl1ght/ppu/lib\librt.a(dirent.o)
 .comment       0x0000000000000000       0x12 f:/PSDK3/psl1ght/ppu/lib\librt.a(mkdir.o)
 .comment       0x0000000000000000       0x12 f:/PSDK3/psl1ght/ppu/lib\librt.a(times.o)
 .comment       0x0000000000000000       0x12 f:/PSDK3/psl1ght/ppu/lib\librt.a(umask.o)
 .comment       0x0000000000000000       0x12 f:/PSDK3/psl1ght/ppu/lib\librt.a(lv2errno.o)
 .comment       0x0000000000000000       0x12 f:/PSDK3/psl1ght/ppu/lib\librt.a(heap.o)
 .comment       0x0000000000000000       0x12 f:/PSDK3/psl1ght/ppu/lib\librt.a(chmod.o)
 .comment       0x0000000000000000       0x12 f:/PSDK3/psl1ght/ppu/lib\librt.a(rmdir.o)
 .comment       0x0000000000000000       0x12 f:/PSDK3/psl1ght/ppu/lib\librt.a(isatty.o)
 .comment       0x0000000000000000       0x12 f:/PSDK3/psl1ght/ppu/lib\librt.a(gettod.o)
 .comment       0x0000000000000000       0x12 f:/PSDK3/psl1ght/ppu/lib\librt.a(settod.o)
 .comment       0x0000000000000000       0x12 f:/PSDK3/psl1ght/ppu/lib\liblv2.a(sprx.o)
 .comment       0x0000000000000000       0x12 f:/PSDK3/psl1ght/ppu/lib\libpngdec.a(pngdec.o)
 .comment       0x0000000000000000       0x12 f:/PSDK3/psl1ght/ppu/lib\libpngdec.a(sprx.o)
 .comment       0x0000000000000000       0x12 f:/PSDK3/psl1ght/ppu/lib\libsysmodule.a(sprx.o)
 .comment       0x0000000000000000       0x12 f:/psdk3/ps3dev/ppu/bin/../lib/gcc/powerpc64-ps3-elf/4.5.2/../../../../powerpc64-ps3-elf/lib\libm.a(lib_a-s_sqrt.o)
 .comment       0x0000000000000000       0x12 f:/psdk3/ps3dev/ppu/bin/../lib/gcc/powerpc64-ps3-elf/4.5.2/../../../../powerpc64-ps3-elf/lib\libm.a(lib_a-sf_cos.o)
 .comment       0x0000000000000000       0x12 f:/psdk3/ps3dev/ppu/bin/../lib/gcc/powerpc64-ps3-elf/4.5.2/../../../../powerpc64-ps3-elf/lib\libm.a(lib_a-sf_sin.o)
 .comment       0x0000000000000000       0x12 f:/psdk3/ps3dev/ppu/bin/../lib/gcc/powerpc64-ps3-elf/4.5.2/../../../../powerpc64-ps3-elf/lib\libm.a(lib_a-sf_sine.o)
 .comment       0x0000000000000000       0x12 f:/psdk3/ps3dev/ppu/bin/../lib/gcc/powerpc64-ps3-elf/4.5.2/../../../../powerpc64-ps3-elf/lib\libm.a(lib_a-sf_sqrt.o)
 .comment       0x0000000000000000       0x12 f:/psdk3/ps3dev/ppu/bin/../lib/gcc/powerpc64-ps3-elf/4.5.2/../../../../powerpc64-ps3-elf/lib\libm.a(lib_a-sf_tan.o)
 .comment       0x0000000000000000       0x12 f:/psdk3/ps3dev/ppu/bin/../lib/gcc/powerpc64-ps3-elf/4.5.2/../../../../powerpc64-ps3-elf/lib\libm.a(lib_a-s_frexp.o)
 .comment       0x0000000000000000       0x12 f:/psdk3/ps3dev/ppu/bin/../lib/gcc/powerpc64-ps3-elf/4.5.2/../../../../powerpc64-ps3-elf/lib\libm.a(lib_a-s_ispos.o)
 .comment       0x0000000000000000       0x12 f:/psdk3/ps3dev/ppu/bin/../lib/gcc/powerpc64-ps3-elf/4.5.2/../../../../powerpc64-ps3-elf/lib\libm.a(lib_a-s_ldexp.o)
 .comment       0x0000000000000000       0x12 f:/psdk3/ps3dev/ppu/bin/../lib/gcc/powerpc64-ps3-elf/4.5.2/../../../../powerpc64-ps3-elf/lib\libm.a(lib_a-s_mathcnst.o)
 .comment       0x0000000000000000       0x12 f:/psdk3/ps3dev/ppu/bin/../lib/gcc/powerpc64-ps3-elf/4.5.2/../../../../powerpc64-ps3-elf/lib\libm.a(lib_a-s_numtest.o)
 .comment       0x0000000000000000       0x12 f:/psdk3/ps3dev/ppu/bin/../lib/gcc/powerpc64-ps3-elf/4.5.2/../../../../powerpc64-ps3-elf/lib\libm.a(lib_a-sf_fabs.o)
 .comment       0x0000000000000000       0x12 f:/psdk3/ps3dev/ppu/bin/../lib/gcc/powerpc64-ps3-elf/4.5.2/../../../../powerpc64-ps3-elf/lib\libm.a(lib_a-sf_frexp.o)
 .comment       0x0000000000000000       0x12 f:/psdk3/ps3dev/ppu/bin/../lib/gcc/powerpc64-ps3-elf/4.5.2/../../../../powerpc64-ps3-elf/lib\libm.a(lib_a-sf_ispos.o)
 .comment       0x0000000000000000       0x12 f:/psdk3/ps3dev/ppu/bin/../lib/gcc/powerpc64-ps3-elf/4.5.2/../../../../powerpc64-ps3-elf/lib\libm.a(lib_a-sf_ldexp.o)
 .comment       0x0000000000000000       0x12 f:/psdk3/ps3dev/ppu/bin/../lib/gcc/powerpc64-ps3-elf/4.5.2/../../../../powerpc64-ps3-elf/lib\libm.a(lib_a-sf_numtest.o)
 .comment       0x0000000000000000       0x12 f:/psdk3/ps3dev/ppu/bin/../lib/gcc/powerpc64-ps3-elf/4.5.2/../../../../powerpc64-ps3-elf/lib\libsysbase.a(syscalls.o)
 .comment       0x0000000000000000       0x12 f:/psdk3/ps3dev/ppu/bin/../lib/gcc/powerpc64-ps3-elf/4.5.2/../../../../powerpc64-ps3-elf/lib\libsysbase.a(sleep.o)
 .comment       0x0000000000000000       0x12 f:/psdk3/ps3dev/ppu/bin/../lib/gcc/powerpc64-ps3-elf/4.5.2/../../../../powerpc64-ps3-elf/lib\libc.a(lib_a-atexit.o)
 .comment       0x0000000000000000       0x12 f:/psdk3/ps3dev/ppu/bin/../lib/gcc/powerpc64-ps3-elf/4.5.2/../../../../powerpc64-ps3-elf/lib\libc.a(lib_a-errno.o)
 .comment       0x0000000000000000       0x12 f:/psdk3/ps3dev/ppu/bin/../lib/gcc/powerpc64-ps3-elf/4.5.2/../../../../powerpc64-ps3-elf/lib\libc.a(lib_a-exit.o)
 .comment       0x0000000000000000       0x12 f:/psdk3/ps3dev/ppu/bin/../lib/gcc/powerpc64-ps3-elf/4.5.2/../../../../powerpc64-ps3-elf/lib\libc.a(lib_a-getreent.o)
 .comment       0x0000000000000000       0x12 f:/psdk3/ps3dev/ppu/bin/../lib/gcc/powerpc64-ps3-elf/4.5.2/../../../../powerpc64-ps3-elf/lib\libc.a(lib_a-impure.o)
 .comment       0x0000000000000000       0x12 f:/psdk3/ps3dev/ppu/bin/../lib/gcc/powerpc64-ps3-elf/4.5.2/../../../../powerpc64-ps3-elf/lib\libc.a(lib_a-malign.o)
 .comment       0x0000000000000000       0x12 f:/psdk3/ps3dev/ppu/bin/../lib/gcc/powerpc64-ps3-elf/4.5.2/../../../../powerpc64-ps3-elf/lib\libc.a(lib_a-malignr.o)
 .comment       0x0000000000000000       0x12 f:/psdk3/ps3dev/ppu/bin/../lib/gcc/powerpc64-ps3-elf/4.5.2/../../../../powerpc64-ps3-elf/lib\libc.a(lib_a-malloc.o)
 .comment       0x0000000000000000       0x12 f:/psdk3/ps3dev/ppu/bin/../lib/gcc/powerpc64-ps3-elf/4.5.2/../../../../powerpc64-ps3-elf/lib\libc.a(lib_a-mallocr.o)
 .comment       0x0000000000000000       0x12 f:/psdk3/ps3dev/ppu/bin/../lib/gcc/powerpc64-ps3-elf/4.5.2/../../../../powerpc64-ps3-elf/lib\libc.a(lib_a-memcpy.o)
 .comment       0x0000000000000000       0x12 f:/psdk3/ps3dev/ppu/bin/../lib/gcc/powerpc64-ps3-elf/4.5.2/../../../../powerpc64-ps3-elf/lib\libc.a(lib_a-memset.o)
 .comment       0x0000000000000000       0x12 f:/psdk3/ps3dev/ppu/bin/../lib/gcc/powerpc64-ps3-elf/4.5.2/../../../../powerpc64-ps3-elf/lib\libc.a(lib_a-mlock.o)
 .comment       0x0000000000000000       0x12 f:/psdk3/ps3dev/ppu/bin/../lib/gcc/powerpc64-ps3-elf/4.5.2/../../../../powerpc64-ps3-elf/lib\libc.a(lib_a-sscanf.o)
 .comment       0x0000000000000000       0x12 f:/psdk3/ps3dev/ppu/bin/../lib/gcc/powerpc64-ps3-elf/4.5.2/../../../../powerpc64-ps3-elf/lib\libc.a(lib_a-stdio.o)
 .comment       0x0000000000000000       0x12 f:/psdk3/ps3dev/ppu/bin/../lib/gcc/powerpc64-ps3-elf/4.5.2/../../../../powerpc64-ps3-elf/lib\libc.a(lib_a-strcasecmp.o)
 .comment       0x0000000000000000       0x12 f:/psdk3/ps3dev/ppu/bin/../lib/gcc/powerpc64-ps3-elf/4.5.2/../../../../powerpc64-ps3-elf/lib\libc.a(lib_a-strlen.o)
 .comment       0x0000000000000000       0x12 f:/psdk3/ps3dev/ppu/bin/../lib/gcc/powerpc64-ps3-elf/4.5.2/../../../../powerpc64-ps3-elf/lib\libc.a(lib_a-strncpy.o)
 .comment       0x0000000000000000       0x12 f:/psdk3/ps3dev/ppu/bin/../lib/gcc/powerpc64-ps3-elf/4.5.2/../../../../powerpc64-ps3-elf/lib\libc.a(lib_a-svfscanf.o)
 .comment       0x0000000000000000       0x12 f:/psdk3/ps3dev/ppu/bin/../lib/gcc/powerpc64-ps3-elf/4.5.2/../../../../powerpc64-ps3-elf/lib\libc.a(lib_a-vsprintf.o)
 .comment       0x0000000000000000       0x12 f:/psdk3/ps3dev/ppu/bin/../lib/gcc/powerpc64-ps3-elf/4.5.2/../../../../powerpc64-ps3-elf/lib\libc.a(lib_a-__atexit.o)
 .comment       0x0000000000000000       0x12 f:/psdk3/ps3dev/ppu/bin/../lib/gcc/powerpc64-ps3-elf/4.5.2/../../../../powerpc64-ps3-elf/lib\libc.a(lib_a-__call_atexit.o)
 .comment       0x0000000000000000       0x12 f:/psdk3/ps3dev/ppu/bin/../lib/gcc/powerpc64-ps3-elf/4.5.2/../../../../powerpc64-ps3-elf/lib\libc.a(lib_a-ctype_.o)
 .comment       0x0000000000000000       0x12 f:/psdk3/ps3dev/ppu/bin/../lib/gcc/powerpc64-ps3-elf/4.5.2/../../../../powerpc64-ps3-elf/lib\libc.a(lib_a-findfp.o)
 .comment       0x0000000000000000       0x12 f:/psdk3/ps3dev/ppu/bin/../lib/gcc/powerpc64-ps3-elf/4.5.2/../../../../powerpc64-ps3-elf/lib\libc.a(lib_a-freer.o)
 .comment       0x0000000000000000       0x12 f:/psdk3/ps3dev/ppu/bin/../lib/gcc/powerpc64-ps3-elf/4.5.2/../../../../powerpc64-ps3-elf/lib\libc.a(lib_a-fwalk.o)
 .comment       0x0000000000000000       0x12 f:/psdk3/ps3dev/ppu/bin/../lib/gcc/powerpc64-ps3-elf/4.5.2/../../../../powerpc64-ps3-elf/lib\libc.a(lib_a-iswspace.o)
 .comment       0x0000000000000000       0x12 f:/psdk3/ps3dev/ppu/bin/../lib/gcc/powerpc64-ps3-elf/4.5.2/../../../../powerpc64-ps3-elf/lib\libc.a(lib_a-locale.o)
 .comment       0x0000000000000000       0x12 f:/psdk3/ps3dev/ppu/bin/../lib/gcc/powerpc64-ps3-elf/4.5.2/../../../../powerpc64-ps3-elf/lib\libc.a(lib_a-lock_recursive.o)
 .comment       0x0000000000000000       0x12 f:/psdk3/ps3dev/ppu/bin/../lib/gcc/powerpc64-ps3-elf/4.5.2/../../../../powerpc64-ps3-elf/lib\libc.a(lib_a-mbrtowc.o)
 .comment       0x0000000000000000       0x12 f:/psdk3/ps3dev/ppu/bin/../lib/gcc/powerpc64-ps3-elf/4.5.2/../../../../powerpc64-ps3-elf/lib\libc.a(lib_a-mbtowc_r.o)
 .comment       0x0000000000000000       0x12 f:/psdk3/ps3dev/ppu/bin/../lib/gcc/powerpc64-ps3-elf/4.5.2/../../../../powerpc64-ps3-elf/lib\libc.a(lib_a-s_fpclassify.o)
 .comment       0x0000000000000000       0x12 f:/psdk3/ps3dev/ppu/bin/../lib/gcc/powerpc64-ps3-elf/4.5.2/../../../../powerpc64-ps3-elf/lib\libc.a(lib_a-sccl.o)
 .comment       0x0000000000000000       0x12 f:/psdk3/ps3dev/ppu/bin/../lib/gcc/powerpc64-ps3-elf/4.5.2/../../../../powerpc64-ps3-elf/lib\libc.a(lib_a-sf_nan.o)
 .comment       0x0000000000000000       0x12 f:/psdk3/ps3dev/ppu/bin/../lib/gcc/powerpc64-ps3-elf/4.5.2/../../../../powerpc64-ps3-elf/lib\libc.a(lib_a-sprintf.o)
 .comment       0x0000000000000000       0x12 f:/psdk3/ps3dev/ppu/bin/../lib/gcc/powerpc64-ps3-elf/4.5.2/../../../../powerpc64-ps3-elf/lib\libc.a(lib_a-strcmp.o)
 .comment       0x0000000000000000       0x12 f:/psdk3/ps3dev/ppu/bin/../lib/gcc/powerpc64-ps3-elf/4.5.2/../../../../powerpc64-ps3-elf/lib\libc.a(lib_a-strtod.o)
 .comment       0x0000000000000000       0x12 f:/psdk3/ps3dev/ppu/bin/../lib/gcc/powerpc64-ps3-elf/4.5.2/../../../../powerpc64-ps3-elf/lib\libc.a(lib_a-strtol.o)
 .comment       0x0000000000000000       0x12 f:/psdk3/ps3dev/ppu/bin/../lib/gcc/powerpc64-ps3-elf/4.5.2/../../../../powerpc64-ps3-elf/lib\libc.a(lib_a-strtoll_r.o)
 .comment       0x0000000000000000       0x12 f:/psdk3/ps3dev/ppu/bin/../lib/gcc/powerpc64-ps3-elf/4.5.2/../../../../powerpc64-ps3-elf/lib\libc.a(lib_a-strtoul.o)
 .comment       0x0000000000000000       0x12 f:/psdk3/ps3dev/ppu/bin/../lib/gcc/powerpc64-ps3-elf/4.5.2/../../../../powerpc64-ps3-elf/lib\libc.a(lib_a-strtoull_r.o)
 .comment       0x0000000000000000       0x12 f:/psdk3/ps3dev/ppu/bin/../lib/gcc/powerpc64-ps3-elf/4.5.2/../../../../powerpc64-ps3-elf/lib\libc.a(lib_a-svfiscanf.o)
 .comment       0x0000000000000000       0x12 f:/psdk3/ps3dev/ppu/bin/../lib/gcc/powerpc64-ps3-elf/4.5.2/../../../../powerpc64-ps3-elf/lib\libc.a(lib_a-svfprintf.o)
 .comment       0x0000000000000000       0x12 f:/psdk3/ps3dev/ppu/bin/../lib/gcc/powerpc64-ps3-elf/4.5.2/../../../../powerpc64-ps3-elf/lib\libc.a(lib_a-ungetc.o)
 .comment       0x0000000000000000       0x12 f:/psdk3/ps3dev/ppu/bin/../lib/gcc/powerpc64-ps3-elf/4.5.2/../../../../powerpc64-ps3-elf/lib\libc.a(lib_a-dtoa.o)
 .comment       0x0000000000000000       0x12 f:/psdk3/ps3dev/ppu/bin/../lib/gcc/powerpc64-ps3-elf/4.5.2/../../../../powerpc64-ps3-elf/lib\libc.a(lib_a-fclose.o)
 .comment       0x0000000000000000       0x12 f:/psdk3/ps3dev/ppu/bin/../lib/gcc/powerpc64-ps3-elf/4.5.2/../../../../powerpc64-ps3-elf/lib\libc.a(lib_a-fflush.o)
 .comment       0x0000000000000000       0x12 f:/psdk3/ps3dev/ppu/bin/../lib/gcc/powerpc64-ps3-elf/4.5.2/../../../../powerpc64-ps3-elf/lib\libc.a(lib_a-gdtoa-gethex.o)
 .comment       0x0000000000000000       0x12 f:/psdk3/ps3dev/ppu/bin/../lib/gcc/powerpc64-ps3-elf/4.5.2/../../../../powerpc64-ps3-elf/lib\libc.a(lib_a-gdtoa-hexnan.o)
 .comment       0x0000000000000000       0x12 f:/psdk3/ps3dev/ppu/bin/../lib/gcc/powerpc64-ps3-elf/4.5.2/../../../../powerpc64-ps3-elf/lib\libc.a(lib_a-lock_internal.o)
 .comment       0x0000000000000000       0x12 f:/psdk3/ps3dev/ppu/bin/../lib/gcc/powerpc64-ps3-elf/4.5.2/../../../../powerpc64-ps3-elf/lib\libc.a(lib_a-memchr.o)
 .comment       0x0000000000000000       0x12 f:/psdk3/ps3dev/ppu/bin/../lib/gcc/powerpc64-ps3-elf/4.5.2/../../../../powerpc64-ps3-elf/lib\libc.a(lib_a-mprec.o)
 .comment       0x0000000000000000       0x12 f:/psdk3/ps3dev/ppu/bin/../lib/gcc/powerpc64-ps3-elf/4.5.2/../../../../powerpc64-ps3-elf/lib\libc.a(lib_a-reallocr.o)
 .comment       0x0000000000000000       0x12 f:/psdk3/ps3dev/ppu/bin/../lib/gcc/powerpc64-ps3-elf/4.5.2/../../../../powerpc64-ps3-elf/lib\libc.a(lib_a-strncmp.o)
 .comment       0x0000000000000000       0x12 f:/psdk3/ps3dev/ppu/bin/../lib/gcc/powerpc64-ps3-elf/4.5.2/../../../../powerpc64-ps3-elf/lib\libc.a(lib_a-svfiprintf.o)
 .comment       0x0000000000000000       0x12 f:/psdk3/ps3dev/ppu/bin/../lib/gcc/powerpc64-ps3-elf/4.5.2/../../../../powerpc64-ps3-elf/lib\libc.a(lib_a-abort.o)
 .comment       0x0000000000000000       0x12 f:/psdk3/ps3dev/ppu/bin/../lib/gcc/powerpc64-ps3-elf/4.5.2/../../../../powerpc64-ps3-elf/lib\libc.a(lib_a-callocr.o)
 .comment       0x0000000000000000       0x12 f:/psdk3/ps3dev/ppu/bin/../lib/gcc/powerpc64-ps3-elf/4.5.2/../../../../powerpc64-ps3-elf/lib\libc.a(lib_a-memmove.o)
 .comment       0x0000000000000000       0x12 f:/psdk3/ps3dev/ppu/bin/../lib/gcc/powerpc64-ps3-elf/4.5.2/../../../../powerpc64-ps3-elf/lib\libc.a(lib_a-signal.o)
 .comment       0x0000000000000000       0x12 f:/psdk3/ps3dev/ppu/bin/../lib/gcc/powerpc64-ps3-elf/4.5.2/../../../../powerpc64-ps3-elf/lib\libsysbase.a(close.o)
 .comment       0x0000000000000000       0x12 f:/psdk3/ps3dev/ppu/bin/../lib/gcc/powerpc64-ps3-elf/4.5.2/../../../../powerpc64-ps3-elf/lib\libsysbase.a(sbrk.o)
 .comment       0x0000000000000000       0x12 f:/psdk3/ps3dev/ppu/bin/../lib/gcc/powerpc64-ps3-elf/4.5.2/../../../../powerpc64-ps3-elf/lib\libsysbase.a(_exit.o)
 .comment       0x0000000000000000       0x12 f:/psdk3/ps3dev/ppu/bin/../lib/gcc/powerpc64-ps3-elf/4.5.2/../../../../powerpc64-ps3-elf/lib\libsysbase.a(lseek.o)
 .comment       0x0000000000000000       0x12 f:/psdk3/ps3dev/ppu/bin/../lib/gcc/powerpc64-ps3-elf/4.5.2/../../../../powerpc64-ps3-elf/lib\libsysbase.a(read.o)
 .comment       0x0000000000000000       0x12 f:/psdk3/ps3dev/ppu/bin/../lib/gcc/powerpc64-ps3-elf/4.5.2/../../../../powerpc64-ps3-elf/lib\libsysbase.a(write.o)
 .comment       0x0000000000000000       0x12 f:/psdk3/ps3dev/ppu/bin/../lib/gcc/powerpc64-ps3-elf/4.5.2/../../../../powerpc64-ps3-elf/lib\libsysbase.a(lock.o)
 .comment       0x0000000000000000       0x12 f:/psdk3/ps3dev/ppu/bin/../lib/gcc/powerpc64-ps3-elf/4.5.2/../../../../powerpc64-ps3-elf/lib\libsysbase.a(getpid.o)
 .comment       0x0000000000000000       0x12 f:/psdk3/ps3dev/ppu/bin/../lib/gcc/powerpc64-ps3-elf/4.5.2/../../../../powerpc64-ps3-elf/lib\libsysbase.a(kill.o)
 .comment       0x0000000000000000       0x12 f:/psdk3/ps3dev/ppu/bin/../lib/gcc/powerpc64-ps3-elf/4.5.2/crtend.o

.debug
 *(.debug)

.line
 *(.line)

.debug_srcinfo
 *(.debug_srcinfo)

.debug_sfnames
 *(.debug_sfnames)

.debug_aranges  0x0000000000000000     0x1460
 *(.debug_aranges)
 .debug_aranges
                0x0000000000000000       0x30 f:/psdk3/ps3dev/ppu/bin/../lib/gcc/powerpc64-ps3-elf/4.5.2/../../../../powerpc64-ps3-elf/lib\libm.a(lib_a-s_sqrt.o)
 .debug_aranges
                0x0000000000000030       0x30 f:/psdk3/ps3dev/ppu/bin/../lib/gcc/powerpc64-ps3-elf/4.5.2/../../../../powerpc64-ps3-elf/lib\libm.a(lib_a-sf_cos.o)
 .debug_aranges
                0x0000000000000060       0x30 f:/psdk3/ps3dev/ppu/bin/../lib/gcc/powerpc64-ps3-elf/4.5.2/../../../../powerpc64-ps3-elf/lib\libm.a(lib_a-sf_sin.o)
 .debug_aranges
                0x0000000000000090       0x30 f:/psdk3/ps3dev/ppu/bin/../lib/gcc/powerpc64-ps3-elf/4.5.2/../../../../powerpc64-ps3-elf/lib\libm.a(lib_a-sf_sine.o)
 .debug_aranges
                0x00000000000000c0       0x30 f:/psdk3/ps3dev/ppu/bin/../lib/gcc/powerpc64-ps3-elf/4.5.2/../../../../powerpc64-ps3-elf/lib\libm.a(lib_a-sf_sqrt.o)
 .debug_aranges
                0x00000000000000f0       0x30 f:/psdk3/ps3dev/ppu/bin/../lib/gcc/powerpc64-ps3-elf/4.5.2/../../../../powerpc64-ps3-elf/lib\libm.a(lib_a-sf_tan.o)
 .debug_aranges
                0x0000000000000120       0x30 f:/psdk3/ps3dev/ppu/bin/../lib/gcc/powerpc64-ps3-elf/4.5.2/../../../../powerpc64-ps3-elf/lib\libm.a(lib_a-s_frexp.o)
 .debug_aranges
                0x0000000000000150       0x30 f:/psdk3/ps3dev/ppu/bin/../lib/gcc/powerpc64-ps3-elf/4.5.2/../../../../powerpc64-ps3-elf/lib\libm.a(lib_a-s_ispos.o)
 .debug_aranges
                0x0000000000000180       0x30 f:/psdk3/ps3dev/ppu/bin/../lib/gcc/powerpc64-ps3-elf/4.5.2/../../../../powerpc64-ps3-elf/lib\libm.a(lib_a-s_ldexp.o)
 .debug_aranges
                0x00000000000001b0       0x30 f:/psdk3/ps3dev/ppu/bin/../lib/gcc/powerpc64-ps3-elf/4.5.2/../../../../powerpc64-ps3-elf/lib\libm.a(lib_a-s_numtest.o)
 .debug_aranges
                0x00000000000001e0       0x30 f:/psdk3/ps3dev/ppu/bin/../lib/gcc/powerpc64-ps3-elf/4.5.2/../../../../powerpc64-ps3-elf/lib\libm.a(lib_a-sf_fabs.o)
 .debug_aranges
                0x0000000000000210       0x30 f:/psdk3/ps3dev/ppu/bin/../lib/gcc/powerpc64-ps3-elf/4.5.2/../../../../powerpc64-ps3-elf/lib\libm.a(lib_a-sf_frexp.o)
 .debug_aranges
                0x0000000000000240       0x30 f:/psdk3/ps3dev/ppu/bin/../lib/gcc/powerpc64-ps3-elf/4.5.2/../../../../powerpc64-ps3-elf/lib\libm.a(lib_a-sf_ispos.o)
 .debug_aranges
                0x0000000000000270       0x30 f:/psdk3/ps3dev/ppu/bin/../lib/gcc/powerpc64-ps3-elf/4.5.2/../../../../powerpc64-ps3-elf/lib\libm.a(lib_a-sf_ldexp.o)
 .debug_aranges
                0x00000000000002a0       0x30 f:/psdk3/ps3dev/ppu/bin/../lib/gcc/powerpc64-ps3-elf/4.5.2/../../../../powerpc64-ps3-elf/lib\libm.a(lib_a-sf_numtest.o)
 .debug_aranges
                0x00000000000002d0       0x40 f:/psdk3/ps3dev/ppu/bin/../lib/gcc/powerpc64-ps3-elf/4.5.2/../../../../powerpc64-ps3-elf/lib\libsysbase.a(sleep.o)
 .debug_aranges
                0x0000000000000310       0x30 f:/psdk3/ps3dev/ppu/bin/../lib/gcc/powerpc64-ps3-elf/4.5.2/../../../../powerpc64-ps3-elf/lib\libc.a(lib_a-atexit.o)
 .debug_aranges
                0x0000000000000340       0x30 f:/psdk3/ps3dev/ppu/bin/../lib/gcc/powerpc64-ps3-elf/4.5.2/../../../../powerpc64-ps3-elf/lib\libc.a(lib_a-errno.o)
 .debug_aranges
                0x0000000000000370       0x30 f:/psdk3/ps3dev/ppu/bin/../lib/gcc/powerpc64-ps3-elf/4.5.2/../../../../powerpc64-ps3-elf/lib\libc.a(lib_a-exit.o)
 .debug_aranges
                0x00000000000003a0       0x30 f:/psdk3/ps3dev/ppu/bin/../lib/gcc/powerpc64-ps3-elf/4.5.2/../../../../powerpc64-ps3-elf/lib\libc.a(lib_a-getreent.o)
 .debug_aranges
                0x00000000000003d0       0x30 f:/psdk3/ps3dev/ppu/bin/../lib/gcc/powerpc64-ps3-elf/4.5.2/../../../../powerpc64-ps3-elf/lib\libc.a(lib_a-malign.o)
 .debug_aranges
                0x0000000000000400       0x30 f:/psdk3/ps3dev/ppu/bin/../lib/gcc/powerpc64-ps3-elf/4.5.2/../../../../powerpc64-ps3-elf/lib\libc.a(lib_a-malignr.o)
 .debug_aranges
                0x0000000000000430       0x40 f:/psdk3/ps3dev/ppu/bin/../lib/gcc/powerpc64-ps3-elf/4.5.2/../../../../powerpc64-ps3-elf/lib\libc.a(lib_a-malloc.o)
 .debug_aranges
                0x0000000000000470       0x30 f:/psdk3/ps3dev/ppu/bin/../lib/gcc/powerpc64-ps3-elf/4.5.2/../../../../powerpc64-ps3-elf/lib\libc.a(lib_a-mallocr.o)
 .debug_aranges
                0x00000000000004a0       0x30 f:/psdk3/ps3dev/ppu/bin/../lib/gcc/powerpc64-ps3-elf/4.5.2/../../../../powerpc64-ps3-elf/lib\libc.a(lib_a-memcpy.o)
 .debug_aranges
                0x00000000000004d0       0x30 f:/psdk3/ps3dev/ppu/bin/../lib/gcc/powerpc64-ps3-elf/4.5.2/../../../../powerpc64-ps3-elf/lib\libc.a(lib_a-memset.o)
 .debug_aranges
                0x0000000000000500       0x40 f:/psdk3/ps3dev/ppu/bin/../lib/gcc/powerpc64-ps3-elf/4.5.2/../../../../powerpc64-ps3-elf/lib\libc.a(lib_a-mlock.o)
 .debug_aranges
                0x0000000000000540       0x40 f:/psdk3/ps3dev/ppu/bin/../lib/gcc/powerpc64-ps3-elf/4.5.2/../../../../powerpc64-ps3-elf/lib\libc.a(lib_a-sscanf.o)
 .debug_aranges
                0x0000000000000580       0x70 f:/psdk3/ps3dev/ppu/bin/../lib/gcc/powerpc64-ps3-elf/4.5.2/../../../../powerpc64-ps3-elf/lib\libc.a(lib_a-stdio.o)
 .debug_aranges
                0x00000000000005f0       0x30 f:/psdk3/ps3dev/ppu/bin/../lib/gcc/powerpc64-ps3-elf/4.5.2/../../../../powerpc64-ps3-elf/lib\libc.a(lib_a-strcasecmp.o)
 .debug_aranges
                0x0000000000000620       0x30 f:/psdk3/ps3dev/ppu/bin/../lib/gcc/powerpc64-ps3-elf/4.5.2/../../../../powerpc64-ps3-elf/lib\libc.a(lib_a-strlen.o)
 .debug_aranges
                0x0000000000000650       0x30 f:/psdk3/ps3dev/ppu/bin/../lib/gcc/powerpc64-ps3-elf/4.5.2/../../../../powerpc64-ps3-elf/lib\libc.a(lib_a-strncpy.o)
 .debug_aranges
                0x0000000000000680       0x30 f:/psdk3/ps3dev/ppu/bin/../lib/gcc/powerpc64-ps3-elf/4.5.2/../../../../powerpc64-ps3-elf/lib\libc.a(lib_a-svfscanf.o)
 .debug_aranges
                0x00000000000006b0       0x40 f:/psdk3/ps3dev/ppu/bin/../lib/gcc/powerpc64-ps3-elf/4.5.2/../../../../powerpc64-ps3-elf/lib\libc.a(lib_a-vsprintf.o)
 .debug_aranges
                0x00000000000006f0       0x30 f:/psdk3/ps3dev/ppu/bin/../lib/gcc/powerpc64-ps3-elf/4.5.2/../../../../powerpc64-ps3-elf/lib\libc.a(lib_a-__atexit.o)
 .debug_aranges
                0x0000000000000720       0x30 f:/psdk3/ps3dev/ppu/bin/../lib/gcc/powerpc64-ps3-elf/4.5.2/../../../../powerpc64-ps3-elf/lib\libc.a(lib_a-__call_atexit.o)
 .debug_aranges
                0x0000000000000750       0xf0 f:/psdk3/ps3dev/ppu/bin/../lib/gcc/powerpc64-ps3-elf/4.5.2/../../../../powerpc64-ps3-elf/lib\libc.a(lib_a-findfp.o)
 .debug_aranges
                0x0000000000000840       0x40 f:/psdk3/ps3dev/ppu/bin/../lib/gcc/powerpc64-ps3-elf/4.5.2/../../../../powerpc64-ps3-elf/lib\libc.a(lib_a-freer.o)
 .debug_aranges
                0x0000000000000880       0x40 f:/psdk3/ps3dev/ppu/bin/../lib/gcc/powerpc64-ps3-elf/4.5.2/../../../../powerpc64-ps3-elf/lib\libc.a(lib_a-fwalk.o)
 .debug_aranges
                0x00000000000008c0       0x30 f:/psdk3/ps3dev/ppu/bin/../lib/gcc/powerpc64-ps3-elf/4.5.2/../../../../powerpc64-ps3-elf/lib\libc.a(lib_a-iswspace.o)
 .debug_aranges
                0x00000000000008f0       0xa0 f:/psdk3/ps3dev/ppu/bin/../lib/gcc/powerpc64-ps3-elf/4.5.2/../../../../powerpc64-ps3-elf/lib\libc.a(lib_a-locale.o)
 .debug_aranges
                0x0000000000000990       0x70 f:/psdk3/ps3dev/ppu/bin/../lib/gcc/powerpc64-ps3-elf/4.5.2/../../../../powerpc64-ps3-elf/lib\libc.a(lib_a-lock_recursive.o)
 .debug_aranges
                0x0000000000000a00       0x40 f:/psdk3/ps3dev/ppu/bin/../lib/gcc/powerpc64-ps3-elf/4.5.2/../../../../powerpc64-ps3-elf/lib\libc.a(lib_a-mbrtowc.o)
 .debug_aranges
                0x0000000000000a40       0x40 f:/psdk3/ps3dev/ppu/bin/../lib/gcc/powerpc64-ps3-elf/4.5.2/../../../../powerpc64-ps3-elf/lib\libc.a(lib_a-mbtowc_r.o)
 .debug_aranges
                0x0000000000000a80       0x30 f:/psdk3/ps3dev/ppu/bin/../lib/gcc/powerpc64-ps3-elf/4.5.2/../../../../powerpc64-ps3-elf/lib\libc.a(lib_a-s_fpclassify.o)
 .debug_aranges
                0x0000000000000ab0       0x30 f:/psdk3/ps3dev/ppu/bin/../lib/gcc/powerpc64-ps3-elf/4.5.2/../../../../powerpc64-ps3-elf/lib\libc.a(lib_a-sccl.o)
 .debug_aranges
                0x0000000000000ae0       0x30 f:/psdk3/ps3dev/ppu/bin/../lib/gcc/powerpc64-ps3-elf/4.5.2/../../../../powerpc64-ps3-elf/lib\libc.a(lib_a-sf_nan.o)
 .debug_aranges
                0x0000000000000b10       0x40 f:/psdk3/ps3dev/ppu/bin/../lib/gcc/powerpc64-ps3-elf/4.5.2/../../../../powerpc64-ps3-elf/lib\libc.a(lib_a-sprintf.o)
 .debug_aranges
                0x0000000000000b50       0x30 f:/psdk3/ps3dev/ppu/bin/../lib/gcc/powerpc64-ps3-elf/4.5.2/../../../../powerpc64-ps3-elf/lib\libc.a(lib_a-strcmp.o)
 .debug_aranges
                0x0000000000000b80       0x60 f:/psdk3/ps3dev/ppu/bin/../lib/gcc/powerpc64-ps3-elf/4.5.2/../../../../powerpc64-ps3-elf/lib\libc.a(lib_a-strtod.o)
 .debug_aranges
                0x0000000000000be0       0x40 f:/psdk3/ps3dev/ppu/bin/../lib/gcc/powerpc64-ps3-elf/4.5.2/../../../../powerpc64-ps3-elf/lib\libc.a(lib_a-strtol.o)
 .debug_aranges
                0x0000000000000c20       0x30 f:/psdk3/ps3dev/ppu/bin/../lib/gcc/powerpc64-ps3-elf/4.5.2/../../../../powerpc64-ps3-elf/lib\libc.a(lib_a-strtoll_r.o)
 .debug_aranges
                0x0000000000000c50       0x40 f:/psdk3/ps3dev/ppu/bin/../lib/gcc/powerpc64-ps3-elf/4.5.2/../../../../powerpc64-ps3-elf/lib\libc.a(lib_a-strtoul.o)
 .debug_aranges
                0x0000000000000c90       0x30 f:/psdk3/ps3dev/ppu/bin/../lib/gcc/powerpc64-ps3-elf/4.5.2/../../../../powerpc64-ps3-elf/lib\libc.a(lib_a-strtoull_r.o)
 .debug_aranges
                0x0000000000000cc0       0x60 f:/psdk3/ps3dev/ppu/bin/../lib/gcc/powerpc64-ps3-elf/4.5.2/../../../../powerpc64-ps3-elf/lib\libc.a(lib_a-svfiscanf.o)
 .debug_aranges
                0x0000000000000d20       0x30 f:/psdk3/ps3dev/ppu/bin/../lib/gcc/powerpc64-ps3-elf/4.5.2/../../../../powerpc64-ps3-elf/lib\libc.a(lib_a-svfprintf.o)
 .debug_aranges
                0x0000000000000d50       0x50 f:/psdk3/ps3dev/ppu/bin/../lib/gcc/powerpc64-ps3-elf/4.5.2/../../../../powerpc64-ps3-elf/lib\libc.a(lib_a-ungetc.o)
 .debug_aranges
                0x0000000000000da0       0x40 f:/psdk3/ps3dev/ppu/bin/../lib/gcc/powerpc64-ps3-elf/4.5.2/../../../../powerpc64-ps3-elf/lib\libc.a(lib_a-dtoa.o)
 .debug_aranges
                0x0000000000000de0       0x40 f:/psdk3/ps3dev/ppu/bin/../lib/gcc/powerpc64-ps3-elf/4.5.2/../../../../powerpc64-ps3-elf/lib\libc.a(lib_a-fclose.o)
 .debug_aranges
                0x0000000000000e20       0x40 f:/psdk3/ps3dev/ppu/bin/../lib/gcc/powerpc64-ps3-elf/4.5.2/../../../../powerpc64-ps3-elf/lib\libc.a(lib_a-fflush.o)
 .debug_aranges
                0x0000000000000e60       0x50 f:/psdk3/ps3dev/ppu/bin/../lib/gcc/powerpc64-ps3-elf/4.5.2/../../../../powerpc64-ps3-elf/lib\libc.a(lib_a-gdtoa-gethex.o)
 .debug_aranges
                0x0000000000000eb0       0x30 f:/psdk3/ps3dev/ppu/bin/../lib/gcc/powerpc64-ps3-elf/4.5.2/../../../../powerpc64-ps3-elf/lib\libc.a(lib_a-gdtoa-hexnan.o)
 .debug_aranges
                0x0000000000000ee0       0x40 f:/psdk3/ps3dev/ppu/bin/../lib/gcc/powerpc64-ps3-elf/4.5.2/../../../../powerpc64-ps3-elf/lib\libc.a(lib_a-lock_internal.o)
 .debug_aranges
                0x0000000000000f20       0x30 f:/psdk3/ps3dev/ppu/bin/../lib/gcc/powerpc64-ps3-elf/4.5.2/../../../../powerpc64-ps3-elf/lib\libc.a(lib_a-memchr.o)
 .debug_aranges
                0x0000000000000f50      0x150 f:/psdk3/ps3dev/ppu/bin/../lib/gcc/powerpc64-ps3-elf/4.5.2/../../../../powerpc64-ps3-elf/lib\libc.a(lib_a-mprec.o)
 .debug_aranges
                0x00000000000010a0       0x30 f:/psdk3/ps3dev/ppu/bin/../lib/gcc/powerpc64-ps3-elf/4.5.2/../../../../powerpc64-ps3-elf/lib\libc.a(lib_a-reallocr.o)
 .debug_aranges
                0x00000000000010d0       0x30 f:/psdk3/ps3dev/ppu/bin/../lib/gcc/powerpc64-ps3-elf/4.5.2/../../../../powerpc64-ps3-elf/lib\libc.a(lib_a-strncmp.o)
 .debug_aranges
                0x0000000000001100       0x40 f:/psdk3/ps3dev/ppu/bin/../lib/gcc/powerpc64-ps3-elf/4.5.2/../../../../powerpc64-ps3-elf/lib\libc.a(lib_a-svfiprintf.o)
 .debug_aranges
                0x0000000000001140       0x30 f:/psdk3/ps3dev/ppu/bin/../lib/gcc/powerpc64-ps3-elf/4.5.2/../../../../powerpc64-ps3-elf/lib\libc.a(lib_a-abort.o)
 .debug_aranges
                0x0000000000001170       0x30 f:/psdk3/ps3dev/ppu/bin/../lib/gcc/powerpc64-ps3-elf/4.5.2/../../../../powerpc64-ps3-elf/lib\libc.a(lib_a-callocr.o)
 .debug_aranges
                0x00000000000011a0       0x30 f:/psdk3/ps3dev/ppu/bin/../lib/gcc/powerpc64-ps3-elf/4.5.2/../../../../powerpc64-ps3-elf/lib\libc.a(lib_a-memmove.o)
 .debug_aranges
                0x00000000000011d0       0xa0 f:/psdk3/ps3dev/ppu/bin/../lib/gcc/powerpc64-ps3-elf/4.5.2/../../../../powerpc64-ps3-elf/lib\libc.a(lib_a-signal.o)
 .debug_aranges
                0x0000000000001270       0x30 f:/psdk3/ps3dev/ppu/bin/../lib/gcc/powerpc64-ps3-elf/4.5.2/../../../../powerpc64-ps3-elf/lib\libsysbase.a(close.o)
 .debug_aranges
                0x00000000000012a0       0x30 f:/psdk3/ps3dev/ppu/bin/../lib/gcc/powerpc64-ps3-elf/4.5.2/../../../../powerpc64-ps3-elf/lib\libsysbase.a(sbrk.o)
 .debug_aranges
                0x00000000000012d0       0x30 f:/psdk3/ps3dev/ppu/bin/../lib/gcc/powerpc64-ps3-elf/4.5.2/../../../../powerpc64-ps3-elf/lib\libsysbase.a(_exit.o)
 .debug_aranges
                0x0000000000001300       0x30 f:/psdk3/ps3dev/ppu/bin/../lib/gcc/powerpc64-ps3-elf/4.5.2/../../../../powerpc64-ps3-elf/lib\libsysbase.a(lseek.o)
 .debug_aranges
                0x0000000000001330       0x30 f:/psdk3/ps3dev/ppu/bin/../lib/gcc/powerpc64-ps3-elf/4.5.2/../../../../powerpc64-ps3-elf/lib\libsysbase.a(read.o)
 .debug_aranges
                0x0000000000001360       0x30 f:/psdk3/ps3dev/ppu/bin/../lib/gcc/powerpc64-ps3-elf/4.5.2/../../../../powerpc64-ps3-elf/lib\libsysbase.a(write.o)
 .debug_aranges
                0x0000000000001390       0x70 f:/psdk3/ps3dev/ppu/bin/../lib/gcc/powerpc64-ps3-elf/4.5.2/../../../../powerpc64-ps3-elf/lib\libsysbase.a(lock.o)
 .debug_aranges
                0x0000000000001400       0x30 f:/psdk3/ps3dev/ppu/bin/../lib/gcc/powerpc64-ps3-elf/4.5.2/../../../../powerpc64-ps3-elf/lib\libsysbase.a(getpid.o)
 .debug_aranges
                0x0000000000001430       0x30 f:/psdk3/ps3dev/ppu/bin/../lib/gcc/powerpc64-ps3-elf/4.5.2/../../../../powerpc64-ps3-elf/lib\libsysbase.a(kill.o)

.debug_pubnames
                0x0000000000000000     0x116b
 *(.debug_pubnames)
 .debug_pubnames
                0x0000000000000000       0x1b f:/psdk3/ps3dev/ppu/bin/../lib/gcc/powerpc64-ps3-elf/4.5.2/../../../../powerpc64-ps3-elf/lib\libm.a(lib_a-s_sqrt.o)
 .debug_pubnames
                0x000000000000001b       0x1b f:/psdk3/ps3dev/ppu/bin/../lib/gcc/powerpc64-ps3-elf/4.5.2/../../../../powerpc64-ps3-elf/lib\libm.a(lib_a-sf_cos.o)
 .debug_pubnames
                0x0000000000000036       0x1b f:/psdk3/ps3dev/ppu/bin/../lib/gcc/powerpc64-ps3-elf/4.5.2/../../../../powerpc64-ps3-elf/lib\libm.a(lib_a-sf_sin.o)
 .debug_pubnames
                0x0000000000000051       0x1c f:/psdk3/ps3dev/ppu/bin/../lib/gcc/powerpc64-ps3-elf/4.5.2/../../../../powerpc64-ps3-elf/lib\libm.a(lib_a-sf_sine.o)
 .debug_pubnames
                0x000000000000006d       0x1c f:/psdk3/ps3dev/ppu/bin/../lib/gcc/powerpc64-ps3-elf/4.5.2/../../../../powerpc64-ps3-elf/lib\libm.a(lib_a-sf_sqrt.o)
 .debug_pubnames
                0x0000000000000089       0x1b f:/psdk3/ps3dev/ppu/bin/../lib/gcc/powerpc64-ps3-elf/4.5.2/../../../../powerpc64-ps3-elf/lib\libm.a(lib_a-sf_tan.o)
 .debug_pubnames
                0x00000000000000a4       0x1c f:/psdk3/ps3dev/ppu/bin/../lib/gcc/powerpc64-ps3-elf/4.5.2/../../../../powerpc64-ps3-elf/lib\libm.a(lib_a-s_frexp.o)
 .debug_pubnames
                0x00000000000000c0       0x1c f:/psdk3/ps3dev/ppu/bin/../lib/gcc/powerpc64-ps3-elf/4.5.2/../../../../powerpc64-ps3-elf/lib\libm.a(lib_a-s_ispos.o)
 .debug_pubnames
                0x00000000000000dc       0x1c f:/psdk3/ps3dev/ppu/bin/../lib/gcc/powerpc64-ps3-elf/4.5.2/../../../../powerpc64-ps3-elf/lib\libm.a(lib_a-s_ldexp.o)
 .debug_pubnames
                0x00000000000000f8       0xa0 f:/psdk3/ps3dev/ppu/bin/../lib/gcc/powerpc64-ps3-elf/4.5.2/../../../../powerpc64-ps3-elf/lib\libm.a(lib_a-s_mathcnst.o)
 .debug_pubnames
                0x0000000000000198       0x1e f:/psdk3/ps3dev/ppu/bin/../lib/gcc/powerpc64-ps3-elf/4.5.2/../../../../powerpc64-ps3-elf/lib\libm.a(lib_a-s_numtest.o)
 .debug_pubnames
                0x00000000000001b6       0x1c f:/psdk3/ps3dev/ppu/bin/../lib/gcc/powerpc64-ps3-elf/4.5.2/../../../../powerpc64-ps3-elf/lib\libm.a(lib_a-sf_fabs.o)
 .debug_pubnames
                0x00000000000001d2       0x1d f:/psdk3/ps3dev/ppu/bin/../lib/gcc/powerpc64-ps3-elf/4.5.2/../../../../powerpc64-ps3-elf/lib\libm.a(lib_a-sf_frexp.o)
 .debug_pubnames
                0x00000000000001ef       0x1d f:/psdk3/ps3dev/ppu/bin/../lib/gcc/powerpc64-ps3-elf/4.5.2/../../../../powerpc64-ps3-elf/lib\libm.a(lib_a-sf_ispos.o)
 .debug_pubnames
                0x000000000000020c       0x1d f:/psdk3/ps3dev/ppu/bin/../lib/gcc/powerpc64-ps3-elf/4.5.2/../../../../powerpc64-ps3-elf/lib\libm.a(lib_a-sf_ldexp.o)
 .debug_pubnames
                0x0000000000000229       0x1f f:/psdk3/ps3dev/ppu/bin/../lib/gcc/powerpc64-ps3-elf/4.5.2/../../../../powerpc64-ps3-elf/lib\libm.a(lib_a-sf_numtest.o)
 .debug_pubnames
                0x0000000000000248       0x21 f:/psdk3/ps3dev/ppu/bin/../lib/gcc/powerpc64-ps3-elf/4.5.2/../../../../powerpc64-ps3-elf/lib\libsysbase.a(syscalls.o)
 .debug_pubnames
                0x0000000000000269       0x27 f:/psdk3/ps3dev/ppu/bin/../lib/gcc/powerpc64-ps3-elf/4.5.2/../../../../powerpc64-ps3-elf/lib\libsysbase.a(sleep.o)
 .debug_pubnames
                0x0000000000000290       0x1d f:/psdk3/ps3dev/ppu/bin/../lib/gcc/powerpc64-ps3-elf/4.5.2/../../../../powerpc64-ps3-elf/lib\libc.a(lib_a-atexit.o)
 .debug_pubnames
                0x00000000000002ad       0x1e f:/psdk3/ps3dev/ppu/bin/../lib/gcc/powerpc64-ps3-elf/4.5.2/../../../../powerpc64-ps3-elf/lib\libc.a(lib_a-errno.o)
 .debug_pubnames
                0x00000000000002cb       0x1b f:/psdk3/ps3dev/ppu/bin/../lib/gcc/powerpc64-ps3-elf/4.5.2/../../../../powerpc64-ps3-elf/lib\libc.a(lib_a-exit.o)
 .debug_pubnames
                0x00000000000002e6       0x21 f:/psdk3/ps3dev/ppu/bin/../lib/gcc/powerpc64-ps3-elf/4.5.2/../../../../powerpc64-ps3-elf/lib\libc.a(lib_a-getreent.o)
 .debug_pubnames
                0x0000000000000307       0x39 f:/psdk3/ps3dev/ppu/bin/../lib/gcc/powerpc64-ps3-elf/4.5.2/../../../../powerpc64-ps3-elf/lib\libc.a(lib_a-impure.o)
 .debug_pubnames
                0x0000000000000340       0x1f f:/psdk3/ps3dev/ppu/bin/../lib/gcc/powerpc64-ps3-elf/4.5.2/../../../../powerpc64-ps3-elf/lib\libc.a(lib_a-malign.o)
 .debug_pubnames
                0x000000000000035f       0x22 f:/psdk3/ps3dev/ppu/bin/../lib/gcc/powerpc64-ps3-elf/4.5.2/../../../../powerpc64-ps3-elf/lib\libc.a(lib_a-malignr.o)
 .debug_pubnames
                0x0000000000000381       0x26 f:/psdk3/ps3dev/ppu/bin/../lib/gcc/powerpc64-ps3-elf/4.5.2/../../../../powerpc64-ps3-elf/lib\libc.a(lib_a-malloc.o)
 .debug_pubnames
                0x00000000000003a7       0xce f:/psdk3/ps3dev/ppu/bin/../lib/gcc/powerpc64-ps3-elf/4.5.2/../../../../powerpc64-ps3-elf/lib\libc.a(lib_a-mallocr.o)
 .debug_pubnames
                0x0000000000000475       0x1d f:/psdk3/ps3dev/ppu/bin/../lib/gcc/powerpc64-ps3-elf/4.5.2/../../../../powerpc64-ps3-elf/lib\libc.a(lib_a-memcpy.o)
 .debug_pubnames
                0x0000000000000492       0x1d f:/psdk3/ps3dev/ppu/bin/../lib/gcc/powerpc64-ps3-elf/4.5.2/../../../../powerpc64-ps3-elf/lib\libc.a(lib_a-memset.o)
 .debug_pubnames
                0x00000000000004af       0x38 f:/psdk3/ps3dev/ppu/bin/../lib/gcc/powerpc64-ps3-elf/4.5.2/../../../../powerpc64-ps3-elf/lib\libc.a(lib_a-mlock.o)
 .debug_pubnames
                0x00000000000004e7       0x2b f:/psdk3/ps3dev/ppu/bin/../lib/gcc/powerpc64-ps3-elf/4.5.2/../../../../powerpc64-ps3-elf/lib\libc.a(lib_a-sscanf.o)
 .debug_pubnames
                0x0000000000000512       0x53 f:/psdk3/ps3dev/ppu/bin/../lib/gcc/powerpc64-ps3-elf/4.5.2/../../../../powerpc64-ps3-elf/lib\libc.a(lib_a-stdio.o)
 .debug_pubnames
                0x0000000000000565       0x21 f:/psdk3/ps3dev/ppu/bin/../lib/gcc/powerpc64-ps3-elf/4.5.2/../../../../powerpc64-ps3-elf/lib\libc.a(lib_a-strcasecmp.o)
 .debug_pubnames
                0x0000000000000586       0x1d f:/psdk3/ps3dev/ppu/bin/../lib/gcc/powerpc64-ps3-elf/4.5.2/../../../../powerpc64-ps3-elf/lib\libc.a(lib_a-strlen.o)
 .debug_pubnames
                0x00000000000005a3       0x1e f:/psdk3/ps3dev/ppu/bin/../lib/gcc/powerpc64-ps3-elf/4.5.2/../../../../powerpc64-ps3-elf/lib\libc.a(lib_a-strncpy.o)
 .debug_pubnames
                0x00000000000005c1       0x24 f:/psdk3/ps3dev/ppu/bin/../lib/gcc/powerpc64-ps3-elf/4.5.2/../../../../powerpc64-ps3-elf/lib\libc.a(lib_a-svfscanf.o)
 .debug_pubnames
                0x00000000000005e5       0x2f f:/psdk3/ps3dev/ppu/bin/../lib/gcc/powerpc64-ps3-elf/4.5.2/../../../../powerpc64-ps3-elf/lib\libc.a(lib_a-vsprintf.o)
 .debug_pubnames
                0x0000000000000614       0x3c f:/psdk3/ps3dev/ppu/bin/../lib/gcc/powerpc64-ps3-elf/4.5.2/../../../../powerpc64-ps3-elf/lib\libc.a(lib_a-__atexit.o)
 .debug_pubnames
                0x0000000000000650       0x27 f:/psdk3/ps3dev/ppu/bin/../lib/gcc/powerpc64-ps3-elf/4.5.2/../../../../powerpc64-ps3-elf/lib\libc.a(lib_a-__call_atexit.o)
 .debug_pubnames
                0x0000000000000677       0x30 f:/psdk3/ps3dev/ppu/bin/../lib/gcc/powerpc64-ps3-elf/4.5.2/../../../../powerpc64-ps3-elf/lib\libc.a(lib_a-ctype_.o)
 .debug_pubnames
                0x00000000000006a7       0xdb f:/psdk3/ps3dev/ppu/bin/../lib/gcc/powerpc64-ps3-elf/4.5.2/../../../../powerpc64-ps3-elf/lib\libc.a(lib_a-findfp.o)
 .debug_pubnames
                0x0000000000000782       0x31 f:/psdk3/ps3dev/ppu/bin/../lib/gcc/powerpc64-ps3-elf/4.5.2/../../../../powerpc64-ps3-elf/lib\libc.a(lib_a-freer.o)
 .debug_pubnames
                0x00000000000007b3       0x2e f:/psdk3/ps3dev/ppu/bin/../lib/gcc/powerpc64-ps3-elf/4.5.2/../../../../powerpc64-ps3-elf/lib\libc.a(lib_a-fwalk.o)
 .debug_pubnames
                0x00000000000007e1       0x1f f:/psdk3/ps3dev/ppu/bin/../lib/gcc/powerpc64-ps3-elf/4.5.2/../../../../powerpc64-ps3-elf/lib\libc.a(lib_a-iswspace.o)
 .debug_pubnames
                0x0000000000000800       0xfa f:/psdk3/ps3dev/ppu/bin/../lib/gcc/powerpc64-ps3-elf/4.5.2/../../../../powerpc64-ps3-elf/lib\libc.a(lib_a-locale.o)
 .debug_pubnames
                0x00000000000008fa       0xbb f:/psdk3/ps3dev/ppu/bin/../lib/gcc/powerpc64-ps3-elf/4.5.2/../../../../powerpc64-ps3-elf/lib\libc.a(lib_a-lock_recursive.o)
 .debug_pubnames
                0x00000000000009b5       0x2d f:/psdk3/ps3dev/ppu/bin/../lib/gcc/powerpc64-ps3-elf/4.5.2/../../../../powerpc64-ps3-elf/lib\libc.a(lib_a-mbrtowc.o)
 .debug_pubnames
                0x00000000000009e2       0x40 f:/psdk3/ps3dev/ppu/bin/../lib/gcc/powerpc64-ps3-elf/4.5.2/../../../../powerpc64-ps3-elf/lib\libc.a(lib_a-mbtowc_r.o)
 .debug_pubnames
                0x0000000000000a22       0x24 f:/psdk3/ps3dev/ppu/bin/../lib/gcc/powerpc64-ps3-elf/4.5.2/../../../../powerpc64-ps3-elf/lib\libc.a(lib_a-s_fpclassify.o)
 .debug_pubnames
                0x0000000000000a46       0x1d f:/psdk3/ps3dev/ppu/bin/../lib/gcc/powerpc64-ps3-elf/4.5.2/../../../../powerpc64-ps3-elf/lib\libc.a(lib_a-sccl.o)
 .debug_pubnames
                0x0000000000000a63       0x1b f:/psdk3/ps3dev/ppu/bin/../lib/gcc/powerpc64-ps3-elf/4.5.2/../../../../powerpc64-ps3-elf/lib\libc.a(lib_a-sf_nan.o)
 .debug_pubnames
                0x0000000000000a7e       0x2d f:/psdk3/ps3dev/ppu/bin/../lib/gcc/powerpc64-ps3-elf/4.5.2/../../../../powerpc64-ps3-elf/lib\libc.a(lib_a-sprintf.o)
 .debug_pubnames
                0x0000000000000aab       0x1d f:/psdk3/ps3dev/ppu/bin/../lib/gcc/powerpc64-ps3-elf/4.5.2/../../../../powerpc64-ps3-elf/lib\libc.a(lib_a-strcmp.o)
 .debug_pubnames
                0x0000000000000ac8       0x36 f:/psdk3/ps3dev/ppu/bin/../lib/gcc/powerpc64-ps3-elf/4.5.2/../../../../powerpc64-ps3-elf/lib\libc.a(lib_a-strtod.o)
 .debug_pubnames
                0x0000000000000afe       0x2b f:/psdk3/ps3dev/ppu/bin/../lib/gcc/powerpc64-ps3-elf/4.5.2/../../../../powerpc64-ps3-elf/lib\libc.a(lib_a-strtol.o)
 .debug_pubnames
                0x0000000000000b29       0x21 f:/psdk3/ps3dev/ppu/bin/../lib/gcc/powerpc64-ps3-elf/4.5.2/../../../../powerpc64-ps3-elf/lib\libc.a(lib_a-strtoll_r.o)
 .debug_pubnames
                0x0000000000000b4a       0x2d f:/psdk3/ps3dev/ppu/bin/../lib/gcc/powerpc64-ps3-elf/4.5.2/../../../../powerpc64-ps3-elf/lib\libc.a(lib_a-strtoul.o)
 .debug_pubnames
                0x0000000000000b77       0x22 f:/psdk3/ps3dev/ppu/bin/../lib/gcc/powerpc64-ps3-elf/4.5.2/../../../../powerpc64-ps3-elf/lib\libc.a(lib_a-strtoull_r.o)
 .debug_pubnames
                0x0000000000000b99       0x53 f:/psdk3/ps3dev/ppu/bin/../lib/gcc/powerpc64-ps3-elf/4.5.2/../../../../powerpc64-ps3-elf/lib\libc.a(lib_a-svfiscanf.o)
 .debug_pubnames
                0x0000000000000bec       0x23 f:/psdk3/ps3dev/ppu/bin/../lib/gcc/powerpc64-ps3-elf/4.5.2/../../../../powerpc64-ps3-elf/lib\libc.a(lib_a-svfprintf.o)
 .debug_pubnames
                0x0000000000000c0f       0x39 f:/psdk3/ps3dev/ppu/bin/../lib/gcc/powerpc64-ps3-elf/4.5.2/../../../../powerpc64-ps3-elf/lib\libc.a(lib_a-ungetc.o)
 .debug_pubnames
                0x0000000000000c48       0x1e f:/psdk3/ps3dev/ppu/bin/../lib/gcc/powerpc64-ps3-elf/4.5.2/../../../../powerpc64-ps3-elf/lib\libc.a(lib_a-dtoa.o)
 .debug_pubnames
                0x0000000000000c66       0x2b f:/psdk3/ps3dev/ppu/bin/../lib/gcc/powerpc64-ps3-elf/4.5.2/../../../../powerpc64-ps3-elf/lib\libc.a(lib_a-fclose.o)
 .debug_pubnames
                0x0000000000000c91       0x2b f:/psdk3/ps3dev/ppu/bin/../lib/gcc/powerpc64-ps3-elf/4.5.2/../../../../powerpc64-ps3-elf/lib\libc.a(lib_a-fflush.o)
 .debug_pubnames
                0x0000000000000cbc       0x3e f:/psdk3/ps3dev/ppu/bin/../lib/gcc/powerpc64-ps3-elf/4.5.2/../../../../powerpc64-ps3-elf/lib\libc.a(lib_a-gdtoa-gethex.o)
 .debug_pubnames
                0x0000000000000cfa       0x1f f:/psdk3/ps3dev/ppu/bin/../lib/gcc/powerpc64-ps3-elf/4.5.2/../../../../powerpc64-ps3-elf/lib\libc.a(lib_a-gdtoa-hexnan.o)
 .debug_pubnames
                0x0000000000000d19       0x30 f:/psdk3/ps3dev/ppu/bin/../lib/gcc/powerpc64-ps3-elf/4.5.2/../../../../powerpc64-ps3-elf/lib\libc.a(lib_a-lock_internal.o)
 .debug_pubnames
                0x0000000000000d49       0x1d f:/psdk3/ps3dev/ppu/bin/../lib/gcc/powerpc64-ps3-elf/4.5.2/../../../../powerpc64-ps3-elf/lib\libc.a(lib_a-memchr.o)
 .debug_pubnames
                0x0000000000000d66      0x13a f:/psdk3/ps3dev/ppu/bin/../lib/gcc/powerpc64-ps3-elf/4.5.2/../../../../powerpc64-ps3-elf/lib\libc.a(lib_a-mprec.o)
 .debug_pubnames
                0x0000000000000ea0       0x21 f:/psdk3/ps3dev/ppu/bin/../lib/gcc/powerpc64-ps3-elf/4.5.2/../../../../powerpc64-ps3-elf/lib\libc.a(lib_a-reallocr.o)
 .debug_pubnames
                0x0000000000000ec1       0x1e f:/psdk3/ps3dev/ppu/bin/../lib/gcc/powerpc64-ps3-elf/4.5.2/../../../../powerpc64-ps3-elf/lib\libc.a(lib_a-strncmp.o)
 .debug_pubnames
                0x0000000000000edf       0x34 f:/psdk3/ps3dev/ppu/bin/../lib/gcc/powerpc64-ps3-elf/4.5.2/../../../../powerpc64-ps3-elf/lib\libc.a(lib_a-svfiprintf.o)
 .debug_pubnames
                0x0000000000000f13       0x1c f:/psdk3/ps3dev/ppu/bin/../lib/gcc/powerpc64-ps3-elf/4.5.2/../../../../powerpc64-ps3-elf/lib\libc.a(lib_a-abort.o)
 .debug_pubnames
                0x0000000000000f2f       0x20 f:/psdk3/ps3dev/ppu/bin/../lib/gcc/powerpc64-ps3-elf/4.5.2/../../../../powerpc64-ps3-elf/lib\libc.a(lib_a-callocr.o)
 .debug_pubnames
                0x0000000000000f4f       0x1e f:/psdk3/ps3dev/ppu/bin/../lib/gcc/powerpc64-ps3-elf/4.5.2/../../../../powerpc64-ps3-elf/lib\libc.a(lib_a-memmove.o)
 .debug_pubnames
                0x0000000000000f6d       0x86 f:/psdk3/ps3dev/ppu/bin/../lib/gcc/powerpc64-ps3-elf/4.5.2/../../../../powerpc64-ps3-elf/lib\libc.a(lib_a-signal.o)
 .debug_pubnames
                0x0000000000000ff3       0x1f f:/psdk3/ps3dev/ppu/bin/../lib/gcc/powerpc64-ps3-elf/4.5.2/../../../../powerpc64-ps3-elf/lib\libsysbase.a(close.o)
 .debug_pubnames
                0x0000000000001012       0x1e f:/psdk3/ps3dev/ppu/bin/../lib/gcc/powerpc64-ps3-elf/4.5.2/../../../../powerpc64-ps3-elf/lib\libsysbase.a(sbrk.o)
 .debug_pubnames
                0x0000000000001030       0x1c f:/psdk3/ps3dev/ppu/bin/../lib/gcc/powerpc64-ps3-elf/4.5.2/../../../../powerpc64-ps3-elf/lib\libsysbase.a(_exit.o)
 .debug_pubnames
                0x000000000000104c       0x1f f:/psdk3/ps3dev/ppu/bin/../lib/gcc/powerpc64-ps3-elf/4.5.2/../../../../powerpc64-ps3-elf/lib\libsysbase.a(lseek.o)
 .debug_pubnames
                0x000000000000106b       0x1e f:/psdk3/ps3dev/ppu/bin/../lib/gcc/powerpc64-ps3-elf/4.5.2/../../../../powerpc64-ps3-elf/lib\libsysbase.a(read.o)
 .debug_pubnames
                0x0000000000001089       0x1f f:/psdk3/ps3dev/ppu/bin/../lib/gcc/powerpc64-ps3-elf/4.5.2/../../../../powerpc64-ps3-elf/lib\libsysbase.a(write.o)
 .debug_pubnames
                0x00000000000010a8       0x85 f:/psdk3/ps3dev/ppu/bin/../lib/gcc/powerpc64-ps3-elf/4.5.2/../../../../powerpc64-ps3-elf/lib\libsysbase.a(lock.o)
 .debug_pubnames
                0x000000000000112d       0x20 f:/psdk3/ps3dev/ppu/bin/../lib/gcc/powerpc64-ps3-elf/4.5.2/../../../../powerpc64-ps3-elf/lib\libsysbase.a(getpid.o)
 .debug_pubnames
                0x000000000000114d       0x1e f:/psdk3/ps3dev/ppu/bin/../lib/gcc/powerpc64-ps3-elf/4.5.2/../../../../powerpc64-ps3-elf/lib\libsysbase.a(kill.o)

.debug_info     0x0000000000000000    0x2cf77
 *(.debug_info .gnu.linkonce.wi.*)
 .debug_info    0x0000000000000000      0x181 f:/psdk3/ps3dev/ppu/bin/../lib/gcc/powerpc64-ps3-elf/4.5.2/../../../../powerpc64-ps3-elf/lib\libm.a(lib_a-s_sqrt.o)
 .debug_info    0x0000000000000181       0xc4 f:/psdk3/ps3dev/ppu/bin/../lib/gcc/powerpc64-ps3-elf/4.5.2/../../../../powerpc64-ps3-elf/lib\libm.a(lib_a-sf_cos.o)
 .debug_info    0x0000000000000245       0xc4 f:/psdk3/ps3dev/ppu/bin/../lib/gcc/powerpc64-ps3-elf/4.5.2/../../../../powerpc64-ps3-elf/lib\libm.a(lib_a-sf_sin.o)
 .debug_info    0x0000000000000309      0x1dd f:/psdk3/ps3dev/ppu/bin/../lib/gcc/powerpc64-ps3-elf/4.5.2/../../../../powerpc64-ps3-elf/lib\libm.a(lib_a-sf_sine.o)
 .debug_info    0x00000000000004e6      0x172 f:/psdk3/ps3dev/ppu/bin/../lib/gcc/powerpc64-ps3-elf/4.5.2/../../../../powerpc64-ps3-elf/lib\libm.a(lib_a-sf_sqrt.o)
 .debug_info    0x0000000000000658      0x1d4 f:/psdk3/ps3dev/ppu/bin/../lib/gcc/powerpc64-ps3-elf/4.5.2/../../../../powerpc64-ps3-elf/lib\libm.a(lib_a-sf_tan.o)
 .debug_info    0x000000000000082c      0x1bf f:/psdk3/ps3dev/ppu/bin/../lib/gcc/powerpc64-ps3-elf/4.5.2/../../../../powerpc64-ps3-elf/lib\libm.a(lib_a-s_frexp.o)
 .debug_info    0x00000000000009eb      0x148 f:/psdk3/ps3dev/ppu/bin/../lib/gcc/powerpc64-ps3-elf/4.5.2/../../../../powerpc64-ps3-elf/lib\libm.a(lib_a-s_ispos.o)
 .debug_info    0x0000000000000b33      0x1c9 f:/psdk3/ps3dev/ppu/bin/../lib/gcc/powerpc64-ps3-elf/4.5.2/../../../../powerpc64-ps3-elf/lib\libm.a(lib_a-s_ldexp.o)
 .debug_info    0x0000000000000cfc      0x1bc f:/psdk3/ps3dev/ppu/bin/../lib/gcc/powerpc64-ps3-elf/4.5.2/../../../../powerpc64-ps3-elf/lib\libm.a(lib_a-s_mathcnst.o)
 .debug_info    0x0000000000000eb8      0x161 f:/psdk3/ps3dev/ppu/bin/../lib/gcc/powerpc64-ps3-elf/4.5.2/../../../../powerpc64-ps3-elf/lib\libm.a(lib_a-s_numtest.o)
 .debug_info    0x0000000000001019       0xc4 f:/psdk3/ps3dev/ppu/bin/../lib/gcc/powerpc64-ps3-elf/4.5.2/../../../../powerpc64-ps3-elf/lib\libm.a(lib_a-sf_fabs.o)
 .debug_info    0x00000000000010dd      0x163 f:/psdk3/ps3dev/ppu/bin/../lib/gcc/powerpc64-ps3-elf/4.5.2/../../../../powerpc64-ps3-elf/lib\libm.a(lib_a-sf_frexp.o)
 .debug_info    0x0000000000001240       0xd9 f:/psdk3/ps3dev/ppu/bin/../lib/gcc/powerpc64-ps3-elf/4.5.2/../../../../powerpc64-ps3-elf/lib\libm.a(lib_a-sf_ispos.o)
 .debug_info    0x0000000000001319      0x18d f:/psdk3/ps3dev/ppu/bin/../lib/gcc/powerpc64-ps3-elf/4.5.2/../../../../powerpc64-ps3-elf/lib\libm.a(lib_a-sf_ldexp.o)
 .debug_info    0x00000000000014a6       0xe4 f:/psdk3/ps3dev/ppu/bin/../lib/gcc/powerpc64-ps3-elf/4.5.2/../../../../powerpc64-ps3-elf/lib\libm.a(lib_a-sf_numtest.o)
 .debug_info    0x000000000000158a     0x1535 f:/psdk3/ps3dev/ppu/bin/../lib/gcc/powerpc64-ps3-elf/4.5.2/../../../../powerpc64-ps3-elf/lib\libsysbase.a(syscalls.o)
 .debug_info    0x0000000000002abf     0x15c1 f:/psdk3/ps3dev/ppu/bin/../lib/gcc/powerpc64-ps3-elf/4.5.2/../../../../powerpc64-ps3-elf/lib\libsysbase.a(sleep.o)
 .debug_info    0x0000000000004080       0xd6 f:/psdk3/ps3dev/ppu/bin/../lib/gcc/powerpc64-ps3-elf/4.5.2/../../../../powerpc64-ps3-elf/lib\libc.a(lib_a-atexit.o)
 .debug_info    0x0000000000004156       0xa6 f:/psdk3/ps3dev/ppu/bin/../lib/gcc/powerpc64-ps3-elf/4.5.2/../../../../powerpc64-ps3-elf/lib\libc.a(lib_a-errno.o)
 .debug_info    0x00000000000041fc      0xa09 f:/psdk3/ps3dev/ppu/bin/../lib/gcc/powerpc64-ps3-elf/4.5.2/../../../../powerpc64-ps3-elf/lib\libc.a(lib_a-exit.o)
 .debug_info    0x0000000000004c05      0xa2c f:/psdk3/ps3dev/ppu/bin/../lib/gcc/powerpc64-ps3-elf/4.5.2/../../../../powerpc64-ps3-elf/lib\libc.a(lib_a-getreent.o)
 .debug_info    0x0000000000005631      0x9fb f:/psdk3/ps3dev/ppu/bin/../lib/gcc/powerpc64-ps3-elf/4.5.2/../../../../powerpc64-ps3-elf/lib\libc.a(lib_a-impure.o)
 .debug_info    0x000000000000602c       0xcc f:/psdk3/ps3dev/ppu/bin/../lib/gcc/powerpc64-ps3-elf/4.5.2/../../../../powerpc64-ps3-elf/lib\libc.a(lib_a-malign.o)
 .debug_info    0x00000000000060f8      0xafa f:/psdk3/ps3dev/ppu/bin/../lib/gcc/powerpc64-ps3-elf/4.5.2/../../../../powerpc64-ps3-elf/lib\libc.a(lib_a-malignr.o)
 .debug_info    0x0000000000006bf2       0xee f:/psdk3/ps3dev/ppu/bin/../lib/gcc/powerpc64-ps3-elf/4.5.2/../../../../powerpc64-ps3-elf/lib\libc.a(lib_a-malloc.o)
 .debug_info    0x0000000000006ce0      0xe20 f:/psdk3/ps3dev/ppu/bin/../lib/gcc/powerpc64-ps3-elf/4.5.2/../../../../powerpc64-ps3-elf/lib\libc.a(lib_a-mallocr.o)
 .debug_info    0x0000000000007b00      0x141 f:/psdk3/ps3dev/ppu/bin/../lib/gcc/powerpc64-ps3-elf/4.5.2/../../../../powerpc64-ps3-elf/lib\libc.a(lib_a-memcpy.o)
 .debug_info    0x0000000000007c41      0x129 f:/psdk3/ps3dev/ppu/bin/../lib/gcc/powerpc64-ps3-elf/4.5.2/../../../../powerpc64-ps3-elf/lib\libc.a(lib_a-memset.o)
 .debug_info    0x0000000000007d6a      0xa2c f:/psdk3/ps3dev/ppu/bin/../lib/gcc/powerpc64-ps3-elf/4.5.2/../../../../powerpc64-ps3-elf/lib\libc.a(lib_a-mlock.o)
 .debug_info    0x0000000000008796      0xad1 f:/psdk3/ps3dev/ppu/bin/../lib/gcc/powerpc64-ps3-elf/4.5.2/../../../../powerpc64-ps3-elf/lib\libc.a(lib_a-sscanf.o)
 .debug_info    0x0000000000009267      0xbeb f:/psdk3/ps3dev/ppu/bin/../lib/gcc/powerpc64-ps3-elf/4.5.2/../../../../powerpc64-ps3-elf/lib\libc.a(lib_a-stdio.o)
 .debug_info    0x0000000000009e52      0x188 f:/psdk3/ps3dev/ppu/bin/../lib/gcc/powerpc64-ps3-elf/4.5.2/../../../../powerpc64-ps3-elf/lib\libc.a(lib_a-strcasecmp.o)
 .debug_info    0x0000000000009fda       0xed f:/psdk3/ps3dev/ppu/bin/../lib/gcc/powerpc64-ps3-elf/4.5.2/../../../../powerpc64-ps3-elf/lib\libc.a(lib_a-strlen.o)
 .debug_info    0x000000000000a0c7      0x138 f:/psdk3/ps3dev/ppu/bin/../lib/gcc/powerpc64-ps3-elf/4.5.2/../../../../powerpc64-ps3-elf/lib\libc.a(lib_a-strncpy.o)
 .debug_info    0x000000000000a1ff      0xed2 f:/psdk3/ps3dev/ppu/bin/../lib/gcc/powerpc64-ps3-elf/4.5.2/../../../../powerpc64-ps3-elf/lib\libc.a(lib_a-svfscanf.o)
 .debug_info    0x000000000000b0d1      0xab9 f:/psdk3/ps3dev/ppu/bin/../lib/gcc/powerpc64-ps3-elf/4.5.2/../../../../powerpc64-ps3-elf/lib\libc.a(lib_a-vsprintf.o)
 .debug_info    0x000000000000bb8a      0xa9b f:/psdk3/ps3dev/ppu/bin/../lib/gcc/powerpc64-ps3-elf/4.5.2/../../../../powerpc64-ps3-elf/lib\libc.a(lib_a-__atexit.o)
 .debug_info    0x000000000000c625      0xaa9 f:/psdk3/ps3dev/ppu/bin/../lib/gcc/powerpc64-ps3-elf/4.5.2/../../../../powerpc64-ps3-elf/lib\libc.a(lib_a-__call_atexit.o)
 .debug_info    0x000000000000d0ce       0x9b f:/psdk3/ps3dev/ppu/bin/../lib/gcc/powerpc64-ps3-elf/4.5.2/../../../../powerpc64-ps3-elf/lib\libc.a(lib_a-ctype_.o)
 .debug_info    0x000000000000d169      0xde2 f:/psdk3/ps3dev/ppu/bin/../lib/gcc/powerpc64-ps3-elf/4.5.2/../../../../powerpc64-ps3-elf/lib\libc.a(lib_a-findfp.o)
 .debug_info    0x000000000000df4b      0xcdd f:/psdk3/ps3dev/ppu/bin/../lib/gcc/powerpc64-ps3-elf/4.5.2/../../../../powerpc64-ps3-elf/lib\libc.a(lib_a-freer.o)
 .debug_info    0x000000000000ec28      0xbd9 f:/psdk3/ps3dev/ppu/bin/../lib/gcc/powerpc64-ps3-elf/4.5.2/../../../../powerpc64-ps3-elf/lib\libc.a(lib_a-fwalk.o)
 .debug_info    0x000000000000f801       0xe2 f:/psdk3/ps3dev/ppu/bin/../lib/gcc/powerpc64-ps3-elf/4.5.2/../../../../powerpc64-ps3-elf/lib\libc.a(lib_a-iswspace.o)
 .debug_info    0x000000000000f8e3      0xd65 f:/psdk3/ps3dev/ppu/bin/../lib/gcc/powerpc64-ps3-elf/4.5.2/../../../../powerpc64-ps3-elf/lib\libc.a(lib_a-locale.o)
 .debug_info    0x0000000000010648      0x26e f:/psdk3/ps3dev/ppu/bin/../lib/gcc/powerpc64-ps3-elf/4.5.2/../../../../powerpc64-ps3-elf/lib\libc.a(lib_a-lock_recursive.o)
 .debug_info    0x00000000000108b6      0xb15 f:/psdk3/ps3dev/ppu/bin/../lib/gcc/powerpc64-ps3-elf/4.5.2/../../../../powerpc64-ps3-elf/lib\libc.a(lib_a-mbrtowc.o)
 .debug_info    0x00000000000113cb      0xb2c f:/psdk3/ps3dev/ppu/bin/../lib/gcc/powerpc64-ps3-elf/4.5.2/../../../../powerpc64-ps3-elf/lib\libc.a(lib_a-mbtowc_r.o)
 .debug_info    0x0000000000011ef7      0x150 f:/psdk3/ps3dev/ppu/bin/../lib/gcc/powerpc64-ps3-elf/4.5.2/../../../../powerpc64-ps3-elf/lib\libc.a(lib_a-s_fpclassify.o)
 .debug_info    0x0000000000012047      0x10f f:/psdk3/ps3dev/ppu/bin/../lib/gcc/powerpc64-ps3-elf/4.5.2/../../../../powerpc64-ps3-elf/lib\libc.a(lib_a-sccl.o)
 .debug_info    0x0000000000012156       0xdc f:/psdk3/ps3dev/ppu/bin/../lib/gcc/powerpc64-ps3-elf/4.5.2/../../../../powerpc64-ps3-elf/lib\libc.a(lib_a-sf_nan.o)
 .debug_info    0x0000000000012232      0xad1 f:/psdk3/ps3dev/ppu/bin/../lib/gcc/powerpc64-ps3-elf/4.5.2/../../../../powerpc64-ps3-elf/lib\libc.a(lib_a-sprintf.o)
 .debug_info    0x0000000000012d03       0xed f:/psdk3/ps3dev/ppu/bin/../lib/gcc/powerpc64-ps3-elf/4.5.2/../../../../powerpc64-ps3-elf/lib\libc.a(lib_a-strcmp.o)
 .debug_info    0x0000000000012df0     0x107f f:/psdk3/ps3dev/ppu/bin/../lib/gcc/powerpc64-ps3-elf/4.5.2/../../../../powerpc64-ps3-elf/lib\libc.a(lib_a-strtod.o)
 .debug_info    0x0000000000013e6f      0xaf7 f:/psdk3/ps3dev/ppu/bin/../lib/gcc/powerpc64-ps3-elf/4.5.2/../../../../powerpc64-ps3-elf/lib\libc.a(lib_a-strtol.o)
 .debug_info    0x0000000000014966      0xaa6 f:/psdk3/ps3dev/ppu/bin/../lib/gcc/powerpc64-ps3-elf/4.5.2/../../../../powerpc64-ps3-elf/lib\libc.a(lib_a-strtoll_r.o)
 .debug_info    0x000000000001540c      0xaf7 f:/psdk3/ps3dev/ppu/bin/../lib/gcc/powerpc64-ps3-elf/4.5.2/../../../../powerpc64-ps3-elf/lib\libc.a(lib_a-strtoul.o)
 .debug_info    0x0000000000015f03      0xaa6 f:/psdk3/ps3dev/ppu/bin/../lib/gcc/powerpc64-ps3-elf/4.5.2/../../../../powerpc64-ps3-elf/lib\libc.a(lib_a-strtoull_r.o)
 .debug_info    0x00000000000169a9      0xf0f f:/psdk3/ps3dev/ppu/bin/../lib/gcc/powerpc64-ps3-elf/4.5.2/../../../../powerpc64-ps3-elf/lib\libc.a(lib_a-svfiscanf.o)
 .debug_info    0x00000000000178b8     0x10b9 f:/psdk3/ps3dev/ppu/bin/../lib/gcc/powerpc64-ps3-elf/4.5.2/../../../../powerpc64-ps3-elf/lib\libc.a(lib_a-svfprintf.o)
 .debug_info    0x0000000000018971      0xabe f:/psdk3/ps3dev/ppu/bin/../lib/gcc/powerpc64-ps3-elf/4.5.2/../../../../powerpc64-ps3-elf/lib\libc.a(lib_a-ungetc.o)
 .debug_info    0x000000000001942f      0xe8c f:/psdk3/ps3dev/ppu/bin/../lib/gcc/powerpc64-ps3-elf/4.5.2/../../../../powerpc64-ps3-elf/lib\libc.a(lib_a-dtoa.o)
 .debug_info    0x000000000001a2bb      0xa49 f:/psdk3/ps3dev/ppu/bin/../lib/gcc/powerpc64-ps3-elf/4.5.2/../../../../powerpc64-ps3-elf/lib\libc.a(lib_a-fclose.o)
 .debug_info    0x000000000001ad04      0xac1 f:/psdk3/ps3dev/ppu/bin/../lib/gcc/powerpc64-ps3-elf/4.5.2/../../../../powerpc64-ps3-elf/lib\libc.a(lib_a-fflush.o)
 .debug_info    0x000000000001b7c5      0xf56 f:/psdk3/ps3dev/ppu/bin/../lib/gcc/powerpc64-ps3-elf/4.5.2/../../../../powerpc64-ps3-elf/lib\libc.a(lib_a-gdtoa-gethex.o)
 .debug_info    0x000000000001c71b      0x348 f:/psdk3/ps3dev/ppu/bin/../lib/gcc/powerpc64-ps3-elf/4.5.2/../../../../powerpc64-ps3-elf/lib\libc.a(lib_a-gdtoa-hexnan.o)
 .debug_info    0x000000000001ca63      0x1c7 f:/psdk3/ps3dev/ppu/bin/../lib/gcc/powerpc64-ps3-elf/4.5.2/../../../../powerpc64-ps3-elf/lib\libc.a(lib_a-lock_internal.o)
 .debug_info    0x000000000001cc2a      0x139 f:/psdk3/ps3dev/ppu/bin/../lib/gcc/powerpc64-ps3-elf/4.5.2/../../../../powerpc64-ps3-elf/lib\libc.a(lib_a-memchr.o)
 .debug_info    0x000000000001cd63     0x161d f:/psdk3/ps3dev/ppu/bin/../lib/gcc/powerpc64-ps3-elf/4.5.2/../../../../powerpc64-ps3-elf/lib\libc.a(lib_a-mprec.o)
 .debug_info    0x000000000001e380      0xcb5 f:/psdk3/ps3dev/ppu/bin/../lib/gcc/powerpc64-ps3-elf/4.5.2/../../../../powerpc64-ps3-elf/lib\libc.a(lib_a-reallocr.o)
 .debug_info    0x000000000001f035      0x105 f:/psdk3/ps3dev/ppu/bin/../lib/gcc/powerpc64-ps3-elf/4.5.2/../../../../powerpc64-ps3-elf/lib\libc.a(lib_a-strncmp.o)
 .debug_info    0x000000000001f13a      0xe4a f:/psdk3/ps3dev/ppu/bin/../lib/gcc/powerpc64-ps3-elf/4.5.2/../../../../powerpc64-ps3-elf/lib\libc.a(lib_a-svfiprintf.o)
 .debug_info    0x000000000001ff84       0x9c f:/psdk3/ps3dev/ppu/bin/../lib/gcc/powerpc64-ps3-elf/4.5.2/../../../../powerpc64-ps3-elf/lib\libc.a(lib_a-abort.o)
 .debug_info    0x0000000000020020      0xaeb f:/psdk3/ps3dev/ppu/bin/../lib/gcc/powerpc64-ps3-elf/4.5.2/../../../../powerpc64-ps3-elf/lib\libc.a(lib_a-callocr.o)
 .debug_info    0x0000000000020b0b      0x141 f:/psdk3/ps3dev/ppu/bin/../lib/gcc/powerpc64-ps3-elf/4.5.2/../../../../powerpc64-ps3-elf/lib\libc.a(lib_a-memmove.o)
 .debug_info    0x0000000000020c4c      0xbd3 f:/psdk3/ps3dev/ppu/bin/../lib/gcc/powerpc64-ps3-elf/4.5.2/../../../../powerpc64-ps3-elf/lib\libc.a(lib_a-signal.o)
 .debug_info    0x000000000002181f     0x1580 f:/psdk3/ps3dev/ppu/bin/../lib/gcc/powerpc64-ps3-elf/4.5.2/../../../../powerpc64-ps3-elf/lib\libsysbase.a(close.o)
 .debug_info    0x0000000000022d9f     0x1581 f:/psdk3/ps3dev/ppu/bin/../lib/gcc/powerpc64-ps3-elf/4.5.2/../../../../powerpc64-ps3-elf/lib\libsysbase.a(sbrk.o)
 .debug_info    0x0000000000024320     0x156d f:/psdk3/ps3dev/ppu/bin/../lib/gcc/powerpc64-ps3-elf/4.5.2/../../../../powerpc64-ps3-elf/lib\libsysbase.a(_exit.o)
 .debug_info    0x000000000002588d     0x159c f:/psdk3/ps3dev/ppu/bin/../lib/gcc/powerpc64-ps3-elf/4.5.2/../../../../powerpc64-ps3-elf/lib\libsysbase.a(lseek.o)
 .debug_info    0x0000000000026e29     0x159c f:/psdk3/ps3dev/ppu/bin/../lib/gcc/powerpc64-ps3-elf/4.5.2/../../../../powerpc64-ps3-elf/lib\libsysbase.a(read.o)
 .debug_info    0x00000000000283c5     0x159c f:/psdk3/ps3dev/ppu/bin/../lib/gcc/powerpc64-ps3-elf/4.5.2/../../../../powerpc64-ps3-elf/lib\libsysbase.a(write.o)
 .debug_info    0x0000000000029961     0x16a5 f:/psdk3/ps3dev/ppu/bin/../lib/gcc/powerpc64-ps3-elf/4.5.2/../../../../powerpc64-ps3-elf/lib\libsysbase.a(lock.o)
 .debug_info    0x000000000002b006     0x1572 f:/psdk3/ps3dev/ppu/bin/../lib/gcc/powerpc64-ps3-elf/4.5.2/../../../../powerpc64-ps3-elf/lib\libsysbase.a(getpid.o)
 .debug_info    0x000000000002c578      0x9ff f:/psdk3/ps3dev/ppu/bin/../lib/gcc/powerpc64-ps3-elf/4.5.2/../../../../powerpc64-ps3-elf/lib\libsysbase.a(kill.o)

.debug_abbrev   0x0000000000000000     0x7458
 *(.debug_abbrev)
 .debug_abbrev  0x0000000000000000       0xd1 f:/psdk3/ps3dev/ppu/bin/../lib/gcc/powerpc64-ps3-elf/4.5.2/../../../../powerpc64-ps3-elf/lib\libm.a(lib_a-s_sqrt.o)
 .debug_abbrev  0x00000000000000d1       0x52 f:/psdk3/ps3dev/ppu/bin/../lib/gcc/powerpc64-ps3-elf/4.5.2/../../../../powerpc64-ps3-elf/lib\libm.a(lib_a-sf_cos.o)
 .debug_abbrev  0x0000000000000123       0x52 f:/psdk3/ps3dev/ppu/bin/../lib/gcc/powerpc64-ps3-elf/4.5.2/../../../../powerpc64-ps3-elf/lib\libm.a(lib_a-sf_sin.o)
 .debug_abbrev  0x0000000000000175       0xd2 f:/psdk3/ps3dev/ppu/bin/../lib/gcc/powerpc64-ps3-elf/4.5.2/../../../../powerpc64-ps3-elf/lib\libm.a(lib_a-sf_sine.o)
 .debug_abbrev  0x0000000000000247       0xbf f:/psdk3/ps3dev/ppu/bin/../lib/gcc/powerpc64-ps3-elf/4.5.2/../../../../powerpc64-ps3-elf/lib\libm.a(lib_a-sf_sqrt.o)
 .debug_abbrev  0x0000000000000306       0xd2 f:/psdk3/ps3dev/ppu/bin/../lib/gcc/powerpc64-ps3-elf/4.5.2/../../../../powerpc64-ps3-elf/lib\libm.a(lib_a-sf_tan.o)
 .debug_abbrev  0x00000000000003d8       0xec f:/psdk3/ps3dev/ppu/bin/../lib/gcc/powerpc64-ps3-elf/4.5.2/../../../../powerpc64-ps3-elf/lib\libm.a(lib_a-s_frexp.o)
 .debug_abbrev  0x00000000000004c4       0xc5 f:/psdk3/ps3dev/ppu/bin/../lib/gcc/powerpc64-ps3-elf/4.5.2/../../../../powerpc64-ps3-elf/lib\libm.a(lib_a-s_ispos.o)
 .debug_abbrev  0x0000000000000589      0x109 f:/psdk3/ps3dev/ppu/bin/../lib/gcc/powerpc64-ps3-elf/4.5.2/../../../../powerpc64-ps3-elf/lib\libm.a(lib_a-s_ldexp.o)
 .debug_abbrev  0x0000000000000692       0x6e f:/psdk3/ps3dev/ppu/bin/../lib/gcc/powerpc64-ps3-elf/4.5.2/../../../../powerpc64-ps3-elf/lib\libm.a(lib_a-s_mathcnst.o)
 .debug_abbrev  0x0000000000000700       0xc7 f:/psdk3/ps3dev/ppu/bin/../lib/gcc/powerpc64-ps3-elf/4.5.2/../../../../powerpc64-ps3-elf/lib\libm.a(lib_a-s_numtest.o)
 .debug_abbrev  0x00000000000007c7       0x52 f:/psdk3/ps3dev/ppu/bin/../lib/gcc/powerpc64-ps3-elf/4.5.2/../../../../powerpc64-ps3-elf/lib\libm.a(lib_a-sf_fabs.o)
 .debug_abbrev  0x0000000000000819       0xc3 f:/psdk3/ps3dev/ppu/bin/../lib/gcc/powerpc64-ps3-elf/4.5.2/../../../../powerpc64-ps3-elf/lib\libm.a(lib_a-sf_frexp.o)
 .debug_abbrev  0x00000000000008dc       0x6e f:/psdk3/ps3dev/ppu/bin/../lib/gcc/powerpc64-ps3-elf/4.5.2/../../../../powerpc64-ps3-elf/lib\libm.a(lib_a-sf_ispos.o)
 .debug_abbrev  0x000000000000094a       0xdf f:/psdk3/ps3dev/ppu/bin/../lib/gcc/powerpc64-ps3-elf/4.5.2/../../../../powerpc64-ps3-elf/lib\libm.a(lib_a-sf_ldexp.o)
 .debug_abbrev  0x0000000000000a29       0x7b f:/psdk3/ps3dev/ppu/bin/../lib/gcc/powerpc64-ps3-elf/4.5.2/../../../../powerpc64-ps3-elf/lib\libm.a(lib_a-sf_numtest.o)
 .debug_abbrev  0x0000000000000aa4      0x1a0 f:/psdk3/ps3dev/ppu/bin/../lib/gcc/powerpc64-ps3-elf/4.5.2/../../../../powerpc64-ps3-elf/lib\libsysbase.a(syscalls.o)
 .debug_abbrev  0x0000000000000c44      0x1e8 f:/psdk3/ps3dev/ppu/bin/../lib/gcc/powerpc64-ps3-elf/4.5.2/../../../../powerpc64-ps3-elf/lib\libsysbase.a(sleep.o)
 .debug_abbrev  0x0000000000000e2c       0x7a f:/psdk3/ps3dev/ppu/bin/../lib/gcc/powerpc64-ps3-elf/4.5.2/../../../../powerpc64-ps3-elf/lib\libc.a(lib_a-atexit.o)
 .debug_abbrev  0x0000000000000ea6       0x4c f:/psdk3/ps3dev/ppu/bin/../lib/gcc/powerpc64-ps3-elf/4.5.2/../../../../powerpc64-ps3-elf/lib\libc.a(lib_a-errno.o)
 .debug_abbrev  0x0000000000000ef2      0x18c f:/psdk3/ps3dev/ppu/bin/../lib/gcc/powerpc64-ps3-elf/4.5.2/../../../../powerpc64-ps3-elf/lib\libc.a(lib_a-exit.o)
 .debug_abbrev  0x000000000000107e      0x1a9 f:/psdk3/ps3dev/ppu/bin/../lib/gcc/powerpc64-ps3-elf/4.5.2/../../../../powerpc64-ps3-elf/lib\libc.a(lib_a-getreent.o)
 .debug_abbrev  0x0000000000001227      0x173 f:/psdk3/ps3dev/ppu/bin/../lib/gcc/powerpc64-ps3-elf/4.5.2/../../../../powerpc64-ps3-elf/lib\libc.a(lib_a-impure.o)
 .debug_abbrev  0x000000000000139a       0x66 f:/psdk3/ps3dev/ppu/bin/../lib/gcc/powerpc64-ps3-elf/4.5.2/../../../../powerpc64-ps3-elf/lib\libc.a(lib_a-malign.o)
 .debug_abbrev  0x0000000000001400      0x1a8 f:/psdk3/ps3dev/ppu/bin/../lib/gcc/powerpc64-ps3-elf/4.5.2/../../../../powerpc64-ps3-elf/lib\libc.a(lib_a-malignr.o)
 .debug_abbrev  0x00000000000015a8       0x7d f:/psdk3/ps3dev/ppu/bin/../lib/gcc/powerpc64-ps3-elf/4.5.2/../../../../powerpc64-ps3-elf/lib\libc.a(lib_a-malloc.o)
 .debug_abbrev  0x0000000000001625      0x242 f:/psdk3/ps3dev/ppu/bin/../lib/gcc/powerpc64-ps3-elf/4.5.2/../../../../powerpc64-ps3-elf/lib\libc.a(lib_a-mallocr.o)
 .debug_abbrev  0x0000000000001867       0xaa f:/psdk3/ps3dev/ppu/bin/../lib/gcc/powerpc64-ps3-elf/4.5.2/../../../../powerpc64-ps3-elf/lib\libc.a(lib_a-memcpy.o)
 .debug_abbrev  0x0000000000001911       0x8f f:/psdk3/ps3dev/ppu/bin/../lib/gcc/powerpc64-ps3-elf/4.5.2/../../../../powerpc64-ps3-elf/lib\libc.a(lib_a-memset.o)
 .debug_abbrev  0x00000000000019a0      0x188 f:/psdk3/ps3dev/ppu/bin/../lib/gcc/powerpc64-ps3-elf/4.5.2/../../../../powerpc64-ps3-elf/lib\libc.a(lib_a-mlock.o)
 .debug_abbrev  0x0000000000001b28      0x1c0 f:/psdk3/ps3dev/ppu/bin/../lib/gcc/powerpc64-ps3-elf/4.5.2/../../../../powerpc64-ps3-elf/lib\libc.a(lib_a-sscanf.o)
 .debug_abbrev  0x0000000000001ce8      0x205 f:/psdk3/ps3dev/ppu/bin/../lib/gcc/powerpc64-ps3-elf/4.5.2/../../../../powerpc64-ps3-elf/lib\libc.a(lib_a-stdio.o)
 .debug_abbrev  0x0000000000001eed       0xa5 f:/psdk3/ps3dev/ppu/bin/../lib/gcc/powerpc64-ps3-elf/4.5.2/../../../../powerpc64-ps3-elf/lib\libc.a(lib_a-strcasecmp.o)
 .debug_abbrev  0x0000000000001f92       0x80 f:/psdk3/ps3dev/ppu/bin/../lib/gcc/powerpc64-ps3-elf/4.5.2/../../../../powerpc64-ps3-elf/lib\libc.a(lib_a-strlen.o)
 .debug_abbrev  0x0000000000002012       0x9e f:/psdk3/ps3dev/ppu/bin/../lib/gcc/powerpc64-ps3-elf/4.5.2/../../../../powerpc64-ps3-elf/lib\libc.a(lib_a-strncpy.o)
 .debug_abbrev  0x00000000000020b0      0x254 f:/psdk3/ps3dev/ppu/bin/../lib/gcc/powerpc64-ps3-elf/4.5.2/../../../../powerpc64-ps3-elf/lib\libc.a(lib_a-svfscanf.o)
 .debug_abbrev  0x0000000000002304      0x1d1 f:/psdk3/ps3dev/ppu/bin/../lib/gcc/powerpc64-ps3-elf/4.5.2/../../../../powerpc64-ps3-elf/lib\libc.a(lib_a-vsprintf.o)
 .debug_abbrev  0x00000000000024d5      0x1f5 f:/psdk3/ps3dev/ppu/bin/../lib/gcc/powerpc64-ps3-elf/4.5.2/../../../../powerpc64-ps3-elf/lib\libc.a(lib_a-__atexit.o)
 .debug_abbrev  0x00000000000026ca      0x1eb f:/psdk3/ps3dev/ppu/bin/../lib/gcc/powerpc64-ps3-elf/4.5.2/../../../../powerpc64-ps3-elf/lib\libc.a(lib_a-__call_atexit.o)
 .debug_abbrev  0x00000000000028b5       0x63 f:/psdk3/ps3dev/ppu/bin/../lib/gcc/powerpc64-ps3-elf/4.5.2/../../../../powerpc64-ps3-elf/lib\libc.a(lib_a-ctype_.o)
 .debug_abbrev  0x0000000000002918      0x2b9 f:/psdk3/ps3dev/ppu/bin/../lib/gcc/powerpc64-ps3-elf/4.5.2/../../../../powerpc64-ps3-elf/lib\libc.a(lib_a-findfp.o)
 .debug_abbrev  0x0000000000002bd1      0x1f9 f:/psdk3/ps3dev/ppu/bin/../lib/gcc/powerpc64-ps3-elf/4.5.2/../../../../powerpc64-ps3-elf/lib\libc.a(lib_a-freer.o)
 .debug_abbrev  0x0000000000002dca      0x214 f:/psdk3/ps3dev/ppu/bin/../lib/gcc/powerpc64-ps3-elf/4.5.2/../../../../powerpc64-ps3-elf/lib\libc.a(lib_a-fwalk.o)
 .debug_abbrev  0x0000000000002fde       0x82 f:/psdk3/ps3dev/ppu/bin/../lib/gcc/powerpc64-ps3-elf/4.5.2/../../../../powerpc64-ps3-elf/lib\libc.a(lib_a-iswspace.o)
 .debug_abbrev  0x0000000000003060      0x25a f:/psdk3/ps3dev/ppu/bin/../lib/gcc/powerpc64-ps3-elf/4.5.2/../../../../powerpc64-ps3-elf/lib\libc.a(lib_a-locale.o)
 .debug_abbrev  0x00000000000032ba       0xb0 f:/psdk3/ps3dev/ppu/bin/../lib/gcc/powerpc64-ps3-elf/4.5.2/../../../../powerpc64-ps3-elf/lib\libc.a(lib_a-lock_recursive.o)
 .debug_abbrev  0x000000000000336a      0x19d f:/psdk3/ps3dev/ppu/bin/../lib/gcc/powerpc64-ps3-elf/4.5.2/../../../../powerpc64-ps3-elf/lib\libc.a(lib_a-mbrtowc.o)
 .debug_abbrev  0x0000000000003507      0x203 f:/psdk3/ps3dev/ppu/bin/../lib/gcc/powerpc64-ps3-elf/4.5.2/../../../../powerpc64-ps3-elf/lib\libc.a(lib_a-mbtowc_r.o)
 .debug_abbrev  0x000000000000370a       0xc7 f:/psdk3/ps3dev/ppu/bin/../lib/gcc/powerpc64-ps3-elf/4.5.2/../../../../powerpc64-ps3-elf/lib\libc.a(lib_a-s_fpclassify.o)
 .debug_abbrev  0x00000000000037d1       0x86 f:/psdk3/ps3dev/ppu/bin/../lib/gcc/powerpc64-ps3-elf/4.5.2/../../../../powerpc64-ps3-elf/lib\libc.a(lib_a-sccl.o)
 .debug_abbrev  0x0000000000003857       0x71 f:/psdk3/ps3dev/ppu/bin/../lib/gcc/powerpc64-ps3-elf/4.5.2/../../../../powerpc64-ps3-elf/lib\libc.a(lib_a-sf_nan.o)
 .debug_abbrev  0x00000000000038c8      0x1c0 f:/psdk3/ps3dev/ppu/bin/../lib/gcc/powerpc64-ps3-elf/4.5.2/../../../../powerpc64-ps3-elf/lib\libc.a(lib_a-sprintf.o)
 .debug_abbrev  0x0000000000003a88       0x73 f:/psdk3/ps3dev/ppu/bin/../lib/gcc/powerpc64-ps3-elf/4.5.2/../../../../powerpc64-ps3-elf/lib\libc.a(lib_a-strcmp.o)
 .debug_abbrev  0x0000000000003afb      0x2fe f:/psdk3/ps3dev/ppu/bin/../lib/gcc/powerpc64-ps3-elf/4.5.2/../../../../powerpc64-ps3-elf/lib\libc.a(lib_a-strtod.o)
 .debug_abbrev  0x0000000000003df9      0x1e3 f:/psdk3/ps3dev/ppu/bin/../lib/gcc/powerpc64-ps3-elf/4.5.2/../../../../powerpc64-ps3-elf/lib\libc.a(lib_a-strtol.o)
 .debug_abbrev  0x0000000000003fdc      0x1bb f:/psdk3/ps3dev/ppu/bin/../lib/gcc/powerpc64-ps3-elf/4.5.2/../../../../powerpc64-ps3-elf/lib\libc.a(lib_a-strtoll_r.o)
 .debug_abbrev  0x0000000000004197      0x1e3 f:/psdk3/ps3dev/ppu/bin/../lib/gcc/powerpc64-ps3-elf/4.5.2/../../../../powerpc64-ps3-elf/lib\libc.a(lib_a-strtoul.o)
 .debug_abbrev  0x000000000000437a      0x1bb f:/psdk3/ps3dev/ppu/bin/../lib/gcc/powerpc64-ps3-elf/4.5.2/../../../../powerpc64-ps3-elf/lib\libc.a(lib_a-strtoull_r.o)
 .debug_abbrev  0x0000000000004535      0x24b f:/psdk3/ps3dev/ppu/bin/../lib/gcc/powerpc64-ps3-elf/4.5.2/../../../../powerpc64-ps3-elf/lib\libc.a(lib_a-svfiscanf.o)
 .debug_abbrev  0x0000000000004780      0x304 f:/psdk3/ps3dev/ppu/bin/../lib/gcc/powerpc64-ps3-elf/4.5.2/../../../../powerpc64-ps3-elf/lib\libc.a(lib_a-svfprintf.o)
 .debug_abbrev  0x0000000000004a84      0x1cb f:/psdk3/ps3dev/ppu/bin/../lib/gcc/powerpc64-ps3-elf/4.5.2/../../../../powerpc64-ps3-elf/lib\libc.a(lib_a-ungetc.o)
 .debug_abbrev  0x0000000000004c4f      0x21a f:/psdk3/ps3dev/ppu/bin/../lib/gcc/powerpc64-ps3-elf/4.5.2/../../../../powerpc64-ps3-elf/lib\libc.a(lib_a-dtoa.o)
 .debug_abbrev  0x0000000000004e69      0x1b2 f:/psdk3/ps3dev/ppu/bin/../lib/gcc/powerpc64-ps3-elf/4.5.2/../../../../powerpc64-ps3-elf/lib\libc.a(lib_a-fclose.o)
 .debug_abbrev  0x000000000000501b      0x1cc f:/psdk3/ps3dev/ppu/bin/../lib/gcc/powerpc64-ps3-elf/4.5.2/../../../../powerpc64-ps3-elf/lib\libc.a(lib_a-fflush.o)
 .debug_abbrev  0x00000000000051e7      0x32b f:/psdk3/ps3dev/ppu/bin/../lib/gcc/powerpc64-ps3-elf/4.5.2/../../../../powerpc64-ps3-elf/lib\libc.a(lib_a-gdtoa-gethex.o)
 .debug_abbrev  0x0000000000005512      0x15e f:/psdk3/ps3dev/ppu/bin/../lib/gcc/powerpc64-ps3-elf/4.5.2/../../../../powerpc64-ps3-elf/lib\libc.a(lib_a-gdtoa-hexnan.o)
 .debug_abbrev  0x0000000000005670       0xc1 f:/psdk3/ps3dev/ppu/bin/../lib/gcc/powerpc64-ps3-elf/4.5.2/../../../../powerpc64-ps3-elf/lib\libc.a(lib_a-lock_internal.o)
 .debug_abbrev  0x0000000000005731       0xb9 f:/psdk3/ps3dev/ppu/bin/../lib/gcc/powerpc64-ps3-elf/4.5.2/../../../../powerpc64-ps3-elf/lib\libc.a(lib_a-memchr.o)
 .debug_abbrev  0x00000000000057ea      0x315 f:/psdk3/ps3dev/ppu/bin/../lib/gcc/powerpc64-ps3-elf/4.5.2/../../../../powerpc64-ps3-elf/lib\libc.a(lib_a-mprec.o)
 .debug_abbrev  0x0000000000005aff      0x1ea f:/psdk3/ps3dev/ppu/bin/../lib/gcc/powerpc64-ps3-elf/4.5.2/../../../../powerpc64-ps3-elf/lib\libc.a(lib_a-reallocr.o)
 .debug_abbrev  0x0000000000005ce9       0x80 f:/psdk3/ps3dev/ppu/bin/../lib/gcc/powerpc64-ps3-elf/4.5.2/../../../../powerpc64-ps3-elf/lib\libc.a(lib_a-strncmp.o)
 .debug_abbrev  0x0000000000005d69      0x26f f:/psdk3/ps3dev/ppu/bin/../lib/gcc/powerpc64-ps3-elf/4.5.2/../../../../powerpc64-ps3-elf/lib\libc.a(lib_a-svfiprintf.o)
 .debug_abbrev  0x0000000000005fd8       0x41 f:/psdk3/ps3dev/ppu/bin/../lib/gcc/powerpc64-ps3-elf/4.5.2/../../../../powerpc64-ps3-elf/lib\libc.a(lib_a-abort.o)
 .debug_abbrev  0x0000000000006019      0x1c9 f:/psdk3/ps3dev/ppu/bin/../lib/gcc/powerpc64-ps3-elf/4.5.2/../../../../powerpc64-ps3-elf/lib\libc.a(lib_a-callocr.o)
 .debug_abbrev  0x00000000000061e2       0xaa f:/psdk3/ps3dev/ppu/bin/../lib/gcc/powerpc64-ps3-elf/4.5.2/../../../../powerpc64-ps3-elf/lib\libc.a(lib_a-memmove.o)
 .debug_abbrev  0x000000000000628c      0x1d6 f:/psdk3/ps3dev/ppu/bin/../lib/gcc/powerpc64-ps3-elf/4.5.2/../../../../powerpc64-ps3-elf/lib\libc.a(lib_a-signal.o)
 .debug_abbrev  0x0000000000006462      0x1ca f:/psdk3/ps3dev/ppu/bin/../lib/gcc/powerpc64-ps3-elf/4.5.2/../../../../powerpc64-ps3-elf/lib\libsysbase.a(close.o)
 .debug_abbrev  0x000000000000662c      0x1d9 f:/psdk3/ps3dev/ppu/bin/../lib/gcc/powerpc64-ps3-elf/4.5.2/../../../../powerpc64-ps3-elf/lib\libsysbase.a(sbrk.o)
 .debug_abbrev  0x0000000000006805      0x1c8 f:/psdk3/ps3dev/ppu/bin/../lib/gcc/powerpc64-ps3-elf/4.5.2/../../../../powerpc64-ps3-elf/lib\libsysbase.a(_exit.o)
 .debug_abbrev  0x00000000000069cd      0x1ca f:/psdk3/ps3dev/ppu/bin/../lib/gcc/powerpc64-ps3-elf/4.5.2/../../../../powerpc64-ps3-elf/lib\libsysbase.a(lseek.o)
 .debug_abbrev  0x0000000000006b97      0x1ca f:/psdk3/ps3dev/ppu/bin/../lib/gcc/powerpc64-ps3-elf/4.5.2/../../../../powerpc64-ps3-elf/lib\libsysbase.a(read.o)
 .debug_abbrev  0x0000000000006d61      0x1ca f:/psdk3/ps3dev/ppu/bin/../lib/gcc/powerpc64-ps3-elf/4.5.2/../../../../powerpc64-ps3-elf/lib\libsysbase.a(write.o)
 .debug_abbrev  0x0000000000006f2b      0x1d9 f:/psdk3/ps3dev/ppu/bin/../lib/gcc/powerpc64-ps3-elf/4.5.2/../../../../powerpc64-ps3-elf/lib\libsysbase.a(lock.o)
 .debug_abbrev  0x0000000000007104      0x1ca f:/psdk3/ps3dev/ppu/bin/../lib/gcc/powerpc64-ps3-elf/4.5.2/../../../../powerpc64-ps3-elf/lib\libsysbase.a(getpid.o)
 .debug_abbrev  0x00000000000072ce      0x18a f:/psdk3/ps3dev/ppu/bin/../lib/gcc/powerpc64-ps3-elf/4.5.2/../../../../powerpc64-ps3-elf/lib\libsysbase.a(kill.o)

.debug_line     0x0000000000000000     0xf348
 *(.debug_line)
 .debug_line    0x0000000000000000      0x12e f:/psdk3/ps3dev/ppu/bin/../lib/gcc/powerpc64-ps3-elf/4.5.2/../../../../powerpc64-ps3-elf/lib\libm.a(lib_a-s_sqrt.o)
 .debug_line    0x000000000000012e       0xcc f:/psdk3/ps3dev/ppu/bin/../lib/gcc/powerpc64-ps3-elf/4.5.2/../../../../powerpc64-ps3-elf/lib\libm.a(lib_a-sf_cos.o)
 .debug_line    0x00000000000001fa       0xcc f:/psdk3/ps3dev/ppu/bin/../lib/gcc/powerpc64-ps3-elf/4.5.2/../../../../powerpc64-ps3-elf/lib\libm.a(lib_a-sf_sin.o)
 .debug_line    0x00000000000002c6       0xc4 f:/psdk3/ps3dev/ppu/bin/../lib/gcc/powerpc64-ps3-elf/4.5.2/../../../../powerpc64-ps3-elf/lib\libm.a(lib_a-sf_sine.o)
 .debug_line    0x000000000000038a      0x12e f:/psdk3/ps3dev/ppu/bin/../lib/gcc/powerpc64-ps3-elf/4.5.2/../../../../powerpc64-ps3-elf/lib\libm.a(lib_a-sf_sqrt.o)
 .debug_line    0x00000000000004b8      0x14c f:/psdk3/ps3dev/ppu/bin/../lib/gcc/powerpc64-ps3-elf/4.5.2/../../../../powerpc64-ps3-elf/lib\libm.a(lib_a-sf_tan.o)
 .debug_line    0x0000000000000604      0x19c f:/psdk3/ps3dev/ppu/bin/../lib/gcc/powerpc64-ps3-elf/4.5.2/../../../../powerpc64-ps3-elf/lib\libm.a(lib_a-s_frexp.o)
 .debug_line    0x00000000000007a0      0x116 f:/psdk3/ps3dev/ppu/bin/../lib/gcc/powerpc64-ps3-elf/4.5.2/../../../../powerpc64-ps3-elf/lib\libm.a(lib_a-s_ispos.o)
 .debug_line    0x00000000000008b6      0x1cf f:/psdk3/ps3dev/ppu/bin/../lib/gcc/powerpc64-ps3-elf/4.5.2/../../../../powerpc64-ps3-elf/lib\libm.a(lib_a-s_ldexp.o)
 .debug_line    0x0000000000000a85       0x5a f:/psdk3/ps3dev/ppu/bin/../lib/gcc/powerpc64-ps3-elf/4.5.2/../../../../powerpc64-ps3-elf/lib\libm.a(lib_a-s_mathcnst.o)
 .debug_line    0x0000000000000adf      0x129 f:/psdk3/ps3dev/ppu/bin/../lib/gcc/powerpc64-ps3-elf/4.5.2/../../../../powerpc64-ps3-elf/lib\libm.a(lib_a-s_numtest.o)
 .debug_line    0x0000000000000c08       0xfc f:/psdk3/ps3dev/ppu/bin/../lib/gcc/powerpc64-ps3-elf/4.5.2/../../../../powerpc64-ps3-elf/lib\libm.a(lib_a-sf_fabs.o)
 .debug_line    0x0000000000000d04      0x19a f:/psdk3/ps3dev/ppu/bin/../lib/gcc/powerpc64-ps3-elf/4.5.2/../../../../powerpc64-ps3-elf/lib\libm.a(lib_a-sf_frexp.o)
 .debug_line    0x0000000000000e9e       0xde f:/psdk3/ps3dev/ppu/bin/../lib/gcc/powerpc64-ps3-elf/4.5.2/../../../../powerpc64-ps3-elf/lib\libm.a(lib_a-sf_ispos.o)
 .debug_line    0x0000000000000f7c      0x1c1 f:/psdk3/ps3dev/ppu/bin/../lib/gcc/powerpc64-ps3-elf/4.5.2/../../../../powerpc64-ps3-elf/lib\libm.a(lib_a-sf_ldexp.o)
 .debug_line    0x000000000000113d       0xe5 f:/psdk3/ps3dev/ppu/bin/../lib/gcc/powerpc64-ps3-elf/4.5.2/../../../../powerpc64-ps3-elf/lib\libm.a(lib_a-sf_numtest.o)
 .debug_line    0x0000000000001222      0x2e0 f:/psdk3/ps3dev/ppu/bin/../lib/gcc/powerpc64-ps3-elf/4.5.2/../../../../powerpc64-ps3-elf/lib\libsysbase.a(syscalls.o)
 .debug_line    0x0000000000001502      0x352 f:/psdk3/ps3dev/ppu/bin/../lib/gcc/powerpc64-ps3-elf/4.5.2/../../../../powerpc64-ps3-elf/lib\libsysbase.a(sleep.o)
 .debug_line    0x0000000000001854       0xdc f:/psdk3/ps3dev/ppu/bin/../lib/gcc/powerpc64-ps3-elf/4.5.2/../../../../powerpc64-ps3-elf/lib\libc.a(lib_a-atexit.o)
 .debug_line    0x0000000000001930       0xcd f:/psdk3/ps3dev/ppu/bin/../lib/gcc/powerpc64-ps3-elf/4.5.2/../../../../powerpc64-ps3-elf/lib\libc.a(lib_a-errno.o)
 .debug_line    0x00000000000019fd      0x2d4 f:/psdk3/ps3dev/ppu/bin/../lib/gcc/powerpc64-ps3-elf/4.5.2/../../../../powerpc64-ps3-elf/lib\libc.a(lib_a-exit.o)
 .debug_line    0x0000000000001cd1      0x22e f:/psdk3/ps3dev/ppu/bin/../lib/gcc/powerpc64-ps3-elf/4.5.2/../../../../powerpc64-ps3-elf/lib\libc.a(lib_a-getreent.o)
 .debug_line    0x0000000000001eff      0x2b0 f:/psdk3/ps3dev/ppu/bin/../lib/gcc/powerpc64-ps3-elf/4.5.2/../../../../powerpc64-ps3-elf/lib\libc.a(lib_a-impure.o)
 .debug_line    0x00000000000021af      0x131 f:/psdk3/ps3dev/ppu/bin/../lib/gcc/powerpc64-ps3-elf/4.5.2/../../../../powerpc64-ps3-elf/lib\libc.a(lib_a-malign.o)
 .debug_line    0x00000000000022e0      0x332 f:/psdk3/ps3dev/ppu/bin/../lib/gcc/powerpc64-ps3-elf/4.5.2/../../../../powerpc64-ps3-elf/lib\libc.a(lib_a-malignr.o)
 .debug_line    0x0000000000002612      0x148 f:/psdk3/ps3dev/ppu/bin/../lib/gcc/powerpc64-ps3-elf/4.5.2/../../../../powerpc64-ps3-elf/lib\libc.a(lib_a-malloc.o)
 .debug_line    0x000000000000275a      0x51a f:/psdk3/ps3dev/ppu/bin/../lib/gcc/powerpc64-ps3-elf/4.5.2/../../../../powerpc64-ps3-elf/lib\libc.a(lib_a-mallocr.o)
 .debug_line    0x0000000000002c74      0x194 f:/psdk3/ps3dev/ppu/bin/../lib/gcc/powerpc64-ps3-elf/4.5.2/../../../../powerpc64-ps3-elf/lib\libc.a(lib_a-memcpy.o)
 .debug_line    0x0000000000002e08      0x197 f:/psdk3/ps3dev/ppu/bin/../lib/gcc/powerpc64-ps3-elf/4.5.2/../../../../powerpc64-ps3-elf/lib\libc.a(lib_a-memset.o)
 .debug_line    0x0000000000002f9f      0x2de f:/psdk3/ps3dev/ppu/bin/../lib/gcc/powerpc64-ps3-elf/4.5.2/../../../../powerpc64-ps3-elf/lib\libc.a(lib_a-mlock.o)
 .debug_line    0x000000000000327d      0x323 f:/psdk3/ps3dev/ppu/bin/../lib/gcc/powerpc64-ps3-elf/4.5.2/../../../../powerpc64-ps3-elf/lib\libc.a(lib_a-sscanf.o)
 .debug_line    0x00000000000035a0      0x362 f:/psdk3/ps3dev/ppu/bin/../lib/gcc/powerpc64-ps3-elf/4.5.2/../../../../powerpc64-ps3-elf/lib\libc.a(lib_a-stdio.o)
 .debug_line    0x0000000000003902      0x108 f:/psdk3/ps3dev/ppu/bin/../lib/gcc/powerpc64-ps3-elf/4.5.2/../../../../powerpc64-ps3-elf/lib\libc.a(lib_a-strcasecmp.o)
 .debug_line    0x0000000000003a0a      0x144 f:/psdk3/ps3dev/ppu/bin/../lib/gcc/powerpc64-ps3-elf/4.5.2/../../../../powerpc64-ps3-elf/lib\libc.a(lib_a-strlen.o)
 .debug_line    0x0000000000003b4e      0x180 f:/psdk3/ps3dev/ppu/bin/../lib/gcc/powerpc64-ps3-elf/4.5.2/../../../../powerpc64-ps3-elf/lib\libc.a(lib_a-strncpy.o)
 .debug_line    0x0000000000003cce      0x739 f:/psdk3/ps3dev/ppu/bin/../lib/gcc/powerpc64-ps3-elf/4.5.2/../../../../powerpc64-ps3-elf/lib\libc.a(lib_a-svfscanf.o)
 .debug_line    0x0000000000004407      0x304 f:/psdk3/ps3dev/ppu/bin/../lib/gcc/powerpc64-ps3-elf/4.5.2/../../../../powerpc64-ps3-elf/lib\libc.a(lib_a-vsprintf.o)
 .debug_line    0x000000000000470b      0x308 f:/psdk3/ps3dev/ppu/bin/../lib/gcc/powerpc64-ps3-elf/4.5.2/../../../../powerpc64-ps3-elf/lib\libc.a(lib_a-__atexit.o)
 .debug_line    0x0000000000004a13      0x33b f:/psdk3/ps3dev/ppu/bin/../lib/gcc/powerpc64-ps3-elf/4.5.2/../../../../powerpc64-ps3-elf/lib\libc.a(lib_a-__call_atexit.o)
 .debug_line    0x0000000000004d4e       0x88 f:/psdk3/ps3dev/ppu/bin/../lib/gcc/powerpc64-ps3-elf/4.5.2/../../../../powerpc64-ps3-elf/lib\libc.a(lib_a-ctype_.o)
 .debug_line    0x0000000000004dd6      0x4e1 f:/psdk3/ps3dev/ppu/bin/../lib/gcc/powerpc64-ps3-elf/4.5.2/../../../../powerpc64-ps3-elf/lib\libc.a(lib_a-findfp.o)
 .debug_line    0x00000000000052b7      0x3c1 f:/psdk3/ps3dev/ppu/bin/../lib/gcc/powerpc64-ps3-elf/4.5.2/../../../../powerpc64-ps3-elf/lib\libc.a(lib_a-freer.o)
 .debug_line    0x0000000000005678      0x30e f:/psdk3/ps3dev/ppu/bin/../lib/gcc/powerpc64-ps3-elf/4.5.2/../../../../powerpc64-ps3-elf/lib\libc.a(lib_a-fwalk.o)
 .debug_line    0x0000000000005986      0x14b f:/psdk3/ps3dev/ppu/bin/../lib/gcc/powerpc64-ps3-elf/4.5.2/../../../../powerpc64-ps3-elf/lib\libc.a(lib_a-iswspace.o)
 .debug_line    0x0000000000005ad1      0x399 f:/psdk3/ps3dev/ppu/bin/../lib/gcc/powerpc64-ps3-elf/4.5.2/../../../../powerpc64-ps3-elf/lib\libc.a(lib_a-locale.o)
 .debug_line    0x0000000000005e6a      0x17f f:/psdk3/ps3dev/ppu/bin/../lib/gcc/powerpc64-ps3-elf/4.5.2/../../../../powerpc64-ps3-elf/lib\libc.a(lib_a-lock_recursive.o)
 .debug_line    0x0000000000005fe9      0x32c f:/psdk3/ps3dev/ppu/bin/../lib/gcc/powerpc64-ps3-elf/4.5.2/../../../../powerpc64-ps3-elf/lib\libc.a(lib_a-mbrtowc.o)
 .debug_line    0x0000000000006315      0x318 f:/psdk3/ps3dev/ppu/bin/../lib/gcc/powerpc64-ps3-elf/4.5.2/../../../../powerpc64-ps3-elf/lib\libc.a(lib_a-mbtowc_r.o)
 .debug_line    0x000000000000662d      0x1a1 f:/psdk3/ps3dev/ppu/bin/../lib/gcc/powerpc64-ps3-elf/4.5.2/../../../../powerpc64-ps3-elf/lib\libc.a(lib_a-s_fpclassify.o)
 .debug_line    0x00000000000067ce      0x12a f:/psdk3/ps3dev/ppu/bin/../lib/gcc/powerpc64-ps3-elf/4.5.2/../../../../powerpc64-ps3-elf/lib\libc.a(lib_a-sccl.o)
 .debug_line    0x00000000000068f8       0xc8 f:/psdk3/ps3dev/ppu/bin/../lib/gcc/powerpc64-ps3-elf/4.5.2/../../../../powerpc64-ps3-elf/lib\libc.a(lib_a-sf_nan.o)
 .debug_line    0x00000000000069c0      0x321 f:/psdk3/ps3dev/ppu/bin/../lib/gcc/powerpc64-ps3-elf/4.5.2/../../../../powerpc64-ps3-elf/lib\libc.a(lib_a-sprintf.o)
 .debug_line    0x0000000000006ce1       0xf6 f:/psdk3/ps3dev/ppu/bin/../lib/gcc/powerpc64-ps3-elf/4.5.2/../../../../powerpc64-ps3-elf/lib\libc.a(lib_a-strcmp.o)
 .debug_line    0x0000000000006dd7      0x838 f:/psdk3/ps3dev/ppu/bin/../lib/gcc/powerpc64-ps3-elf/4.5.2/../../../../powerpc64-ps3-elf/lib\libc.a(lib_a-strtod.o)
 .debug_line    0x000000000000760f      0x3bc f:/psdk3/ps3dev/ppu/bin/../lib/gcc/powerpc64-ps3-elf/4.5.2/../../../../powerpc64-ps3-elf/lib\libc.a(lib_a-strtol.o)
 .debug_line    0x00000000000079cb      0x3a5 f:/psdk3/ps3dev/ppu/bin/../lib/gcc/powerpc64-ps3-elf/4.5.2/../../../../powerpc64-ps3-elf/lib\libc.a(lib_a-strtoll_r.o)
 .debug_line    0x0000000000007d70      0x389 f:/psdk3/ps3dev/ppu/bin/../lib/gcc/powerpc64-ps3-elf/4.5.2/../../../../powerpc64-ps3-elf/lib\libc.a(lib_a-strtoul.o)
 .debug_line    0x00000000000080f9      0x373 f:/psdk3/ps3dev/ppu/bin/../lib/gcc/powerpc64-ps3-elf/4.5.2/../../../../powerpc64-ps3-elf/lib\libc.a(lib_a-strtoull_r.o)
 .debug_line    0x000000000000846c      0x6ef f:/psdk3/ps3dev/ppu/bin/../lib/gcc/powerpc64-ps3-elf/4.5.2/../../../../powerpc64-ps3-elf/lib\libc.a(lib_a-svfiscanf.o)
 .debug_line    0x0000000000008b5b      0xb94 f:/psdk3/ps3dev/ppu/bin/../lib/gcc/powerpc64-ps3-elf/4.5.2/../../../../powerpc64-ps3-elf/lib\libc.a(lib_a-svfprintf.o)
 .debug_line    0x00000000000096ef      0x3b3 f:/psdk3/ps3dev/ppu/bin/../lib/gcc/powerpc64-ps3-elf/4.5.2/../../../../powerpc64-ps3-elf/lib\libc.a(lib_a-ungetc.o)
 .debug_line    0x0000000000009aa2      0x8df f:/psdk3/ps3dev/ppu/bin/../lib/gcc/powerpc64-ps3-elf/4.5.2/../../../../powerpc64-ps3-elf/lib\libc.a(lib_a-dtoa.o)
 .debug_line    0x000000000000a381      0x33c f:/psdk3/ps3dev/ppu/bin/../lib/gcc/powerpc64-ps3-elf/4.5.2/../../../../powerpc64-ps3-elf/lib\libc.a(lib_a-fclose.o)
 .debug_line    0x000000000000a6bd      0x3fd f:/psdk3/ps3dev/ppu/bin/../lib/gcc/powerpc64-ps3-elf/4.5.2/../../../../powerpc64-ps3-elf/lib\libc.a(lib_a-fflush.o)
 .debug_line    0x000000000000aaba      0x586 f:/psdk3/ps3dev/ppu/bin/../lib/gcc/powerpc64-ps3-elf/4.5.2/../../../../powerpc64-ps3-elf/lib\libc.a(lib_a-gdtoa-gethex.o)
 .debug_line    0x000000000000b040      0x1af f:/psdk3/ps3dev/ppu/bin/../lib/gcc/powerpc64-ps3-elf/4.5.2/../../../../powerpc64-ps3-elf/lib\libc.a(lib_a-gdtoa-hexnan.o)
 .debug_line    0x000000000000b1ef      0x144 f:/psdk3/ps3dev/ppu/bin/../lib/gcc/powerpc64-ps3-elf/4.5.2/../../../../powerpc64-ps3-elf/lib\libc.a(lib_a-lock_internal.o)
 .debug_line    0x000000000000b333      0x17a f:/psdk3/ps3dev/ppu/bin/../lib/gcc/powerpc64-ps3-elf/4.5.2/../../../../powerpc64-ps3-elf/lib\libc.a(lib_a-memchr.o)
 .debug_line    0x000000000000b4ad      0xa68 f:/psdk3/ps3dev/ppu/bin/../lib/gcc/powerpc64-ps3-elf/4.5.2/../../../../powerpc64-ps3-elf/lib\libc.a(lib_a-mprec.o)
 .debug_line    0x000000000000bf15      0x487 f:/psdk3/ps3dev/ppu/bin/../lib/gcc/powerpc64-ps3-elf/4.5.2/../../../../powerpc64-ps3-elf/lib\libc.a(lib_a-reallocr.o)
 .debug_line    0x000000000000c39c      0x1aa f:/psdk3/ps3dev/ppu/bin/../lib/gcc/powerpc64-ps3-elf/4.5.2/../../../../powerpc64-ps3-elf/lib\libc.a(lib_a-strncmp.o)
 .debug_line    0x000000000000c546      0x806 f:/psdk3/ps3dev/ppu/bin/../lib/gcc/powerpc64-ps3-elf/4.5.2/../../../../powerpc64-ps3-elf/lib\libc.a(lib_a-svfiprintf.o)
 .debug_line    0x000000000000cd4c       0xcf f:/psdk3/ps3dev/ppu/bin/../lib/gcc/powerpc64-ps3-elf/4.5.2/../../../../powerpc64-ps3-elf/lib\libc.a(lib_a-abort.o)
 .debug_line    0x000000000000ce1b      0x2fc f:/psdk3/ps3dev/ppu/bin/../lib/gcc/powerpc64-ps3-elf/4.5.2/../../../../powerpc64-ps3-elf/lib\libc.a(lib_a-callocr.o)
 .debug_line    0x000000000000d117      0x1a4 f:/psdk3/ps3dev/ppu/bin/../lib/gcc/powerpc64-ps3-elf/4.5.2/../../../../powerpc64-ps3-elf/lib\libc.a(lib_a-memmove.o)
 .debug_line    0x000000000000d2bb      0x401 f:/psdk3/ps3dev/ppu/bin/../lib/gcc/powerpc64-ps3-elf/4.5.2/../../../../powerpc64-ps3-elf/lib\libc.a(lib_a-signal.o)
 .debug_line    0x000000000000d6bc      0x329 f:/psdk3/ps3dev/ppu/bin/../lib/gcc/powerpc64-ps3-elf/4.5.2/../../../../powerpc64-ps3-elf/lib\libsysbase.a(close.o)
 .debug_line    0x000000000000d9e5      0x328 f:/psdk3/ps3dev/ppu/bin/../lib/gcc/powerpc64-ps3-elf/4.5.2/../../../../powerpc64-ps3-elf/lib\libsysbase.a(sbrk.o)
 .debug_line    0x000000000000dd0d      0x32e f:/psdk3/ps3dev/ppu/bin/../lib/gcc/powerpc64-ps3-elf/4.5.2/../../../../powerpc64-ps3-elf/lib\libsysbase.a(_exit.o)
 .debug_line    0x000000000000e03b      0x32d f:/psdk3/ps3dev/ppu/bin/../lib/gcc/powerpc64-ps3-elf/4.5.2/../../../../powerpc64-ps3-elf/lib\libsysbase.a(lseek.o)
 .debug_line    0x000000000000e368      0x32c f:/psdk3/ps3dev/ppu/bin/../lib/gcc/powerpc64-ps3-elf/4.5.2/../../../../powerpc64-ps3-elf/lib\libsysbase.a(read.o)
 .debug_line    0x000000000000e694      0x32d f:/psdk3/ps3dev/ppu/bin/../lib/gcc/powerpc64-ps3-elf/4.5.2/../../../../powerpc64-ps3-elf/lib\libsysbase.a(write.o)
 .debug_line    0x000000000000e9c1      0x39b f:/psdk3/ps3dev/ppu/bin/../lib/gcc/powerpc64-ps3-elf/4.5.2/../../../../powerpc64-ps3-elf/lib\libsysbase.a(lock.o)
 .debug_line    0x000000000000ed5c      0x32a f:/psdk3/ps3dev/ppu/bin/../lib/gcc/powerpc64-ps3-elf/4.5.2/../../../../powerpc64-ps3-elf/lib\libsysbase.a(getpid.o)
 .debug_line    0x000000000000f086      0x2c2 f:/psdk3/ps3dev/ppu/bin/../lib/gcc/powerpc64-ps3-elf/4.5.2/../../../../powerpc64-ps3-elf/lib\libsysbase.a(kill.o)

.debug_frame    0x0000000000000000     0x21d0
 *(.debug_frame)
 .debug_frame   0x0000000000000000       0x50 f:/psdk3/ps3dev/ppu/bin/../lib/gcc/powerpc64-ps3-elf/4.5.2/../../../../powerpc64-ps3-elf/lib\libm.a(lib_a-s_sqrt.o)
 .debug_frame   0x0000000000000050       0x38 f:/psdk3/ps3dev/ppu/bin/../lib/gcc/powerpc64-ps3-elf/4.5.2/../../../../powerpc64-ps3-elf/lib\libm.a(lib_a-sf_cos.o)
 .debug_frame   0x0000000000000088       0x38 f:/psdk3/ps3dev/ppu/bin/../lib/gcc/powerpc64-ps3-elf/4.5.2/../../../../powerpc64-ps3-elf/lib\libm.a(lib_a-sf_sin.o)
 .debug_frame   0x00000000000000c0       0x58 f:/psdk3/ps3dev/ppu/bin/../lib/gcc/powerpc64-ps3-elf/4.5.2/../../../../powerpc64-ps3-elf/lib\libm.a(lib_a-sf_sine.o)
 .debug_frame   0x0000000000000118       0x50 f:/psdk3/ps3dev/ppu/bin/../lib/gcc/powerpc64-ps3-elf/4.5.2/../../../../powerpc64-ps3-elf/lib\libm.a(lib_a-sf_sqrt.o)
 .debug_frame   0x0000000000000168       0x50 f:/psdk3/ps3dev/ppu/bin/../lib/gcc/powerpc64-ps3-elf/4.5.2/../../../../powerpc64-ps3-elf/lib\libm.a(lib_a-sf_tan.o)
 .debug_frame   0x00000000000001b8       0x40 f:/psdk3/ps3dev/ppu/bin/../lib/gcc/powerpc64-ps3-elf/4.5.2/../../../../powerpc64-ps3-elf/lib\libm.a(lib_a-s_frexp.o)
 .debug_frame   0x00000000000001f8       0x28 f:/psdk3/ps3dev/ppu/bin/../lib/gcc/powerpc64-ps3-elf/4.5.2/../../../../powerpc64-ps3-elf/lib\libm.a(lib_a-s_ispos.o)
 .debug_frame   0x0000000000000220       0x58 f:/psdk3/ps3dev/ppu/bin/../lib/gcc/powerpc64-ps3-elf/4.5.2/../../../../powerpc64-ps3-elf/lib\libm.a(lib_a-s_ldexp.o)
 .debug_frame   0x0000000000000278       0x28 f:/psdk3/ps3dev/ppu/bin/../lib/gcc/powerpc64-ps3-elf/4.5.2/../../../../powerpc64-ps3-elf/lib\libm.a(lib_a-s_numtest.o)
 .debug_frame   0x00000000000002a0       0x48 f:/psdk3/ps3dev/ppu/bin/../lib/gcc/powerpc64-ps3-elf/4.5.2/../../../../powerpc64-ps3-elf/lib\libm.a(lib_a-sf_fabs.o)
 .debug_frame   0x00000000000002e8       0x40 f:/psdk3/ps3dev/ppu/bin/../lib/gcc/powerpc64-ps3-elf/4.5.2/../../../../powerpc64-ps3-elf/lib\libm.a(lib_a-sf_frexp.o)
 .debug_frame   0x0000000000000328       0x28 f:/psdk3/ps3dev/ppu/bin/../lib/gcc/powerpc64-ps3-elf/4.5.2/../../../../powerpc64-ps3-elf/lib\libm.a(lib_a-sf_ispos.o)
 .debug_frame   0x0000000000000350       0x50 f:/psdk3/ps3dev/ppu/bin/../lib/gcc/powerpc64-ps3-elf/4.5.2/../../../../powerpc64-ps3-elf/lib\libm.a(lib_a-sf_ldexp.o)
 .debug_frame   0x00000000000003a0       0x28 f:/psdk3/ps3dev/ppu/bin/../lib/gcc/powerpc64-ps3-elf/4.5.2/../../../../powerpc64-ps3-elf/lib\libm.a(lib_a-sf_numtest.o)
 .debug_frame   0x00000000000003c8       0x68 f:/psdk3/ps3dev/ppu/bin/../lib/gcc/powerpc64-ps3-elf/4.5.2/../../../../powerpc64-ps3-elf/lib\libsysbase.a(sleep.o)
 .debug_frame   0x0000000000000430       0x38 f:/psdk3/ps3dev/ppu/bin/../lib/gcc/powerpc64-ps3-elf/4.5.2/../../../../powerpc64-ps3-elf/lib\libc.a(lib_a-atexit.o)
 .debug_frame   0x0000000000000468       0x38 f:/psdk3/ps3dev/ppu/bin/../lib/gcc/powerpc64-ps3-elf/4.5.2/../../../../powerpc64-ps3-elf/lib\libc.a(lib_a-errno.o)
 .debug_frame   0x00000000000004a0       0x38 f:/psdk3/ps3dev/ppu/bin/../lib/gcc/powerpc64-ps3-elf/4.5.2/../../../../powerpc64-ps3-elf/lib\libc.a(lib_a-exit.o)
 .debug_frame   0x00000000000004d8       0x40 f:/psdk3/ps3dev/ppu/bin/../lib/gcc/powerpc64-ps3-elf/4.5.2/../../../../powerpc64-ps3-elf/lib\libc.a(lib_a-getreent.o)
 .debug_frame   0x0000000000000518       0x40 f:/psdk3/ps3dev/ppu/bin/../lib/gcc/powerpc64-ps3-elf/4.5.2/../../../../powerpc64-ps3-elf/lib\libc.a(lib_a-malign.o)
 .debug_frame   0x0000000000000558       0x58 f:/psdk3/ps3dev/ppu/bin/../lib/gcc/powerpc64-ps3-elf/4.5.2/../../../../powerpc64-ps3-elf/lib\libc.a(lib_a-malignr.o)
 .debug_frame   0x00000000000005b0       0x60 f:/psdk3/ps3dev/ppu/bin/../lib/gcc/powerpc64-ps3-elf/4.5.2/../../../../powerpc64-ps3-elf/lib\libc.a(lib_a-malloc.o)
 .debug_frame   0x0000000000000610       0x58 f:/psdk3/ps3dev/ppu/bin/../lib/gcc/powerpc64-ps3-elf/4.5.2/../../../../powerpc64-ps3-elf/lib\libc.a(lib_a-mallocr.o)
 .debug_frame   0x0000000000000668       0x28 f:/psdk3/ps3dev/ppu/bin/../lib/gcc/powerpc64-ps3-elf/4.5.2/../../../../powerpc64-ps3-elf/lib\libc.a(lib_a-memcpy.o)
 .debug_frame   0x0000000000000690       0x28 f:/psdk3/ps3dev/ppu/bin/../lib/gcc/powerpc64-ps3-elf/4.5.2/../../../../powerpc64-ps3-elf/lib\libc.a(lib_a-memset.o)
 .debug_frame   0x00000000000006b8       0x60 f:/psdk3/ps3dev/ppu/bin/../lib/gcc/powerpc64-ps3-elf/4.5.2/../../../../powerpc64-ps3-elf/lib\libc.a(lib_a-mlock.o)
 .debug_frame   0x0000000000000718       0x60 f:/psdk3/ps3dev/ppu/bin/../lib/gcc/powerpc64-ps3-elf/4.5.2/../../../../powerpc64-ps3-elf/lib\libc.a(lib_a-sscanf.o)
 .debug_frame   0x0000000000000778       0xe0 f:/psdk3/ps3dev/ppu/bin/../lib/gcc/powerpc64-ps3-elf/4.5.2/../../../../powerpc64-ps3-elf/lib\libc.a(lib_a-stdio.o)
 .debug_frame   0x0000000000000858       0x28 f:/psdk3/ps3dev/ppu/bin/../lib/gcc/powerpc64-ps3-elf/4.5.2/../../../../powerpc64-ps3-elf/lib\libc.a(lib_a-strcasecmp.o)
 .debug_frame   0x0000000000000880       0x28 f:/psdk3/ps3dev/ppu/bin/../lib/gcc/powerpc64-ps3-elf/4.5.2/../../../../powerpc64-ps3-elf/lib\libc.a(lib_a-strlen.o)
 .debug_frame   0x00000000000008a8       0x28 f:/psdk3/ps3dev/ppu/bin/../lib/gcc/powerpc64-ps3-elf/4.5.2/../../../../powerpc64-ps3-elf/lib\libc.a(lib_a-strncpy.o)
 .debug_frame   0x00000000000008d0       0x70 f:/psdk3/ps3dev/ppu/bin/../lib/gcc/powerpc64-ps3-elf/4.5.2/../../../../powerpc64-ps3-elf/lib\libc.a(lib_a-svfscanf.o)
 .debug_frame   0x0000000000000940       0x68 f:/psdk3/ps3dev/ppu/bin/../lib/gcc/powerpc64-ps3-elf/4.5.2/../../../../powerpc64-ps3-elf/lib\libc.a(lib_a-vsprintf.o)
 .debug_frame   0x00000000000009a8       0x50 f:/psdk3/ps3dev/ppu/bin/../lib/gcc/powerpc64-ps3-elf/4.5.2/../../../../powerpc64-ps3-elf/lib\libc.a(lib_a-__atexit.o)
 .debug_frame   0x00000000000009f8       0x58 f:/psdk3/ps3dev/ppu/bin/../lib/gcc/powerpc64-ps3-elf/4.5.2/../../../../powerpc64-ps3-elf/lib\libc.a(lib_a-__call_atexit.o)
 .debug_frame   0x0000000000000a50      0x228 f:/psdk3/ps3dev/ppu/bin/../lib/gcc/powerpc64-ps3-elf/4.5.2/../../../../powerpc64-ps3-elf/lib\libc.a(lib_a-findfp.o)
 .debug_frame   0x0000000000000c78       0x78 f:/psdk3/ps3dev/ppu/bin/../lib/gcc/powerpc64-ps3-elf/4.5.2/../../../../powerpc64-ps3-elf/lib\libc.a(lib_a-freer.o)
 .debug_frame   0x0000000000000cf0       0x80 f:/psdk3/ps3dev/ppu/bin/../lib/gcc/powerpc64-ps3-elf/4.5.2/../../../../powerpc64-ps3-elf/lib\libc.a(lib_a-fwalk.o)
 .debug_frame   0x0000000000000d70       0x28 f:/psdk3/ps3dev/ppu/bin/../lib/gcc/powerpc64-ps3-elf/4.5.2/../../../../powerpc64-ps3-elf/lib\libc.a(lib_a-iswspace.o)
 .debug_frame   0x0000000000000d98      0x108 f:/psdk3/ps3dev/ppu/bin/../lib/gcc/powerpc64-ps3-elf/4.5.2/../../../../powerpc64-ps3-elf/lib\libc.a(lib_a-locale.o)
 .debug_frame   0x0000000000000ea0       0xd8 f:/psdk3/ps3dev/ppu/bin/../lib/gcc/powerpc64-ps3-elf/4.5.2/../../../../powerpc64-ps3-elf/lib\libc.a(lib_a-lock_recursive.o)
 .debug_frame   0x0000000000000f78       0x88 f:/psdk3/ps3dev/ppu/bin/../lib/gcc/powerpc64-ps3-elf/4.5.2/../../../../powerpc64-ps3-elf/lib\libc.a(lib_a-mbrtowc.o)
 .debug_frame   0x0000000000001000       0x58 f:/psdk3/ps3dev/ppu/bin/../lib/gcc/powerpc64-ps3-elf/4.5.2/../../../../powerpc64-ps3-elf/lib\libc.a(lib_a-mbtowc_r.o)
 .debug_frame   0x0000000000001058       0x28 f:/psdk3/ps3dev/ppu/bin/../lib/gcc/powerpc64-ps3-elf/4.5.2/../../../../powerpc64-ps3-elf/lib\libc.a(lib_a-s_fpclassify.o)
 .debug_frame   0x0000000000001080       0x28 f:/psdk3/ps3dev/ppu/bin/../lib/gcc/powerpc64-ps3-elf/4.5.2/../../../../powerpc64-ps3-elf/lib\libc.a(lib_a-sccl.o)
 .debug_frame   0x00000000000010a8       0x28 f:/psdk3/ps3dev/ppu/bin/../lib/gcc/powerpc64-ps3-elf/4.5.2/../../../../powerpc64-ps3-elf/lib\libc.a(lib_a-sf_nan.o)
 .debug_frame   0x00000000000010d0       0x60 f:/psdk3/ps3dev/ppu/bin/../lib/gcc/powerpc64-ps3-elf/4.5.2/../../../../powerpc64-ps3-elf/lib\libc.a(lib_a-sprintf.o)
 .debug_frame   0x0000000000001130       0x28 f:/psdk3/ps3dev/ppu/bin/../lib/gcc/powerpc64-ps3-elf/4.5.2/../../../../powerpc64-ps3-elf/lib\libc.a(lib_a-strcmp.o)
 .debug_frame   0x0000000000001158       0xe8 f:/psdk3/ps3dev/ppu/bin/../lib/gcc/powerpc64-ps3-elf/4.5.2/../../../../powerpc64-ps3-elf/lib\libc.a(lib_a-strtod.o)
 .debug_frame   0x0000000000001240       0x68 f:/psdk3/ps3dev/ppu/bin/../lib/gcc/powerpc64-ps3-elf/4.5.2/../../../../powerpc64-ps3-elf/lib\libc.a(lib_a-strtol.o)
 .debug_frame   0x00000000000012a8       0x38 f:/psdk3/ps3dev/ppu/bin/../lib/gcc/powerpc64-ps3-elf/4.5.2/../../../../powerpc64-ps3-elf/lib\libc.a(lib_a-strtoll_r.o)
 .debug_frame   0x00000000000012e0       0x68 f:/psdk3/ps3dev/ppu/bin/../lib/gcc/powerpc64-ps3-elf/4.5.2/../../../../powerpc64-ps3-elf/lib\libc.a(lib_a-strtoul.o)
 .debug_frame   0x0000000000001348       0x38 f:/psdk3/ps3dev/ppu/bin/../lib/gcc/powerpc64-ps3-elf/4.5.2/../../../../powerpc64-ps3-elf/lib\libc.a(lib_a-strtoull_r.o)
 .debug_frame   0x0000000000001380      0x110 f:/psdk3/ps3dev/ppu/bin/../lib/gcc/powerpc64-ps3-elf/4.5.2/../../../../powerpc64-ps3-elf/lib\libc.a(lib_a-svfiscanf.o)
 .debug_frame   0x0000000000001490       0x70 f:/psdk3/ps3dev/ppu/bin/../lib/gcc/powerpc64-ps3-elf/4.5.2/../../../../powerpc64-ps3-elf/lib\libc.a(lib_a-svfprintf.o)
 .debug_frame   0x0000000000001500       0xb0 f:/psdk3/ps3dev/ppu/bin/../lib/gcc/powerpc64-ps3-elf/4.5.2/../../../../powerpc64-ps3-elf/lib\libc.a(lib_a-ungetc.o)
 .debug_frame   0x00000000000015b0       0xa0 f:/psdk3/ps3dev/ppu/bin/../lib/gcc/powerpc64-ps3-elf/4.5.2/../../../../powerpc64-ps3-elf/lib\libc.a(lib_a-dtoa.o)
 .debug_frame   0x0000000000001650       0x78 f:/psdk3/ps3dev/ppu/bin/../lib/gcc/powerpc64-ps3-elf/4.5.2/../../../../powerpc64-ps3-elf/lib\libc.a(lib_a-fclose.o)
 .debug_frame   0x00000000000016c8       0x80 f:/psdk3/ps3dev/ppu/bin/../lib/gcc/powerpc64-ps3-elf/4.5.2/../../../../powerpc64-ps3-elf/lib\libc.a(lib_a-fflush.o)
 .debug_frame   0x0000000000001748       0x90 f:/psdk3/ps3dev/ppu/bin/../lib/gcc/powerpc64-ps3-elf/4.5.2/../../../../powerpc64-ps3-elf/lib\libc.a(lib_a-gdtoa-gethex.o)
 .debug_frame   0x00000000000017d8       0x50 f:/psdk3/ps3dev/ppu/bin/../lib/gcc/powerpc64-ps3-elf/4.5.2/../../../../powerpc64-ps3-elf/lib\libc.a(lib_a-gdtoa-hexnan.o)
 .debug_frame   0x0000000000001828       0x68 f:/psdk3/ps3dev/ppu/bin/../lib/gcc/powerpc64-ps3-elf/4.5.2/../../../../powerpc64-ps3-elf/lib\libc.a(lib_a-lock_internal.o)
 .debug_frame   0x0000000000001890       0x28 f:/psdk3/ps3dev/ppu/bin/../lib/gcc/powerpc64-ps3-elf/4.5.2/../../../../powerpc64-ps3-elf/lib\libc.a(lib_a-memchr.o)
 .debug_frame   0x00000000000018b8      0x330 f:/psdk3/ps3dev/ppu/bin/../lib/gcc/powerpc64-ps3-elf/4.5.2/../../../../powerpc64-ps3-elf/lib\libc.a(lib_a-mprec.o)
 .debug_frame   0x0000000000001be8       0x68 f:/psdk3/ps3dev/ppu/bin/../lib/gcc/powerpc64-ps3-elf/4.5.2/../../../../powerpc64-ps3-elf/lib\libc.a(lib_a-reallocr.o)
 .debug_frame   0x0000000000001c50       0x28 f:/psdk3/ps3dev/ppu/bin/../lib/gcc/powerpc64-ps3-elf/4.5.2/../../../../powerpc64-ps3-elf/lib\libc.a(lib_a-strncmp.o)
 .debug_frame   0x0000000000001c78       0xb8 f:/psdk3/ps3dev/ppu/bin/../lib/gcc/powerpc64-ps3-elf/4.5.2/../../../../powerpc64-ps3-elf/lib\libc.a(lib_a-svfiprintf.o)
 .debug_frame   0x0000000000001d30       0x30 f:/psdk3/ps3dev/ppu/bin/../lib/gcc/powerpc64-ps3-elf/4.5.2/../../../../powerpc64-ps3-elf/lib\libc.a(lib_a-abort.o)
 .debug_frame   0x0000000000001d60       0x40 f:/psdk3/ps3dev/ppu/bin/../lib/gcc/powerpc64-ps3-elf/4.5.2/../../../../powerpc64-ps3-elf/lib\libc.a(lib_a-callocr.o)
 .debug_frame   0x0000000000001da0       0x28 f:/psdk3/ps3dev/ppu/bin/../lib/gcc/powerpc64-ps3-elf/4.5.2/../../../../powerpc64-ps3-elf/lib\libc.a(lib_a-memmove.o)
 .debug_frame   0x0000000000001dc8      0x178 f:/psdk3/ps3dev/ppu/bin/../lib/gcc/powerpc64-ps3-elf/4.5.2/../../../../powerpc64-ps3-elf/lib\libc.a(lib_a-signal.o)
 .debug_frame   0x0000000000001f40       0x38 f:/psdk3/ps3dev/ppu/bin/../lib/gcc/powerpc64-ps3-elf/4.5.2/../../../../powerpc64-ps3-elf/lib\libsysbase.a(close.o)
 .debug_frame   0x0000000000001f78       0x38 f:/psdk3/ps3dev/ppu/bin/../lib/gcc/powerpc64-ps3-elf/4.5.2/../../../../powerpc64-ps3-elf/lib\libsysbase.a(sbrk.o)
 .debug_frame   0x0000000000001fb0       0x30 f:/psdk3/ps3dev/ppu/bin/../lib/gcc/powerpc64-ps3-elf/4.5.2/../../../../powerpc64-ps3-elf/lib\libsysbase.a(_exit.o)
 .debug_frame   0x0000000000001fe0       0x38 f:/psdk3/ps3dev/ppu/bin/../lib/gcc/powerpc64-ps3-elf/4.5.2/../../../../powerpc64-ps3-elf/lib\libsysbase.a(lseek.o)
 .debug_frame   0x0000000000002018       0x38 f:/psdk3/ps3dev/ppu/bin/../lib/gcc/powerpc64-ps3-elf/4.5.2/../../../../powerpc64-ps3-elf/lib\libsysbase.a(read.o)
 .debug_frame   0x0000000000002050       0x38 f:/psdk3/ps3dev/ppu/bin/../lib/gcc/powerpc64-ps3-elf/4.5.2/../../../../powerpc64-ps3-elf/lib\libsysbase.a(write.o)
 .debug_frame   0x0000000000002088       0xe8 f:/psdk3/ps3dev/ppu/bin/../lib/gcc/powerpc64-ps3-elf/4.5.2/../../../../powerpc64-ps3-elf/lib\libsysbase.a(lock.o)
 .debug_frame   0x0000000000002170       0x38 f:/psdk3/ps3dev/ppu/bin/../lib/gcc/powerpc64-ps3-elf/4.5.2/../../../../powerpc64-ps3-elf/lib\libsysbase.a(getpid.o)
 .debug_frame   0x00000000000021a8       0x28 f:/psdk3/ps3dev/ppu/bin/../lib/gcc/powerpc64-ps3-elf/4.5.2/../../../../powerpc64-ps3-elf/lib\libsysbase.a(kill.o)

.debug_str      0x0000000000000000     0x2e5f
 *(.debug_str)
 .debug_str     0x0000000000000000      0x134 f:/psdk3/ps3dev/ppu/bin/../lib/gcc/powerpc64-ps3-elf/4.5.2/../../../../powerpc64-ps3-elf/lib\libm.a(lib_a-s_sqrt.o)
                                        0x174 (size before relaxing)
 .debug_str     0x0000000000000134       0x30 f:/psdk3/ps3dev/ppu/bin/../lib/gcc/powerpc64-ps3-elf/4.5.2/../../../../powerpc64-ps3-elf/lib\libm.a(lib_a-sf_cos.o)
                                        0x159 (size before relaxing)
 .debug_str     0x0000000000000164       0x30 f:/psdk3/ps3dev/ppu/bin/../lib/gcc/powerpc64-ps3-elf/4.5.2/../../../../powerpc64-ps3-elf/lib\libm.a(lib_a-sf_sin.o)
                                        0x159 (size before relaxing)
 .debug_str     0x0000000000000194       0x6a f:/psdk3/ps3dev/ppu/bin/../lib/gcc/powerpc64-ps3-elf/4.5.2/../../../../powerpc64-ps3-elf/lib\libm.a(lib_a-sf_sine.o)
                                        0x193 (size before relaxing)
 .debug_str     0x00000000000001fe       0x46 f:/psdk3/ps3dev/ppu/bin/../lib/gcc/powerpc64-ps3-elf/4.5.2/../../../../powerpc64-ps3-elf/lib\libm.a(lib_a-sf_sqrt.o)
                                        0x17b (size before relaxing)
 .debug_str     0x0000000000000244       0x46 f:/psdk3/ps3dev/ppu/bin/../lib/gcc/powerpc64-ps3-elf/4.5.2/../../../../powerpc64-ps3-elf/lib\libm.a(lib_a-sf_tan.o)
                                        0x187 (size before relaxing)
 .debug_str     0x000000000000028a       0x64 f:/psdk3/ps3dev/ppu/bin/../lib/gcc/powerpc64-ps3-elf/4.5.2/../../../../powerpc64-ps3-elf/lib\libm.a(lib_a-s_frexp.o)
                                        0x193 (size before relaxing)
 .debug_str     0x00000000000002ee       0x31 f:/psdk3/ps3dev/ppu/bin/../lib/gcc/powerpc64-ps3-elf/4.5.2/../../../../powerpc64-ps3-elf/lib\libm.a(lib_a-s_ispos.o)
                                        0x18e (size before relaxing)
 .debug_str     0x000000000000031f       0x37 f:/psdk3/ps3dev/ppu/bin/../lib/gcc/powerpc64-ps3-elf/4.5.2/../../../../powerpc64-ps3-elf/lib\libm.a(lib_a-s_ldexp.o)
                                        0x19e (size before relaxing)
 .debug_str     0x0000000000000356       0x5b f:/psdk3/ps3dev/ppu/bin/../lib/gcc/powerpc64-ps3-elf/4.5.2/../../../../powerpc64-ps3-elf/lib\libm.a(lib_a-s_mathcnst.o)
                                        0x1be (size before relaxing)
 .debug_str     0x00000000000003b1       0x36 f:/psdk3/ps3dev/ppu/bin/../lib/gcc/powerpc64-ps3-elf/4.5.2/../../../../powerpc64-ps3-elf/lib\libm.a(lib_a-s_numtest.o)
                                        0x192 (size before relaxing)
 .debug_str     0x00000000000003e7       0x32 f:/psdk3/ps3dev/ppu/bin/../lib/gcc/powerpc64-ps3-elf/4.5.2/../../../../powerpc64-ps3-elf/lib\libm.a(lib_a-sf_fabs.o)
                                        0x15b (size before relaxing)
 .debug_str     0x0000000000000419       0x5e f:/psdk3/ps3dev/ppu/bin/../lib/gcc/powerpc64-ps3-elf/4.5.2/../../../../powerpc64-ps3-elf/lib\libm.a(lib_a-sf_frexp.o)
                                        0x198 (size before relaxing)
 .debug_str     0x0000000000000477       0x2d f:/psdk3/ps3dev/ppu/bin/../lib/gcc/powerpc64-ps3-elf/4.5.2/../../../../powerpc64-ps3-elf/lib\libm.a(lib_a-sf_ispos.o)
                                        0x167 (size before relaxing)
 .debug_str     0x00000000000004a4       0x34 f:/psdk3/ps3dev/ppu/bin/../lib/gcc/powerpc64-ps3-elf/4.5.2/../../../../powerpc64-ps3-elf/lib\libm.a(lib_a-sf_ldexp.o)
                                        0x1a5 (size before relaxing)
 .debug_str     0x00000000000004d8       0x38 f:/psdk3/ps3dev/ppu/bin/../lib/gcc/powerpc64-ps3-elf/4.5.2/../../../../powerpc64-ps3-elf/lib\libm.a(lib_a-sf_numtest.o)
                                        0x16b (size before relaxing)
 .debug_str     0x0000000000000510      0x85e f:/psdk3/ps3dev/ppu/bin/../lib/gcc/powerpc64-ps3-elf/4.5.2/../../../../powerpc64-ps3-elf/lib\libsysbase.a(syscalls.o)
                                        0x9e1 (size before relaxing)
 .debug_str     0x0000000000000d6e       0x2f f:/psdk3/ps3dev/ppu/bin/../lib/gcc/powerpc64-ps3-elf/4.5.2/../../../../powerpc64-ps3-elf/lib\libsysbase.a(sleep.o)
                                        0x9f0 (size before relaxing)
 .debug_str     0x0000000000000d9d       0xd6 f:/psdk3/ps3dev/ppu/bin/../lib/gcc/powerpc64-ps3-elf/4.5.2/../../../../powerpc64-ps3-elf/lib\libc.a(lib_a-atexit.o)
                                        0x172 (size before relaxing)
 .debug_str     0x0000000000000e73       0xab f:/psdk3/ps3dev/ppu/bin/../lib/gcc/powerpc64-ps3-elf/4.5.2/../../../../powerpc64-ps3-elf/lib\libc.a(lib_a-errno.o)
                                        0x140 (size before relaxing)
 .debug_str     0x0000000000000f1e       0x41 f:/psdk3/ps3dev/ppu/bin/../lib/gcc/powerpc64-ps3-elf/4.5.2/../../../../powerpc64-ps3-elf/lib\libc.a(lib_a-exit.o)
                                        0x570 (size before relaxing)
 .debug_str     0x0000000000000f5f       0xd0 f:/psdk3/ps3dev/ppu/bin/../lib/gcc/powerpc64-ps3-elf/4.5.2/../../../../powerpc64-ps3-elf/lib\libc.a(lib_a-getreent.o)
                                        0x57f (size before relaxing)
 .debug_str     0x000000000000102f       0xb0 f:/psdk3/ps3dev/ppu/bin/../lib/gcc/powerpc64-ps3-elf/4.5.2/../../../../powerpc64-ps3-elf/lib\libc.a(lib_a-impure.o)
                                        0x57e (size before relaxing)
 .debug_str     0x00000000000010df       0x3b f:/psdk3/ps3dev/ppu/bin/../lib/gcc/powerpc64-ps3-elf/4.5.2/../../../../powerpc64-ps3-elf/lib\libc.a(lib_a-malign.o)
                                        0x158 (size before relaxing)
 .debug_str     0x000000000000111a       0x9c f:/psdk3/ps3dev/ppu/bin/../lib/gcc/powerpc64-ps3-elf/4.5.2/../../../../powerpc64-ps3-elf/lib\libc.a(lib_a-malignr.o)
                                        0x5d8 (size before relaxing)
 .debug_str     0x00000000000011b6       0x30 f:/psdk3/ps3dev/ppu/bin/../lib/gcc/powerpc64-ps3-elf/4.5.2/../../../../powerpc64-ps3-elf/lib\libc.a(lib_a-malloc.o)
                                        0x15a (size before relaxing)
 .debug_str     0x00000000000011e6      0x188 f:/psdk3/ps3dev/ppu/bin/../lib/gcc/powerpc64-ps3-elf/4.5.2/../../../../powerpc64-ps3-elf/lib\libc.a(lib_a-mallocr.o)
                                        0x755 (size before relaxing)
 .debug_str     0x000000000000136e       0xd4 f:/psdk3/ps3dev/ppu/bin/../lib/gcc/powerpc64-ps3-elf/4.5.2/../../../../powerpc64-ps3-elf/lib\libc.a(lib_a-memcpy.o)
                                        0x170 (size before relaxing)
 .debug_str     0x0000000000001442       0x3f f:/psdk3/ps3dev/ppu/bin/../lib/gcc/powerpc64-ps3-elf/4.5.2/../../../../powerpc64-ps3-elf/lib\libc.a(lib_a-memset.o)
                                        0x15d (size before relaxing)
 .debug_str     0x0000000000001481       0x5d f:/psdk3/ps3dev/ppu/bin/../lib/gcc/powerpc64-ps3-elf/4.5.2/../../../../powerpc64-ps3-elf/lib\libc.a(lib_a-mlock.o)
                                        0x587 (size before relaxing)
 .debug_str     0x00000000000014de       0xd6 f:/psdk3/ps3dev/ppu/bin/../lib/gcc/powerpc64-ps3-elf/4.5.2/../../../../powerpc64-ps3-elf/lib\libc.a(lib_a-sscanf.o)
                                        0x592 (size before relaxing)
 .debug_str     0x00000000000015b4       0x5d f:/psdk3/ps3dev/ppu/bin/../lib/gcc/powerpc64-ps3-elf/4.5.2/../../../../powerpc64-ps3-elf/lib\libc.a(lib_a-stdio.o)
                                        0x5a5 (size before relaxing)
 .debug_str     0x0000000000001611       0x52 f:/psdk3/ps3dev/ppu/bin/../lib/gcc/powerpc64-ps3-elf/4.5.2/../../../../powerpc64-ps3-elf/lib\libc.a(lib_a-strcasecmp.o)
                                        0x162 (size before relaxing)
 .debug_str     0x0000000000001663       0x32 f:/psdk3/ps3dev/ppu/bin/../lib/gcc/powerpc64-ps3-elf/4.5.2/../../../../powerpc64-ps3-elf/lib\libc.a(lib_a-strlen.o)
                                        0x15c (size before relaxing)
 .debug_str     0x0000000000001695       0x34 f:/psdk3/ps3dev/ppu/bin/../lib/gcc/powerpc64-ps3-elf/4.5.2/../../../../powerpc64-ps3-elf/lib\libc.a(lib_a-strncpy.o)
                                        0x173 (size before relaxing)
 .debug_str     0x00000000000016c9      0x125 f:/psdk3/ps3dev/ppu/bin/../lib/gcc/powerpc64-ps3-elf/4.5.2/../../../../powerpc64-ps3-elf/lib\libc.a(lib_a-svfscanf.o)
                                        0x6d8 (size before relaxing)
 .debug_str     0x00000000000017ee       0x4e f:/psdk3/ps3dev/ppu/bin/../lib/gcc/powerpc64-ps3-elf/4.5.2/../../../../powerpc64-ps3-elf/lib\libc.a(lib_a-vsprintf.o)
                                        0x5a5 (size before relaxing)
 .debug_str     0x000000000000183c       0x4f f:/psdk3/ps3dev/ppu/bin/../lib/gcc/powerpc64-ps3-elf/4.5.2/../../../../powerpc64-ps3-elf/lib\libc.a(lib_a-__atexit.o)
                                        0x5c6 (size before relaxing)
 .debug_str     0x000000000000188b       0x51 f:/psdk3/ps3dev/ppu/bin/../lib/gcc/powerpc64-ps3-elf/4.5.2/../../../../powerpc64-ps3-elf/lib\libc.a(lib_a-__call_atexit.o)
                                        0x5a6 (size before relaxing)
 .debug_str     0x00000000000018dc       0xac f:/psdk3/ps3dev/ppu/bin/../lib/gcc/powerpc64-ps3-elf/4.5.2/../../../../powerpc64-ps3-elf/lib\libc.a(lib_a-ctype_.o)
                                         0xdd (size before relaxing)
 .debug_str     0x0000000000001988      0x16d f:/psdk3/ps3dev/ppu/bin/../lib/gcc/powerpc64-ps3-elf/4.5.2/../../../../powerpc64-ps3-elf/lib\libc.a(lib_a-findfp.o)
                                        0x6d1 (size before relaxing)
 .debug_str     0x0000000000001af5       0x3c f:/psdk3/ps3dev/ppu/bin/../lib/gcc/powerpc64-ps3-elf/4.5.2/../../../../powerpc64-ps3-elf/lib\libc.a(lib_a-freer.o)
                                        0x6a7 (size before relaxing)
 .debug_str     0x0000000000001b31       0x4e f:/psdk3/ps3dev/ppu/bin/../lib/gcc/powerpc64-ps3-elf/4.5.2/../../../../powerpc64-ps3-elf/lib\libc.a(lib_a-fwalk.o)
                                        0x599 (size before relaxing)
 .debug_str     0x0000000000001b7f       0x35 f:/psdk3/ps3dev/ppu/bin/../lib/gcc/powerpc64-ps3-elf/4.5.2/../../../../powerpc64-ps3-elf/lib\libc.a(lib_a-iswspace.o)
                                        0x159 (size before relaxing)
 .debug_str     0x0000000000001bb4      0x281 f:/psdk3/ps3dev/ppu/bin/../lib/gcc/powerpc64-ps3-elf/4.5.2/../../../../powerpc64-ps3-elf/lib\libc.a(lib_a-locale.o)
                                        0x7c8 (size before relaxing)
 .debug_str     0x0000000000001e35      0x10e f:/psdk3/ps3dev/ppu/bin/../lib/gcc/powerpc64-ps3-elf/4.5.2/../../../../powerpc64-ps3-elf/lib\libc.a(lib_a-lock_recursive.o)
                                        0x2a1 (size before relaxing)
 .debug_str     0x0000000000001f43       0x4f f:/psdk3/ps3dev/ppu/bin/../lib/gcc/powerpc64-ps3-elf/4.5.2/../../../../powerpc64-ps3-elf/lib\libc.a(lib_a-mbrtowc.o)
                                        0x592 (size before relaxing)
 .debug_str     0x0000000000001f92       0x4c f:/psdk3/ps3dev/ppu/bin/../lib/gcc/powerpc64-ps3-elf/4.5.2/../../../../powerpc64-ps3-elf/lib\libc.a(lib_a-mbtowc_r.o)
                                        0x5a6 (size before relaxing)
 .debug_str     0x0000000000001fde       0xba f:/psdk3/ps3dev/ppu/bin/../lib/gcc/powerpc64-ps3-elf/4.5.2/../../../../powerpc64-ps3-elf/lib\libc.a(lib_a-s_fpclassify.o)
                                        0x19b (size before relaxing)
 .debug_str     0x0000000000002098       0x3f f:/psdk3/ps3dev/ppu/bin/../lib/gcc/powerpc64-ps3-elf/4.5.2/../../../../powerpc64-ps3-elf/lib\libc.a(lib_a-sccl.o)
                                        0x14e (size before relaxing)
 .debug_str     0x00000000000020d7       0x30 f:/psdk3/ps3dev/ppu/bin/../lib/gcc/powerpc64-ps3-elf/4.5.2/../../../../powerpc64-ps3-elf/lib\libc.a(lib_a-sf_nan.o)
                                        0x160 (size before relaxing)
 .debug_str     0x0000000000002107       0x36 f:/psdk3/ps3dev/ppu/bin/../lib/gcc/powerpc64-ps3-elf/4.5.2/../../../../powerpc64-ps3-elf/lib\libc.a(lib_a-sprintf.o)
                                        0x595 (size before relaxing)
 .debug_str     0x000000000000213d       0x32 f:/psdk3/ps3dev/ppu/bin/../lib/gcc/powerpc64-ps3-elf/4.5.2/../../../../powerpc64-ps3-elf/lib\libc.a(lib_a-strcmp.o)
                                        0x142 (size before relaxing)
 .debug_str     0x000000000000216f      0x1d7 f:/psdk3/ps3dev/ppu/bin/../lib/gcc/powerpc64-ps3-elf/4.5.2/../../../../powerpc64-ps3-elf/lib\libc.a(lib_a-strtod.o)
                                        0x74e (size before relaxing)
 .debug_str     0x0000000000002346       0x51 f:/psdk3/ps3dev/ppu/bin/../lib/gcc/powerpc64-ps3-elf/4.5.2/../../../../powerpc64-ps3-elf/lib\libc.a(lib_a-strtol.o)
                                        0x598 (size before relaxing)
 .debug_str     0x0000000000002397       0x39 f:/psdk3/ps3dev/ppu/bin/../lib/gcc/powerpc64-ps3-elf/4.5.2/../../../../powerpc64-ps3-elf/lib\libc.a(lib_a-strtoll_r.o)
                                        0x595 (size before relaxing)
 .debug_str     0x00000000000023d0       0x3f f:/psdk3/ps3dev/ppu/bin/../lib/gcc/powerpc64-ps3-elf/4.5.2/../../../../powerpc64-ps3-elf/lib\libc.a(lib_a-strtoul.o)
                                        0x59b (size before relaxing)
 .debug_str     0x000000000000240f       0x3b f:/psdk3/ps3dev/ppu/bin/../lib/gcc/powerpc64-ps3-elf/4.5.2/../../../../powerpc64-ps3-elf/lib\libc.a(lib_a-strtoull_r.o)
                                        0x597 (size before relaxing)
 .debug_str     0x000000000000244a       0x37 f:/psdk3/ps3dev/ppu/bin/../lib/gcc/powerpc64-ps3-elf/4.5.2/../../../../powerpc64-ps3-elf/lib\libc.a(lib_a-svfiscanf.o)
                                        0x6b3 (size before relaxing)
 .debug_str     0x0000000000002481      0x157 f:/psdk3/ps3dev/ppu/bin/../lib/gcc/powerpc64-ps3-elf/4.5.2/../../../../powerpc64-ps3-elf/lib\libc.a(lib_a-svfprintf.o)
                                        0x74c (size before relaxing)
 .debug_str     0x00000000000025d8       0x45 f:/psdk3/ps3dev/ppu/bin/../lib/gcc/powerpc64-ps3-elf/4.5.2/../../../../powerpc64-ps3-elf/lib\libc.a(lib_a-ungetc.o)
                                        0x57f (size before relaxing)
 .debug_str     0x000000000000261d       0xc9 f:/psdk3/ps3dev/ppu/bin/../lib/gcc/powerpc64-ps3-elf/4.5.2/../../../../powerpc64-ps3-elf/lib\libc.a(lib_a-dtoa.o)
                                        0x665 (size before relaxing)
 .debug_str     0x00000000000026e6       0x3b f:/psdk3/ps3dev/ppu/bin/../lib/gcc/powerpc64-ps3-elf/4.5.2/../../../../powerpc64-ps3-elf/lib\libc.a(lib_a-fclose.o)
                                        0x56e (size before relaxing)
 .debug_str     0x0000000000002721       0x4c f:/psdk3/ps3dev/ppu/bin/../lib/gcc/powerpc64-ps3-elf/4.5.2/../../../../powerpc64-ps3-elf/lib\libc.a(lib_a-fflush.o)
                                        0x594 (size before relaxing)
 .debug_str     0x000000000000276d       0xde f:/psdk3/ps3dev/ppu/bin/../lib/gcc/powerpc64-ps3-elf/4.5.2/../../../../powerpc64-ps3-elf/lib\libc.a(lib_a-gdtoa-gethex.o)
                                        0x74a (size before relaxing)
 .debug_str     0x000000000000284b       0x42 f:/psdk3/ps3dev/ppu/bin/../lib/gcc/powerpc64-ps3-elf/4.5.2/../../../../powerpc64-ps3-elf/lib\libc.a(lib_a-gdtoa-hexnan.o)
                                        0x278 (size before relaxing)
 .debug_str     0x000000000000288d       0x67 f:/psdk3/ps3dev/ppu/bin/../lib/gcc/powerpc64-ps3-elf/4.5.2/../../../../powerpc64-ps3-elf/lib\libc.a(lib_a-lock_internal.o)
                                        0x23f (size before relaxing)
 .debug_str     0x00000000000028f4       0x40 f:/psdk3/ps3dev/ppu/bin/../lib/gcc/powerpc64-ps3-elf/4.5.2/../../../../powerpc64-ps3-elf/lib\libc.a(lib_a-memchr.o)
                                        0x163 (size before relaxing)
 .debug_str     0x0000000000002934       0xe8 f:/psdk3/ps3dev/ppu/bin/../lib/gcc/powerpc64-ps3-elf/4.5.2/../../../../powerpc64-ps3-elf/lib\libc.a(lib_a-mprec.o)
                                        0x672 (size before relaxing)
 .debug_str     0x0000000000002a1c       0x54 f:/psdk3/ps3dev/ppu/bin/../lib/gcc/powerpc64-ps3-elf/4.5.2/../../../../powerpc64-ps3-elf/lib\libc.a(lib_a-reallocr.o)
                                        0x627 (size before relaxing)
 .debug_str     0x0000000000002a70       0x34 f:/psdk3/ps3dev/ppu/bin/../lib/gcc/powerpc64-ps3-elf/4.5.2/../../../../powerpc64-ps3-elf/lib\libc.a(lib_a-strncmp.o)
                                        0x14b (size before relaxing)
 .debug_str     0x0000000000002aa4       0x21 f:/psdk3/ps3dev/ppu/bin/../lib/gcc/powerpc64-ps3-elf/4.5.2/../../../../powerpc64-ps3-elf/lib\libc.a(lib_a-svfiprintf.o)
                                        0x6bf (size before relaxing)
 .debug_str     0x0000000000002ac5       0x30 f:/psdk3/ps3dev/ppu/bin/../lib/gcc/powerpc64-ps3-elf/4.5.2/../../../../powerpc64-ps3-elf/lib\libc.a(lib_a-abort.o)
                                        0x140 (size before relaxing)
 .debug_str     0x0000000000002af5       0x19 f:/psdk3/ps3dev/ppu/bin/../lib/gcc/powerpc64-ps3-elf/4.5.2/../../../../powerpc64-ps3-elf/lib\libc.a(lib_a-callocr.o)
                                        0x5a6 (size before relaxing)
 .debug_str     0x0000000000002b0e       0x3d f:/psdk3/ps3dev/ppu/bin/../lib/gcc/powerpc64-ps3-elf/4.5.2/../../../../powerpc64-ps3-elf/lib\libc.a(lib_a-memmove.o)
                                        0x17c (size before relaxing)
 .debug_str     0x0000000000002b4b      0x100 f:/psdk3/ps3dev/ppu/bin/../lib/gcc/powerpc64-ps3-elf/4.5.2/../../../../powerpc64-ps3-elf/lib\libc.a(lib_a-signal.o)
                                        0x5c5 (size before relaxing)
 .debug_str     0x0000000000002c4b       0x31 f:/psdk3/ps3dev/ppu/bin/../lib/gcc/powerpc64-ps3-elf/4.5.2/../../../../powerpc64-ps3-elf/lib\libsysbase.a(close.o)
                                        0x9e7 (size before relaxing)
 .debug_str     0x0000000000002c7c       0x34 f:/psdk3/ps3dev/ppu/bin/../lib/gcc/powerpc64-ps3-elf/4.5.2/../../../../powerpc64-ps3-elf/lib\libsysbase.a(sbrk.o)
                                        0x9ea (size before relaxing)
 .debug_str     0x0000000000002cb0       0x2e f:/psdk3/ps3dev/ppu/bin/../lib/gcc/powerpc64-ps3-elf/4.5.2/../../../../powerpc64-ps3-elf/lib\libsysbase.a(_exit.o)
                                        0x9e4 (size before relaxing)
 .debug_str     0x0000000000002cde       0x31 f:/psdk3/ps3dev/ppu/bin/../lib/gcc/powerpc64-ps3-elf/4.5.2/../../../../powerpc64-ps3-elf/lib\libsysbase.a(lseek.o)
                                        0x9e7 (size before relaxing)
 .debug_str     0x0000000000002d0f       0x2f f:/psdk3/ps3dev/ppu/bin/../lib/gcc/powerpc64-ps3-elf/4.5.2/../../../../powerpc64-ps3-elf/lib\libsysbase.a(read.o)
                                        0x9e5 (size before relaxing)
 .debug_str     0x0000000000002d3e       0x31 f:/psdk3/ps3dev/ppu/bin/../lib/gcc/powerpc64-ps3-elf/4.5.2/../../../../powerpc64-ps3-elf/lib\libsysbase.a(write.o)
                                        0x9e7 (size before relaxing)
 .debug_str     0x0000000000002d6f       0x8e f:/psdk3/ps3dev/ppu/bin/../lib/gcc/powerpc64-ps3-elf/4.5.2/../../../../powerpc64-ps3-elf/lib\libsysbase.a(lock.o)
                                        0xa51 (size before relaxing)
 .debug_str     0x0000000000002dfd       0x33 f:/psdk3/ps3dev/ppu/bin/../lib/gcc/powerpc64-ps3-elf/4.5.2/../../../../powerpc64-ps3-elf/lib\libsysbase.a(getpid.o)
                                        0x9e9 (size before relaxing)
 .debug_str     0x0000000000002e30       0x2f f:/psdk3/ps3dev/ppu/bin/../lib/gcc/powerpc64-ps3-elf/4.5.2/../../../../powerpc64-ps3-elf/lib\libsysbase.a(kill.o)
                                        0x55a (size before relaxing)

.debug_loc      0x0000000000000000    0x20eb8
 *(.debug_loc)
 .debug_loc     0x0000000000000000      0x2bd f:/psdk3/ps3dev/ppu/bin/../lib/gcc/powerpc64-ps3-elf/4.5.2/../../../../powerpc64-ps3-elf/lib\libm.a(lib_a-s_sqrt.o)
 .debug_loc     0x00000000000002bd       0x71 f:/psdk3/ps3dev/ppu/bin/../lib/gcc/powerpc64-ps3-elf/4.5.2/../../../../powerpc64-ps3-elf/lib\libm.a(lib_a-sf_cos.o)
 .debug_loc     0x000000000000032e       0x71 f:/psdk3/ps3dev/ppu/bin/../lib/gcc/powerpc64-ps3-elf/4.5.2/../../../../powerpc64-ps3-elf/lib\libm.a(lib_a-sf_sin.o)
 .debug_loc     0x000000000000039f      0x30c f:/psdk3/ps3dev/ppu/bin/../lib/gcc/powerpc64-ps3-elf/4.5.2/../../../../powerpc64-ps3-elf/lib\libm.a(lib_a-sf_sine.o)
 .debug_loc     0x00000000000006ab      0x295 f:/psdk3/ps3dev/ppu/bin/../lib/gcc/powerpc64-ps3-elf/4.5.2/../../../../powerpc64-ps3-elf/lib\libm.a(lib_a-sf_sqrt.o)
 .debug_loc     0x0000000000000940      0x2c7 f:/psdk3/ps3dev/ppu/bin/../lib/gcc/powerpc64-ps3-elf/4.5.2/../../../../powerpc64-ps3-elf/lib\libm.a(lib_a-sf_tan.o)
 .debug_loc     0x0000000000000c07      0x1e2 f:/psdk3/ps3dev/ppu/bin/../lib/gcc/powerpc64-ps3-elf/4.5.2/../../../../powerpc64-ps3-elf/lib\libm.a(lib_a-s_frexp.o)
 .debug_loc     0x0000000000000de9      0x338 f:/psdk3/ps3dev/ppu/bin/../lib/gcc/powerpc64-ps3-elf/4.5.2/../../../../powerpc64-ps3-elf/lib\libm.a(lib_a-s_ldexp.o)
 .debug_loc     0x0000000000001121       0x96 f:/psdk3/ps3dev/ppu/bin/../lib/gcc/powerpc64-ps3-elf/4.5.2/../../../../powerpc64-ps3-elf/lib\libm.a(lib_a-s_numtest.o)
 .debug_loc     0x00000000000011b7      0x164 f:/psdk3/ps3dev/ppu/bin/../lib/gcc/powerpc64-ps3-elf/4.5.2/../../../../powerpc64-ps3-elf/lib\libm.a(lib_a-sf_fabs.o)
 .debug_loc     0x000000000000131b      0x16c f:/psdk3/ps3dev/ppu/bin/../lib/gcc/powerpc64-ps3-elf/4.5.2/../../../../powerpc64-ps3-elf/lib\libm.a(lib_a-sf_frexp.o)
 .debug_loc     0x0000000000001487      0x254 f:/psdk3/ps3dev/ppu/bin/../lib/gcc/powerpc64-ps3-elf/4.5.2/../../../../powerpc64-ps3-elf/lib\libm.a(lib_a-sf_ldexp.o)
 .debug_loc     0x00000000000016db      0x1d6 f:/psdk3/ps3dev/ppu/bin/../lib/gcc/powerpc64-ps3-elf/4.5.2/../../../../powerpc64-ps3-elf/lib\libsysbase.a(sleep.o)
 .debug_loc     0x00000000000018b1       0x83 f:/psdk3/ps3dev/ppu/bin/../lib/gcc/powerpc64-ps3-elf/4.5.2/../../../../powerpc64-ps3-elf/lib\libc.a(lib_a-atexit.o)
 .debug_loc     0x0000000000001934       0x4d f:/psdk3/ps3dev/ppu/bin/../lib/gcc/powerpc64-ps3-elf/4.5.2/../../../../powerpc64-ps3-elf/lib\libc.a(lib_a-errno.o)
 .debug_loc     0x0000000000001981       0x5c f:/psdk3/ps3dev/ppu/bin/../lib/gcc/powerpc64-ps3-elf/4.5.2/../../../../powerpc64-ps3-elf/lib\libc.a(lib_a-exit.o)
 .debug_loc     0x00000000000019dd       0xc8 f:/psdk3/ps3dev/ppu/bin/../lib/gcc/powerpc64-ps3-elf/4.5.2/../../../../powerpc64-ps3-elf/lib\libc.a(lib_a-getreent.o)
 .debug_loc     0x0000000000001aa5       0xb9 f:/psdk3/ps3dev/ppu/bin/../lib/gcc/powerpc64-ps3-elf/4.5.2/../../../../powerpc64-ps3-elf/lib\libc.a(lib_a-malign.o)
 .debug_loc     0x0000000000001b5e      0x424 f:/psdk3/ps3dev/ppu/bin/../lib/gcc/powerpc64-ps3-elf/4.5.2/../../../../powerpc64-ps3-elf/lib\libc.a(lib_a-malignr.o)
 .debug_loc     0x0000000000001f82      0x106 f:/psdk3/ps3dev/ppu/bin/../lib/gcc/powerpc64-ps3-elf/4.5.2/../../../../powerpc64-ps3-elf/lib\libc.a(lib_a-malloc.o)
 .debug_loc     0x0000000000002088     0x11b0 f:/psdk3/ps3dev/ppu/bin/../lib/gcc/powerpc64-ps3-elf/4.5.2/../../../../powerpc64-ps3-elf/lib\libc.a(lib_a-mallocr.o)
 .debug_loc     0x0000000000003238      0x24d f:/psdk3/ps3dev/ppu/bin/../lib/gcc/powerpc64-ps3-elf/4.5.2/../../../../powerpc64-ps3-elf/lib\libc.a(lib_a-memcpy.o)
 .debug_loc     0x0000000000003485      0x2a9 f:/psdk3/ps3dev/ppu/bin/../lib/gcc/powerpc64-ps3-elf/4.5.2/../../../../powerpc64-ps3-elf/lib\libc.a(lib_a-memset.o)
 .debug_loc     0x000000000000372e       0xe0 f:/psdk3/ps3dev/ppu/bin/../lib/gcc/powerpc64-ps3-elf/4.5.2/../../../../powerpc64-ps3-elf/lib\libc.a(lib_a-mlock.o)
 .debug_loc     0x000000000000380e      0x16f f:/psdk3/ps3dev/ppu/bin/../lib/gcc/powerpc64-ps3-elf/4.5.2/../../../../powerpc64-ps3-elf/lib\libc.a(lib_a-sscanf.o)
 .debug_loc     0x000000000000397d      0x4dd f:/psdk3/ps3dev/ppu/bin/../lib/gcc/powerpc64-ps3-elf/4.5.2/../../../../powerpc64-ps3-elf/lib\libc.a(lib_a-stdio.o)
 .debug_loc     0x0000000000003e5a      0x1b2 f:/psdk3/ps3dev/ppu/bin/../lib/gcc/powerpc64-ps3-elf/4.5.2/../../../../powerpc64-ps3-elf/lib\libc.a(lib_a-strcasecmp.o)
 .debug_loc     0x000000000000400c      0x13e f:/psdk3/ps3dev/ppu/bin/../lib/gcc/powerpc64-ps3-elf/4.5.2/../../../../powerpc64-ps3-elf/lib\libc.a(lib_a-strlen.o)
 .debug_loc     0x000000000000414a      0x1f5 f:/psdk3/ps3dev/ppu/bin/../lib/gcc/powerpc64-ps3-elf/4.5.2/../../../../powerpc64-ps3-elf/lib\libc.a(lib_a-strncpy.o)
 .debug_loc     0x000000000000433f     0x2535 f:/psdk3/ps3dev/ppu/bin/../lib/gcc/powerpc64-ps3-elf/4.5.2/../../../../powerpc64-ps3-elf/lib\libc.a(lib_a-svfscanf.o)
 .debug_loc     0x0000000000006874      0x214 f:/psdk3/ps3dev/ppu/bin/../lib/gcc/powerpc64-ps3-elf/4.5.2/../../../../powerpc64-ps3-elf/lib\libc.a(lib_a-vsprintf.o)
 .debug_loc     0x0000000000006a88      0x1f5 f:/psdk3/ps3dev/ppu/bin/../lib/gcc/powerpc64-ps3-elf/4.5.2/../../../../powerpc64-ps3-elf/lib\libc.a(lib_a-__atexit.o)
 .debug_loc     0x0000000000006c7d      0x287 f:/psdk3/ps3dev/ppu/bin/../lib/gcc/powerpc64-ps3-elf/4.5.2/../../../../powerpc64-ps3-elf/lib\libc.a(lib_a-__call_atexit.o)
 .debug_loc     0x0000000000006f04      0x7e6 f:/psdk3/ps3dev/ppu/bin/../lib/gcc/powerpc64-ps3-elf/4.5.2/../../../../powerpc64-ps3-elf/lib\libc.a(lib_a-findfp.o)
 .debug_loc     0x00000000000076ea      0x79a f:/psdk3/ps3dev/ppu/bin/../lib/gcc/powerpc64-ps3-elf/4.5.2/../../../../powerpc64-ps3-elf/lib\libc.a(lib_a-freer.o)
 .debug_loc     0x0000000000007e84      0x566 f:/psdk3/ps3dev/ppu/bin/../lib/gcc/powerpc64-ps3-elf/4.5.2/../../../../powerpc64-ps3-elf/lib\libc.a(lib_a-fwalk.o)
 .debug_loc     0x00000000000083ea       0x23 f:/psdk3/ps3dev/ppu/bin/../lib/gcc/powerpc64-ps3-elf/4.5.2/../../../../powerpc64-ps3-elf/lib\libc.a(lib_a-iswspace.o)
 .debug_loc     0x000000000000840d      0x21a f:/psdk3/ps3dev/ppu/bin/../lib/gcc/powerpc64-ps3-elf/4.5.2/../../../../powerpc64-ps3-elf/lib\libc.a(lib_a-locale.o)
 .debug_loc     0x0000000000008627      0x269 f:/psdk3/ps3dev/ppu/bin/../lib/gcc/powerpc64-ps3-elf/4.5.2/../../../../powerpc64-ps3-elf/lib\libc.a(lib_a-lock_recursive.o)
 .debug_loc     0x0000000000008890      0x4f8 f:/psdk3/ps3dev/ppu/bin/../lib/gcc/powerpc64-ps3-elf/4.5.2/../../../../powerpc64-ps3-elf/lib\libc.a(lib_a-mbrtowc.o)
 .debug_loc     0x0000000000008d88      0x18e f:/psdk3/ps3dev/ppu/bin/../lib/gcc/powerpc64-ps3-elf/4.5.2/../../../../powerpc64-ps3-elf/lib\libc.a(lib_a-mbtowc_r.o)
 .debug_loc     0x0000000000008f16       0x23 f:/psdk3/ps3dev/ppu/bin/../lib/gcc/powerpc64-ps3-elf/4.5.2/../../../../powerpc64-ps3-elf/lib\libc.a(lib_a-s_fpclassify.o)
 .debug_loc     0x0000000000008f39      0x242 f:/psdk3/ps3dev/ppu/bin/../lib/gcc/powerpc64-ps3-elf/4.5.2/../../../../powerpc64-ps3-elf/lib\libc.a(lib_a-sccl.o)
 .debug_loc     0x000000000000917b      0x16f f:/psdk3/ps3dev/ppu/bin/../lib/gcc/powerpc64-ps3-elf/4.5.2/../../../../powerpc64-ps3-elf/lib\libc.a(lib_a-sprintf.o)
 .debug_loc     0x00000000000092ea      0x18f f:/psdk3/ps3dev/ppu/bin/../lib/gcc/powerpc64-ps3-elf/4.5.2/../../../../powerpc64-ps3-elf/lib\libc.a(lib_a-strcmp.o)
 .debug_loc     0x0000000000009479     0x2e39 f:/psdk3/ps3dev/ppu/bin/../lib/gcc/powerpc64-ps3-elf/4.5.2/../../../../powerpc64-ps3-elf/lib\libc.a(lib_a-strtod.o)
 .debug_loc     0x000000000000c2b2      0x60d f:/psdk3/ps3dev/ppu/bin/../lib/gcc/powerpc64-ps3-elf/4.5.2/../../../../powerpc64-ps3-elf/lib\libc.a(lib_a-strtol.o)
 .debug_loc     0x000000000000c8bf      0x50b f:/psdk3/ps3dev/ppu/bin/../lib/gcc/powerpc64-ps3-elf/4.5.2/../../../../powerpc64-ps3-elf/lib\libc.a(lib_a-strtoll_r.o)
 .debug_loc     0x000000000000cdca      0x4ef f:/psdk3/ps3dev/ppu/bin/../lib/gcc/powerpc64-ps3-elf/4.5.2/../../../../powerpc64-ps3-elf/lib\libc.a(lib_a-strtoul.o)
 .debug_loc     0x000000000000d2b9      0x3ed f:/psdk3/ps3dev/ppu/bin/../lib/gcc/powerpc64-ps3-elf/4.5.2/../../../../powerpc64-ps3-elf/lib\libc.a(lib_a-strtoull_r.o)
 .debug_loc     0x000000000000d6a6     0x2233 f:/psdk3/ps3dev/ppu/bin/../lib/gcc/powerpc64-ps3-elf/4.5.2/../../../../powerpc64-ps3-elf/lib\libc.a(lib_a-svfiscanf.o)
 .debug_loc     0x000000000000f8d9     0x3930 f:/psdk3/ps3dev/ppu/bin/../lib/gcc/powerpc64-ps3-elf/4.5.2/../../../../powerpc64-ps3-elf/lib\libc.a(lib_a-svfprintf.o)
 .debug_loc     0x0000000000013209      0x443 f:/psdk3/ps3dev/ppu/bin/../lib/gcc/powerpc64-ps3-elf/4.5.2/../../../../powerpc64-ps3-elf/lib\libc.a(lib_a-ungetc.o)
 .debug_loc     0x000000000001364c     0x35a1 f:/psdk3/ps3dev/ppu/bin/../lib/gcc/powerpc64-ps3-elf/4.5.2/../../../../powerpc64-ps3-elf/lib\libc.a(lib_a-dtoa.o)
 .debug_loc     0x0000000000016bed      0x235 f:/psdk3/ps3dev/ppu/bin/../lib/gcc/powerpc64-ps3-elf/4.5.2/../../../../powerpc64-ps3-elf/lib\libc.a(lib_a-fclose.o)
 .debug_loc     0x0000000000016e22      0x490 f:/psdk3/ps3dev/ppu/bin/../lib/gcc/powerpc64-ps3-elf/4.5.2/../../../../powerpc64-ps3-elf/lib\libc.a(lib_a-fflush.o)
 .debug_loc     0x00000000000172b2     0x175d f:/psdk3/ps3dev/ppu/bin/../lib/gcc/powerpc64-ps3-elf/4.5.2/../../../../powerpc64-ps3-elf/lib\libc.a(lib_a-gdtoa-gethex.o)
 .debug_loc     0x0000000000018a0f      0x73b f:/psdk3/ps3dev/ppu/bin/../lib/gcc/powerpc64-ps3-elf/4.5.2/../../../../powerpc64-ps3-elf/lib\libc.a(lib_a-gdtoa-hexnan.o)
 .debug_loc     0x000000000001914a      0x10d f:/psdk3/ps3dev/ppu/bin/../lib/gcc/powerpc64-ps3-elf/4.5.2/../../../../powerpc64-ps3-elf/lib\libc.a(lib_a-lock_internal.o)
 .debug_loc     0x0000000000019257      0x26a f:/psdk3/ps3dev/ppu/bin/../lib/gcc/powerpc64-ps3-elf/4.5.2/../../../../powerpc64-ps3-elf/lib\libc.a(lib_a-memchr.o)
 .debug_loc     0x00000000000194c1     0x2b85 f:/psdk3/ps3dev/ppu/bin/../lib/gcc/powerpc64-ps3-elf/4.5.2/../../../../powerpc64-ps3-elf/lib\libc.a(lib_a-mprec.o)
 .debug_loc     0x000000000001c046     0x12d3 f:/psdk3/ps3dev/ppu/bin/../lib/gcc/powerpc64-ps3-elf/4.5.2/../../../../powerpc64-ps3-elf/lib\libc.a(lib_a-reallocr.o)
 .debug_loc     0x000000000001d319      0x292 f:/psdk3/ps3dev/ppu/bin/../lib/gcc/powerpc64-ps3-elf/4.5.2/../../../../powerpc64-ps3-elf/lib\libc.a(lib_a-strncmp.o)
 .debug_loc     0x000000000001d5ab     0x1f86 f:/psdk3/ps3dev/ppu/bin/../lib/gcc/powerpc64-ps3-elf/4.5.2/../../../../powerpc64-ps3-elf/lib\libc.a(lib_a-svfiprintf.o)
 .debug_loc     0x000000000001f531       0x39 f:/psdk3/ps3dev/ppu/bin/../lib/gcc/powerpc64-ps3-elf/4.5.2/../../../../powerpc64-ps3-elf/lib\libc.a(lib_a-abort.o)
 .debug_loc     0x000000000001f56a      0x320 f:/psdk3/ps3dev/ppu/bin/../lib/gcc/powerpc64-ps3-elf/4.5.2/../../../../powerpc64-ps3-elf/lib\libc.a(lib_a-callocr.o)
 .debug_loc     0x000000000001f88a      0x2c4 f:/psdk3/ps3dev/ppu/bin/../lib/gcc/powerpc64-ps3-elf/4.5.2/../../../../powerpc64-ps3-elf/lib\libc.a(lib_a-memmove.o)
 .debug_loc     0x000000000001fb4e      0x72d f:/psdk3/ps3dev/ppu/bin/../lib/gcc/powerpc64-ps3-elf/4.5.2/../../../../powerpc64-ps3-elf/lib\libc.a(lib_a-signal.o)
 .debug_loc     0x000000000002027b       0xe1 f:/psdk3/ps3dev/ppu/bin/../lib/gcc/powerpc64-ps3-elf/4.5.2/../../../../powerpc64-ps3-elf/lib\libsysbase.a(close.o)
 .debug_loc     0x000000000002035c       0xf5 f:/psdk3/ps3dev/ppu/bin/../lib/gcc/powerpc64-ps3-elf/4.5.2/../../../../powerpc64-ps3-elf/lib\libsysbase.a(sbrk.o)
 .debug_loc     0x0000000000020451       0x5c f:/psdk3/ps3dev/ppu/bin/../lib/gcc/powerpc64-ps3-elf/4.5.2/../../../../powerpc64-ps3-elf/lib\libsysbase.a(_exit.o)
 .debug_loc     0x00000000000204ad      0x14d f:/psdk3/ps3dev/ppu/bin/../lib/gcc/powerpc64-ps3-elf/4.5.2/../../../../powerpc64-ps3-elf/lib\libsysbase.a(lseek.o)
 .debug_loc     0x00000000000205fa      0x14d f:/psdk3/ps3dev/ppu/bin/../lib/gcc/powerpc64-ps3-elf/4.5.2/../../../../powerpc64-ps3-elf/lib\libsysbase.a(read.o)
 .debug_loc     0x0000000000020747      0x14d f:/psdk3/ps3dev/ppu/bin/../lib/gcc/powerpc64-ps3-elf/4.5.2/../../../../powerpc64-ps3-elf/lib\libsysbase.a(write.o)
 .debug_loc     0x0000000000020894      0x556 f:/psdk3/ps3dev/ppu/bin/../lib/gcc/powerpc64-ps3-elf/4.5.2/../../../../powerpc64-ps3-elf/lib\libsysbase.a(lock.o)
 .debug_loc     0x0000000000020dea       0xab f:/psdk3/ps3dev/ppu/bin/../lib/gcc/powerpc64-ps3-elf/4.5.2/../../../../powerpc64-ps3-elf/lib\libsysbase.a(getpid.o)
 .debug_loc     0x0000000000020e95       0x23 f:/psdk3/ps3dev/ppu/bin/../lib/gcc/powerpc64-ps3-elf/4.5.2/../../../../powerpc64-ps3-elf/lib\libsysbase.a(kill.o)

.debug_macinfo
 *(.debug_macinfo)

.debug_weaknames
 *(.debug_weaknames)

.debug_funcnames
 *(.debug_funcnames)

.debug_typenames
 *(.debug_typenames)

.debug_varnames
 *(.debug_varnames)

.debug_pubtypes
                0x0000000000000000     0x50cd
 *(.debug_pubtypes)
 .debug_pubtypes
                0x0000000000000000       0x12 f:/psdk3/ps3dev/ppu/bin/../lib/gcc/powerpc64-ps3-elf/4.5.2/../../../../powerpc64-ps3-elf/lib\libm.a(lib_a-s_sqrt.o)
 .debug_pubtypes
                0x0000000000000012       0x12 f:/psdk3/ps3dev/ppu/bin/../lib/gcc/powerpc64-ps3-elf/4.5.2/../../../../powerpc64-ps3-elf/lib\libm.a(lib_a-sf_cos.o)
 .debug_pubtypes
                0x0000000000000024       0x12 f:/psdk3/ps3dev/ppu/bin/../lib/gcc/powerpc64-ps3-elf/4.5.2/../../../../powerpc64-ps3-elf/lib\libm.a(lib_a-sf_sin.o)
 .debug_pubtypes
                0x0000000000000036       0x12 f:/psdk3/ps3dev/ppu/bin/../lib/gcc/powerpc64-ps3-elf/4.5.2/../../../../powerpc64-ps3-elf/lib\libm.a(lib_a-sf_sine.o)
 .debug_pubtypes
                0x0000000000000048       0x12 f:/psdk3/ps3dev/ppu/bin/../lib/gcc/powerpc64-ps3-elf/4.5.2/../../../../powerpc64-ps3-elf/lib\libm.a(lib_a-sf_sqrt.o)
 .debug_pubtypes
                0x000000000000005a       0x12 f:/psdk3/ps3dev/ppu/bin/../lib/gcc/powerpc64-ps3-elf/4.5.2/../../../../powerpc64-ps3-elf/lib\libm.a(lib_a-sf_tan.o)
 .debug_pubtypes
                0x000000000000006c       0x3c f:/psdk3/ps3dev/ppu/bin/../lib/gcc/powerpc64-ps3-elf/4.5.2/../../../../powerpc64-ps3-elf/lib\libm.a(lib_a-s_frexp.o)
 .debug_pubtypes
                0x00000000000000a8       0x3c f:/psdk3/ps3dev/ppu/bin/../lib/gcc/powerpc64-ps3-elf/4.5.2/../../../../powerpc64-ps3-elf/lib\libm.a(lib_a-s_ispos.o)
 .debug_pubtypes
                0x00000000000000e4       0x3c f:/psdk3/ps3dev/ppu/bin/../lib/gcc/powerpc64-ps3-elf/4.5.2/../../../../powerpc64-ps3-elf/lib\libm.a(lib_a-s_ldexp.o)
 .debug_pubtypes
                0x0000000000000120       0x12 f:/psdk3/ps3dev/ppu/bin/../lib/gcc/powerpc64-ps3-elf/4.5.2/../../../../powerpc64-ps3-elf/lib\libm.a(lib_a-s_mathcnst.o)
 .debug_pubtypes
                0x0000000000000132       0x3c f:/psdk3/ps3dev/ppu/bin/../lib/gcc/powerpc64-ps3-elf/4.5.2/../../../../powerpc64-ps3-elf/lib\libm.a(lib_a-s_numtest.o)
 .debug_pubtypes
                0x000000000000016e       0x12 f:/psdk3/ps3dev/ppu/bin/../lib/gcc/powerpc64-ps3-elf/4.5.2/../../../../powerpc64-ps3-elf/lib\libm.a(lib_a-sf_fabs.o)
 .debug_pubtypes
                0x0000000000000180       0x49 f:/psdk3/ps3dev/ppu/bin/../lib/gcc/powerpc64-ps3-elf/4.5.2/../../../../powerpc64-ps3-elf/lib\libm.a(lib_a-sf_frexp.o)
 .debug_pubtypes
                0x00000000000001c9       0x20 f:/psdk3/ps3dev/ppu/bin/../lib/gcc/powerpc64-ps3-elf/4.5.2/../../../../powerpc64-ps3-elf/lib\libm.a(lib_a-sf_ispos.o)
 .debug_pubtypes
                0x00000000000001e9       0x49 f:/psdk3/ps3dev/ppu/bin/../lib/gcc/powerpc64-ps3-elf/4.5.2/../../../../powerpc64-ps3-elf/lib\libm.a(lib_a-sf_ldexp.o)
 .debug_pubtypes
                0x0000000000000232       0x20 f:/psdk3/ps3dev/ppu/bin/../lib/gcc/powerpc64-ps3-elf/4.5.2/../../../../powerpc64-ps3-elf/lib\libm.a(lib_a-sf_numtest.o)
 .debug_pubtypes
                0x0000000000000252      0x2d1 f:/psdk3/ps3dev/ppu/bin/../lib/gcc/powerpc64-ps3-elf/4.5.2/../../../../powerpc64-ps3-elf/lib\libsysbase.a(syscalls.o)
 .debug_pubtypes
                0x0000000000000523      0x2d1 f:/psdk3/ps3dev/ppu/bin/../lib/gcc/powerpc64-ps3-elf/4.5.2/../../../../powerpc64-ps3-elf/lib\libsysbase.a(sleep.o)
 .debug_pubtypes
                0x00000000000007f4       0x25 f:/psdk3/ps3dev/ppu/bin/../lib/gcc/powerpc64-ps3-elf/4.5.2/../../../../powerpc64-ps3-elf/lib\libc.a(lib_a-atexit.o)
 .debug_pubtypes
                0x0000000000000819       0x12 f:/psdk3/ps3dev/ppu/bin/../lib/gcc/powerpc64-ps3-elf/4.5.2/../../../../powerpc64-ps3-elf/lib\libc.a(lib_a-errno.o)
 .debug_pubtypes
                0x000000000000082b      0x124 f:/psdk3/ps3dev/ppu/bin/../lib/gcc/powerpc64-ps3-elf/4.5.2/../../../../powerpc64-ps3-elf/lib\libc.a(lib_a-exit.o)
 .debug_pubtypes
                0x000000000000094f      0x124 f:/psdk3/ps3dev/ppu/bin/../lib/gcc/powerpc64-ps3-elf/4.5.2/../../../../powerpc64-ps3-elf/lib\libc.a(lib_a-getreent.o)
 .debug_pubtypes
                0x0000000000000a73      0x124 f:/psdk3/ps3dev/ppu/bin/../lib/gcc/powerpc64-ps3-elf/4.5.2/../../../../powerpc64-ps3-elf/lib\libc.a(lib_a-impure.o)
 .debug_pubtypes
                0x0000000000000b97       0x1d f:/psdk3/ps3dev/ppu/bin/../lib/gcc/powerpc64-ps3-elf/4.5.2/../../../../powerpc64-ps3-elf/lib\libc.a(lib_a-malign.o)
 .debug_pubtypes
                0x0000000000000bb4      0x14e f:/psdk3/ps3dev/ppu/bin/../lib/gcc/powerpc64-ps3-elf/4.5.2/../../../../powerpc64-ps3-elf/lib\libc.a(lib_a-malignr.o)
 .debug_pubtypes
                0x0000000000000d02       0x1d f:/psdk3/ps3dev/ppu/bin/../lib/gcc/powerpc64-ps3-elf/4.5.2/../../../../powerpc64-ps3-elf/lib\libc.a(lib_a-malloc.o)
 .debug_pubtypes
                0x0000000000000d1f      0x167 f:/psdk3/ps3dev/ppu/bin/../lib/gcc/powerpc64-ps3-elf/4.5.2/../../../../powerpc64-ps3-elf/lib\libc.a(lib_a-mallocr.o)
 .debug_pubtypes
                0x0000000000000e86       0x1d f:/psdk3/ps3dev/ppu/bin/../lib/gcc/powerpc64-ps3-elf/4.5.2/../../../../powerpc64-ps3-elf/lib\libc.a(lib_a-memcpy.o)
 .debug_pubtypes
                0x0000000000000ea3       0x1d f:/psdk3/ps3dev/ppu/bin/../lib/gcc/powerpc64-ps3-elf/4.5.2/../../../../powerpc64-ps3-elf/lib\libc.a(lib_a-memset.o)
 .debug_pubtypes
                0x0000000000000ec0      0x124 f:/psdk3/ps3dev/ppu/bin/../lib/gcc/powerpc64-ps3-elf/4.5.2/../../../../powerpc64-ps3-elf/lib\libc.a(lib_a-mlock.o)
 .debug_pubtypes
                0x0000000000000fe4      0x14c f:/psdk3/ps3dev/ppu/bin/../lib/gcc/powerpc64-ps3-elf/4.5.2/../../../../powerpc64-ps3-elf/lib\libc.a(lib_a-sscanf.o)
 .debug_pubtypes
                0x0000000000001130      0x138 f:/psdk3/ps3dev/ppu/bin/../lib/gcc/powerpc64-ps3-elf/4.5.2/../../../../powerpc64-ps3-elf/lib\libc.a(lib_a-stdio.o)
 .debug_pubtypes
                0x0000000000001268       0x12 f:/psdk3/ps3dev/ppu/bin/../lib/gcc/powerpc64-ps3-elf/4.5.2/../../../../powerpc64-ps3-elf/lib\libc.a(lib_a-strcasecmp.o)
 .debug_pubtypes
                0x000000000000127a       0x1d f:/psdk3/ps3dev/ppu/bin/../lib/gcc/powerpc64-ps3-elf/4.5.2/../../../../powerpc64-ps3-elf/lib\libc.a(lib_a-strlen.o)
 .debug_pubtypes
                0x0000000000001297       0x1d f:/psdk3/ps3dev/ppu/bin/../lib/gcc/powerpc64-ps3-elf/4.5.2/../../../../powerpc64-ps3-elf/lib\libc.a(lib_a-strncpy.o)
 .debug_pubtypes
                0x00000000000012b4      0x18f f:/psdk3/ps3dev/ppu/bin/../lib/gcc/powerpc64-ps3-elf/4.5.2/../../../../powerpc64-ps3-elf/lib\libc.a(lib_a-svfscanf.o)
 .debug_pubtypes
                0x0000000000001443      0x14c f:/psdk3/ps3dev/ppu/bin/../lib/gcc/powerpc64-ps3-elf/4.5.2/../../../../powerpc64-ps3-elf/lib\libc.a(lib_a-vsprintf.o)
 .debug_pubtypes
                0x000000000000158f      0x137 f:/psdk3/ps3dev/ppu/bin/../lib/gcc/powerpc64-ps3-elf/4.5.2/../../../../powerpc64-ps3-elf/lib\libc.a(lib_a-__atexit.o)
 .debug_pubtypes
                0x00000000000016c6      0x124 f:/psdk3/ps3dev/ppu/bin/../lib/gcc/powerpc64-ps3-elf/4.5.2/../../../../powerpc64-ps3-elf/lib\libc.a(lib_a-__call_atexit.o)
 .debug_pubtypes
                0x00000000000017ea      0x12d f:/psdk3/ps3dev/ppu/bin/../lib/gcc/powerpc64-ps3-elf/4.5.2/../../../../powerpc64-ps3-elf/lib\libc.a(lib_a-findfp.o)
 .debug_pubtypes
                0x0000000000001917      0x167 f:/psdk3/ps3dev/ppu/bin/../lib/gcc/powerpc64-ps3-elf/4.5.2/../../../../powerpc64-ps3-elf/lib\libc.a(lib_a-freer.o)
 .debug_pubtypes
                0x0000000000001a7e      0x12d f:/psdk3/ps3dev/ppu/bin/../lib/gcc/powerpc64-ps3-elf/4.5.2/../../../../powerpc64-ps3-elf/lib\libc.a(lib_a-fwalk.o)
 .debug_pubtypes
                0x0000000000001bab       0x1d f:/psdk3/ps3dev/ppu/bin/../lib/gcc/powerpc64-ps3-elf/4.5.2/../../../../powerpc64-ps3-elf/lib\libc.a(lib_a-iswspace.o)
 .debug_pubtypes
                0x0000000000001bc8      0x12e f:/psdk3/ps3dev/ppu/bin/../lib/gcc/powerpc64-ps3-elf/4.5.2/../../../../powerpc64-ps3-elf/lib\libc.a(lib_a-locale.o)
 .debug_pubtypes
                0x0000000000001cf6       0x7c f:/psdk3/ps3dev/ppu/bin/../lib/gcc/powerpc64-ps3-elf/4.5.2/../../../../powerpc64-ps3-elf/lib\libc.a(lib_a-lock_recursive.o)
 .debug_pubtypes
                0x0000000000001d72      0x149 f:/psdk3/ps3dev/ppu/bin/../lib/gcc/powerpc64-ps3-elf/4.5.2/../../../../powerpc64-ps3-elf/lib\libc.a(lib_a-mbrtowc.o)
 .debug_pubtypes
                0x0000000000001ebb      0x149 f:/psdk3/ps3dev/ppu/bin/../lib/gcc/powerpc64-ps3-elf/4.5.2/../../../../powerpc64-ps3-elf/lib\libc.a(lib_a-mbtowc_r.o)
 .debug_pubtypes
                0x0000000000002004       0x3c f:/psdk3/ps3dev/ppu/bin/../lib/gcc/powerpc64-ps3-elf/4.5.2/../../../../powerpc64-ps3-elf/lib\libc.a(lib_a-s_fpclassify.o)
 .debug_pubtypes
                0x0000000000002040       0x1d f:/psdk3/ps3dev/ppu/bin/../lib/gcc/powerpc64-ps3-elf/4.5.2/../../../../powerpc64-ps3-elf/lib\libc.a(lib_a-sccl.o)
 .debug_pubtypes
                0x000000000000205d       0x12 f:/psdk3/ps3dev/ppu/bin/../lib/gcc/powerpc64-ps3-elf/4.5.2/../../../../powerpc64-ps3-elf/lib\libc.a(lib_a-sf_nan.o)
 .debug_pubtypes
                0x000000000000206f      0x14c f:/psdk3/ps3dev/ppu/bin/../lib/gcc/powerpc64-ps3-elf/4.5.2/../../../../powerpc64-ps3-elf/lib\libc.a(lib_a-sprintf.o)
 .debug_pubtypes
                0x00000000000021bb       0x12 f:/psdk3/ps3dev/ppu/bin/../lib/gcc/powerpc64-ps3-elf/4.5.2/../../../../powerpc64-ps3-elf/lib\libc.a(lib_a-strcmp.o)
 .debug_pubtypes
                0x00000000000021cd      0x16c f:/psdk3/ps3dev/ppu/bin/../lib/gcc/powerpc64-ps3-elf/4.5.2/../../../../powerpc64-ps3-elf/lib\libc.a(lib_a-strtod.o)
 .debug_pubtypes
                0x0000000000002339      0x124 f:/psdk3/ps3dev/ppu/bin/../lib/gcc/powerpc64-ps3-elf/4.5.2/../../../../powerpc64-ps3-elf/lib\libc.a(lib_a-strtol.o)
 .debug_pubtypes
                0x000000000000245d      0x124 f:/psdk3/ps3dev/ppu/bin/../lib/gcc/powerpc64-ps3-elf/4.5.2/../../../../powerpc64-ps3-elf/lib\libc.a(lib_a-strtoll_r.o)
 .debug_pubtypes
                0x0000000000002581      0x124 f:/psdk3/ps3dev/ppu/bin/../lib/gcc/powerpc64-ps3-elf/4.5.2/../../../../powerpc64-ps3-elf/lib\libc.a(lib_a-strtoul.o)
 .debug_pubtypes
                0x00000000000026a5      0x124 f:/psdk3/ps3dev/ppu/bin/../lib/gcc/powerpc64-ps3-elf/4.5.2/../../../../powerpc64-ps3-elf/lib\libc.a(lib_a-strtoull_r.o)
 .debug_pubtypes
                0x00000000000027c9      0x18f f:/psdk3/ps3dev/ppu/bin/../lib/gcc/powerpc64-ps3-elf/4.5.2/../../../../powerpc64-ps3-elf/lib\libc.a(lib_a-svfiscanf.o)
 .debug_pubtypes
                0x0000000000002958      0x1b2 f:/psdk3/ps3dev/ppu/bin/../lib/gcc/powerpc64-ps3-elf/4.5.2/../../../../powerpc64-ps3-elf/lib\libc.a(lib_a-svfprintf.o)
 .debug_pubtypes
                0x0000000000002b0a      0x138 f:/psdk3/ps3dev/ppu/bin/../lib/gcc/powerpc64-ps3-elf/4.5.2/../../../../powerpc64-ps3-elf/lib\libc.a(lib_a-ungetc.o)
 .debug_pubtypes
                0x0000000000002c42      0x150 f:/psdk3/ps3dev/ppu/bin/../lib/gcc/powerpc64-ps3-elf/4.5.2/../../../../powerpc64-ps3-elf/lib\libc.a(lib_a-dtoa.o)
 .debug_pubtypes
                0x0000000000002d92      0x12d f:/psdk3/ps3dev/ppu/bin/../lib/gcc/powerpc64-ps3-elf/4.5.2/../../../../powerpc64-ps3-elf/lib\libc.a(lib_a-fclose.o)
 .debug_pubtypes
                0x0000000000002ebf      0x12d f:/psdk3/ps3dev/ppu/bin/../lib/gcc/powerpc64-ps3-elf/4.5.2/../../../../powerpc64-ps3-elf/lib\libc.a(lib_a-fflush.o)
 .debug_pubtypes
                0x0000000000002fec      0x162 f:/psdk3/ps3dev/ppu/bin/../lib/gcc/powerpc64-ps3-elf/4.5.2/../../../../powerpc64-ps3-elf/lib\libc.a(lib_a-gdtoa-gethex.o)
 .debug_pubtypes
                0x000000000000314e       0x2e f:/psdk3/ps3dev/ppu/bin/../lib/gcc/powerpc64-ps3-elf/4.5.2/../../../../powerpc64-ps3-elf/lib\libc.a(lib_a-gdtoa-hexnan.o)
 .debug_pubtypes
                0x000000000000317c       0x7c f:/psdk3/ps3dev/ppu/bin/../lib/gcc/powerpc64-ps3-elf/4.5.2/../../../../powerpc64-ps3-elf/lib\libc.a(lib_a-lock_internal.o)
 .debug_pubtypes
                0x00000000000031f8       0x1d f:/psdk3/ps3dev/ppu/bin/../lib/gcc/powerpc64-ps3-elf/4.5.2/../../../../powerpc64-ps3-elf/lib\libc.a(lib_a-memchr.o)
 .debug_pubtypes
                0x0000000000003215      0x150 f:/psdk3/ps3dev/ppu/bin/../lib/gcc/powerpc64-ps3-elf/4.5.2/../../../../powerpc64-ps3-elf/lib\libc.a(lib_a-mprec.o)
 .debug_pubtypes
                0x0000000000003365      0x15a f:/psdk3/ps3dev/ppu/bin/../lib/gcc/powerpc64-ps3-elf/4.5.2/../../../../powerpc64-ps3-elf/lib\libc.a(lib_a-reallocr.o)
 .debug_pubtypes
                0x00000000000034bf       0x1d f:/psdk3/ps3dev/ppu/bin/../lib/gcc/powerpc64-ps3-elf/4.5.2/../../../../powerpc64-ps3-elf/lib\libc.a(lib_a-strncmp.o)
 .debug_pubtypes
                0x00000000000034dc      0x192 f:/psdk3/ps3dev/ppu/bin/../lib/gcc/powerpc64-ps3-elf/4.5.2/../../../../powerpc64-ps3-elf/lib\libc.a(lib_a-svfiprintf.o)
 .debug_pubtypes
                0x000000000000366e       0x12 f:/psdk3/ps3dev/ppu/bin/../lib/gcc/powerpc64-ps3-elf/4.5.2/../../../../powerpc64-ps3-elf/lib\libc.a(lib_a-abort.o)
 .debug_pubtypes
                0x0000000000003680      0x14e f:/psdk3/ps3dev/ppu/bin/../lib/gcc/powerpc64-ps3-elf/4.5.2/../../../../powerpc64-ps3-elf/lib\libc.a(lib_a-callocr.o)
 .debug_pubtypes
                0x00000000000037ce       0x1d f:/psdk3/ps3dev/ppu/bin/../lib/gcc/powerpc64-ps3-elf/4.5.2/../../../../powerpc64-ps3-elf/lib\libc.a(lib_a-memmove.o)
 .debug_pubtypes
                0x00000000000037eb      0x136 f:/psdk3/ps3dev/ppu/bin/../lib/gcc/powerpc64-ps3-elf/4.5.2/../../../../powerpc64-ps3-elf/lib\libc.a(lib_a-signal.o)
 .debug_pubtypes
                0x0000000000003921      0x2d1 f:/psdk3/ps3dev/ppu/bin/../lib/gcc/powerpc64-ps3-elf/4.5.2/../../../../powerpc64-ps3-elf/lib\libsysbase.a(close.o)
 .debug_pubtypes
                0x0000000000003bf2      0x2d1 f:/psdk3/ps3dev/ppu/bin/../lib/gcc/powerpc64-ps3-elf/4.5.2/../../../../powerpc64-ps3-elf/lib\libsysbase.a(sbrk.o)
 .debug_pubtypes
                0x0000000000003ec3      0x2d1 f:/psdk3/ps3dev/ppu/bin/../lib/gcc/powerpc64-ps3-elf/4.5.2/../../../../powerpc64-ps3-elf/lib\libsysbase.a(_exit.o)
 .debug_pubtypes
                0x0000000000004194      0x2d1 f:/psdk3/ps3dev/ppu/bin/../lib/gcc/powerpc64-ps3-elf/4.5.2/../../../../powerpc64-ps3-elf/lib\libsysbase.a(lseek.o)
 .debug_pubtypes
                0x0000000000004465      0x2d1 f:/psdk3/ps3dev/ppu/bin/../lib/gcc/powerpc64-ps3-elf/4.5.2/../../../../powerpc64-ps3-elf/lib\libsysbase.a(read.o)
 .debug_pubtypes
                0x0000000000004736      0x2d1 f:/psdk3/ps3dev/ppu/bin/../lib/gcc/powerpc64-ps3-elf/4.5.2/../../../../powerpc64-ps3-elf/lib\libsysbase.a(write.o)
 .debug_pubtypes
                0x0000000000004a07      0x2d1 f:/psdk3/ps3dev/ppu/bin/../lib/gcc/powerpc64-ps3-elf/4.5.2/../../../../powerpc64-ps3-elf/lib\libsysbase.a(lock.o)
 .debug_pubtypes
                0x0000000000004cd8      0x2d1 f:/psdk3/ps3dev/ppu/bin/../lib/gcc/powerpc64-ps3-elf/4.5.2/../../../../powerpc64-ps3-elf/lib\libsysbase.a(getpid.o)
 .debug_pubtypes
                0x0000000000004fa9      0x124 f:/psdk3/ps3dev/ppu/bin/../lib/gcc/powerpc64-ps3-elf/4.5.2/../../../../powerpc64-ps3-elf/lib\libsysbase.a(kill.o)

.debug_ranges   0x0000000000000000     0x21b0
 *(.debug_ranges)
 .debug_ranges  0x0000000000000000       0x90 f:/psdk3/ps3dev/ppu/bin/../lib/gcc/powerpc64-ps3-elf/4.5.2/../../../../powerpc64-ps3-elf/lib\libm.a(lib_a-s_sqrt.o)
 .debug_ranges  0x0000000000000090       0x20 f:/psdk3/ps3dev/ppu/bin/../lib/gcc/powerpc64-ps3-elf/4.5.2/../../../../powerpc64-ps3-elf/lib\libm.a(lib_a-sf_cos.o)
 .debug_ranges  0x00000000000000b0       0x20 f:/psdk3/ps3dev/ppu/bin/../lib/gcc/powerpc64-ps3-elf/4.5.2/../../../../powerpc64-ps3-elf/lib\libm.a(lib_a-sf_sin.o)
 .debug_ranges  0x00000000000000d0       0x20 f:/psdk3/ps3dev/ppu/bin/../lib/gcc/powerpc64-ps3-elf/4.5.2/../../../../powerpc64-ps3-elf/lib\libm.a(lib_a-sf_sine.o)
 .debug_ranges  0x00000000000000f0       0x90 f:/psdk3/ps3dev/ppu/bin/../lib/gcc/powerpc64-ps3-elf/4.5.2/../../../../powerpc64-ps3-elf/lib\libm.a(lib_a-sf_sqrt.o)
 .debug_ranges  0x0000000000000180       0x20 f:/psdk3/ps3dev/ppu/bin/../lib/gcc/powerpc64-ps3-elf/4.5.2/../../../../powerpc64-ps3-elf/lib\libm.a(lib_a-sf_tan.o)
 .debug_ranges  0x00000000000001a0       0x20 f:/psdk3/ps3dev/ppu/bin/../lib/gcc/powerpc64-ps3-elf/4.5.2/../../../../powerpc64-ps3-elf/lib\libm.a(lib_a-s_frexp.o)
 .debug_ranges  0x00000000000001c0       0x20 f:/psdk3/ps3dev/ppu/bin/../lib/gcc/powerpc64-ps3-elf/4.5.2/../../../../powerpc64-ps3-elf/lib\libm.a(lib_a-s_ispos.o)
 .debug_ranges  0x00000000000001e0       0x90 f:/psdk3/ps3dev/ppu/bin/../lib/gcc/powerpc64-ps3-elf/4.5.2/../../../../powerpc64-ps3-elf/lib\libm.a(lib_a-s_ldexp.o)
 .debug_ranges  0x0000000000000270       0x60 f:/psdk3/ps3dev/ppu/bin/../lib/gcc/powerpc64-ps3-elf/4.5.2/../../../../powerpc64-ps3-elf/lib\libm.a(lib_a-s_numtest.o)
 .debug_ranges  0x00000000000002d0       0x20 f:/psdk3/ps3dev/ppu/bin/../lib/gcc/powerpc64-ps3-elf/4.5.2/../../../../powerpc64-ps3-elf/lib\libm.a(lib_a-sf_fabs.o)
 .debug_ranges  0x00000000000002f0       0x20 f:/psdk3/ps3dev/ppu/bin/../lib/gcc/powerpc64-ps3-elf/4.5.2/../../../../powerpc64-ps3-elf/lib\libm.a(lib_a-sf_frexp.o)
 .debug_ranges  0x0000000000000310       0x20 f:/psdk3/ps3dev/ppu/bin/../lib/gcc/powerpc64-ps3-elf/4.5.2/../../../../powerpc64-ps3-elf/lib\libm.a(lib_a-sf_ispos.o)
 .debug_ranges  0x0000000000000330       0x20 f:/psdk3/ps3dev/ppu/bin/../lib/gcc/powerpc64-ps3-elf/4.5.2/../../../../powerpc64-ps3-elf/lib\libm.a(lib_a-sf_ldexp.o)
 .debug_ranges  0x0000000000000350       0x20 f:/psdk3/ps3dev/ppu/bin/../lib/gcc/powerpc64-ps3-elf/4.5.2/../../../../powerpc64-ps3-elf/lib\libm.a(lib_a-sf_numtest.o)
 .debug_ranges  0x0000000000000370       0x30 f:/psdk3/ps3dev/ppu/bin/../lib/gcc/powerpc64-ps3-elf/4.5.2/../../../../powerpc64-ps3-elf/lib\libsysbase.a(sleep.o)
 .debug_ranges  0x00000000000003a0       0x20 f:/psdk3/ps3dev/ppu/bin/../lib/gcc/powerpc64-ps3-elf/4.5.2/../../../../powerpc64-ps3-elf/lib\libc.a(lib_a-atexit.o)
 .debug_ranges  0x00000000000003c0       0x20 f:/psdk3/ps3dev/ppu/bin/../lib/gcc/powerpc64-ps3-elf/4.5.2/../../../../powerpc64-ps3-elf/lib\libc.a(lib_a-errno.o)
 .debug_ranges  0x00000000000003e0       0x20 f:/psdk3/ps3dev/ppu/bin/../lib/gcc/powerpc64-ps3-elf/4.5.2/../../../../powerpc64-ps3-elf/lib\libc.a(lib_a-exit.o)
 .debug_ranges  0x0000000000000400       0x70 f:/psdk3/ps3dev/ppu/bin/../lib/gcc/powerpc64-ps3-elf/4.5.2/../../../../powerpc64-ps3-elf/lib\libc.a(lib_a-getreent.o)
 .debug_ranges  0x0000000000000470       0x20 f:/psdk3/ps3dev/ppu/bin/../lib/gcc/powerpc64-ps3-elf/4.5.2/../../../../powerpc64-ps3-elf/lib\libc.a(lib_a-malign.o)
 .debug_ranges  0x0000000000000490       0x20 f:/psdk3/ps3dev/ppu/bin/../lib/gcc/powerpc64-ps3-elf/4.5.2/../../../../powerpc64-ps3-elf/lib\libc.a(lib_a-malignr.o)
 .debug_ranges  0x00000000000004b0       0x30 f:/psdk3/ps3dev/ppu/bin/../lib/gcc/powerpc64-ps3-elf/4.5.2/../../../../powerpc64-ps3-elf/lib\libc.a(lib_a-malloc.o)
 .debug_ranges  0x00000000000004e0       0xc0 f:/psdk3/ps3dev/ppu/bin/../lib/gcc/powerpc64-ps3-elf/4.5.2/../../../../powerpc64-ps3-elf/lib\libc.a(lib_a-mallocr.o)
 .debug_ranges  0x00000000000005a0       0x20 f:/psdk3/ps3dev/ppu/bin/../lib/gcc/powerpc64-ps3-elf/4.5.2/../../../../powerpc64-ps3-elf/lib\libc.a(lib_a-memcpy.o)
 .debug_ranges  0x00000000000005c0       0x20 f:/psdk3/ps3dev/ppu/bin/../lib/gcc/powerpc64-ps3-elf/4.5.2/../../../../powerpc64-ps3-elf/lib\libc.a(lib_a-memset.o)
 .debug_ranges  0x00000000000005e0       0x30 f:/psdk3/ps3dev/ppu/bin/../lib/gcc/powerpc64-ps3-elf/4.5.2/../../../../powerpc64-ps3-elf/lib\libc.a(lib_a-mlock.o)
 .debug_ranges  0x0000000000000610       0x30 f:/psdk3/ps3dev/ppu/bin/../lib/gcc/powerpc64-ps3-elf/4.5.2/../../../../powerpc64-ps3-elf/lib\libc.a(lib_a-sscanf.o)
 .debug_ranges  0x0000000000000640       0x60 f:/psdk3/ps3dev/ppu/bin/../lib/gcc/powerpc64-ps3-elf/4.5.2/../../../../powerpc64-ps3-elf/lib\libc.a(lib_a-stdio.o)
 .debug_ranges  0x00000000000006a0       0x50 f:/psdk3/ps3dev/ppu/bin/../lib/gcc/powerpc64-ps3-elf/4.5.2/../../../../powerpc64-ps3-elf/lib\libc.a(lib_a-strcasecmp.o)
 .debug_ranges  0x00000000000006f0       0x20 f:/psdk3/ps3dev/ppu/bin/../lib/gcc/powerpc64-ps3-elf/4.5.2/../../../../powerpc64-ps3-elf/lib\libc.a(lib_a-strlen.o)
 .debug_ranges  0x0000000000000710       0x20 f:/psdk3/ps3dev/ppu/bin/../lib/gcc/powerpc64-ps3-elf/4.5.2/../../../../powerpc64-ps3-elf/lib\libc.a(lib_a-strncpy.o)
 .debug_ranges  0x0000000000000730      0x2e0 f:/psdk3/ps3dev/ppu/bin/../lib/gcc/powerpc64-ps3-elf/4.5.2/../../../../powerpc64-ps3-elf/lib\libc.a(lib_a-svfscanf.o)
 .debug_ranges  0x0000000000000a10       0x30 f:/psdk3/ps3dev/ppu/bin/../lib/gcc/powerpc64-ps3-elf/4.5.2/../../../../powerpc64-ps3-elf/lib\libc.a(lib_a-vsprintf.o)
 .debug_ranges  0x0000000000000a40       0x20 f:/psdk3/ps3dev/ppu/bin/../lib/gcc/powerpc64-ps3-elf/4.5.2/../../../../powerpc64-ps3-elf/lib\libc.a(lib_a-__atexit.o)
 .debug_ranges  0x0000000000000a60       0x70 f:/psdk3/ps3dev/ppu/bin/../lib/gcc/powerpc64-ps3-elf/4.5.2/../../../../powerpc64-ps3-elf/lib\libc.a(lib_a-__call_atexit.o)
 .debug_ranges  0x0000000000000ad0      0x130 f:/psdk3/ps3dev/ppu/bin/../lib/gcc/powerpc64-ps3-elf/4.5.2/../../../../powerpc64-ps3-elf/lib\libc.a(lib_a-findfp.o)
 .debug_ranges  0x0000000000000c00       0x30 f:/psdk3/ps3dev/ppu/bin/../lib/gcc/powerpc64-ps3-elf/4.5.2/../../../../powerpc64-ps3-elf/lib\libc.a(lib_a-freer.o)
 .debug_ranges  0x0000000000000c30       0xf0 f:/psdk3/ps3dev/ppu/bin/../lib/gcc/powerpc64-ps3-elf/4.5.2/../../../../powerpc64-ps3-elf/lib\libc.a(lib_a-fwalk.o)
 .debug_ranges  0x0000000000000d20       0x20 f:/psdk3/ps3dev/ppu/bin/../lib/gcc/powerpc64-ps3-elf/4.5.2/../../../../powerpc64-ps3-elf/lib\libc.a(lib_a-iswspace.o)
 .debug_ranges  0x0000000000000d40       0x90 f:/psdk3/ps3dev/ppu/bin/../lib/gcc/powerpc64-ps3-elf/4.5.2/../../../../powerpc64-ps3-elf/lib\libc.a(lib_a-locale.o)
 .debug_ranges  0x0000000000000dd0       0x60 f:/psdk3/ps3dev/ppu/bin/../lib/gcc/powerpc64-ps3-elf/4.5.2/../../../../powerpc64-ps3-elf/lib\libc.a(lib_a-lock_recursive.o)
 .debug_ranges  0x0000000000000e30       0x30 f:/psdk3/ps3dev/ppu/bin/../lib/gcc/powerpc64-ps3-elf/4.5.2/../../../../powerpc64-ps3-elf/lib\libc.a(lib_a-mbrtowc.o)
 .debug_ranges  0x0000000000000e60       0x30 f:/psdk3/ps3dev/ppu/bin/../lib/gcc/powerpc64-ps3-elf/4.5.2/../../../../powerpc64-ps3-elf/lib\libc.a(lib_a-mbtowc_r.o)
 .debug_ranges  0x0000000000000e90       0x50 f:/psdk3/ps3dev/ppu/bin/../lib/gcc/powerpc64-ps3-elf/4.5.2/../../../../powerpc64-ps3-elf/lib\libc.a(lib_a-s_fpclassify.o)
 .debug_ranges  0x0000000000000ee0       0x20 f:/psdk3/ps3dev/ppu/bin/../lib/gcc/powerpc64-ps3-elf/4.5.2/../../../../powerpc64-ps3-elf/lib\libc.a(lib_a-sccl.o)
 .debug_ranges  0x0000000000000f00       0x20 f:/psdk3/ps3dev/ppu/bin/../lib/gcc/powerpc64-ps3-elf/4.5.2/../../../../powerpc64-ps3-elf/lib\libc.a(lib_a-sf_nan.o)
 .debug_ranges  0x0000000000000f20       0x30 f:/psdk3/ps3dev/ppu/bin/../lib/gcc/powerpc64-ps3-elf/4.5.2/../../../../powerpc64-ps3-elf/lib\libc.a(lib_a-sprintf.o)
 .debug_ranges  0x0000000000000f50       0x20 f:/psdk3/ps3dev/ppu/bin/../lib/gcc/powerpc64-ps3-elf/4.5.2/../../../../powerpc64-ps3-elf/lib\libc.a(lib_a-strcmp.o)
 .debug_ranges  0x0000000000000f70      0x110 f:/psdk3/ps3dev/ppu/bin/../lib/gcc/powerpc64-ps3-elf/4.5.2/../../../../powerpc64-ps3-elf/lib\libc.a(lib_a-strtod.o)
 .debug_ranges  0x0000000000001080       0x30 f:/psdk3/ps3dev/ppu/bin/../lib/gcc/powerpc64-ps3-elf/4.5.2/../../../../powerpc64-ps3-elf/lib\libc.a(lib_a-strtol.o)
 .debug_ranges  0x00000000000010b0       0x20 f:/psdk3/ps3dev/ppu/bin/../lib/gcc/powerpc64-ps3-elf/4.5.2/../../../../powerpc64-ps3-elf/lib\libc.a(lib_a-strtoll_r.o)
 .debug_ranges  0x00000000000010d0       0x30 f:/psdk3/ps3dev/ppu/bin/../lib/gcc/powerpc64-ps3-elf/4.5.2/../../../../powerpc64-ps3-elf/lib\libc.a(lib_a-strtoul.o)
 .debug_ranges  0x0000000000001100       0x20 f:/psdk3/ps3dev/ppu/bin/../lib/gcc/powerpc64-ps3-elf/4.5.2/../../../../powerpc64-ps3-elf/lib\libc.a(lib_a-strtoull_r.o)
 .debug_ranges  0x0000000000001120      0x250 f:/psdk3/ps3dev/ppu/bin/../lib/gcc/powerpc64-ps3-elf/4.5.2/../../../../powerpc64-ps3-elf/lib\libc.a(lib_a-svfiscanf.o)
 .debug_ranges  0x0000000000001370      0x450 f:/psdk3/ps3dev/ppu/bin/../lib/gcc/powerpc64-ps3-elf/4.5.2/../../../../powerpc64-ps3-elf/lib\libc.a(lib_a-svfprintf.o)
 .debug_ranges  0x00000000000017c0       0x40 f:/psdk3/ps3dev/ppu/bin/../lib/gcc/powerpc64-ps3-elf/4.5.2/../../../../powerpc64-ps3-elf/lib\libc.a(lib_a-ungetc.o)
 .debug_ranges  0x0000000000001800       0x30 f:/psdk3/ps3dev/ppu/bin/../lib/gcc/powerpc64-ps3-elf/4.5.2/../../../../powerpc64-ps3-elf/lib\libc.a(lib_a-dtoa.o)
 .debug_ranges  0x0000000000001830       0x30 f:/psdk3/ps3dev/ppu/bin/../lib/gcc/powerpc64-ps3-elf/4.5.2/../../../../powerpc64-ps3-elf/lib\libc.a(lib_a-fclose.o)
 .debug_ranges  0x0000000000001860       0xa0 f:/psdk3/ps3dev/ppu/bin/../lib/gcc/powerpc64-ps3-elf/4.5.2/../../../../powerpc64-ps3-elf/lib\libc.a(lib_a-fflush.o)
 .debug_ranges  0x0000000000001900      0x120 f:/psdk3/ps3dev/ppu/bin/../lib/gcc/powerpc64-ps3-elf/4.5.2/../../../../powerpc64-ps3-elf/lib\libc.a(lib_a-gdtoa-gethex.o)
 .debug_ranges  0x0000000000001a20       0x20 f:/psdk3/ps3dev/ppu/bin/../lib/gcc/powerpc64-ps3-elf/4.5.2/../../../../powerpc64-ps3-elf/lib\libc.a(lib_a-gdtoa-hexnan.o)
 .debug_ranges  0x0000000000001a40       0x30 f:/psdk3/ps3dev/ppu/bin/../lib/gcc/powerpc64-ps3-elf/4.5.2/../../../../powerpc64-ps3-elf/lib\libc.a(lib_a-lock_internal.o)
 .debug_ranges  0x0000000000001a70       0x20 f:/psdk3/ps3dev/ppu/bin/../lib/gcc/powerpc64-ps3-elf/4.5.2/../../../../powerpc64-ps3-elf/lib\libc.a(lib_a-memchr.o)
 .debug_ranges  0x0000000000001a90      0x1f0 f:/psdk3/ps3dev/ppu/bin/../lib/gcc/powerpc64-ps3-elf/4.5.2/../../../../powerpc64-ps3-elf/lib\libc.a(lib_a-mprec.o)
 .debug_ranges  0x0000000000001c80      0x1d0 f:/psdk3/ps3dev/ppu/bin/../lib/gcc/powerpc64-ps3-elf/4.5.2/../../../../powerpc64-ps3-elf/lib\libc.a(lib_a-reallocr.o)
 .debug_ranges  0x0000000000001e50       0x20 f:/psdk3/ps3dev/ppu/bin/../lib/gcc/powerpc64-ps3-elf/4.5.2/../../../../powerpc64-ps3-elf/lib\libc.a(lib_a-strncmp.o)
 .debug_ranges  0x0000000000001e70       0xc0 f:/psdk3/ps3dev/ppu/bin/../lib/gcc/powerpc64-ps3-elf/4.5.2/../../../../powerpc64-ps3-elf/lib\libc.a(lib_a-svfiprintf.o)
 .debug_ranges  0x0000000000001f30       0x20 f:/psdk3/ps3dev/ppu/bin/../lib/gcc/powerpc64-ps3-elf/4.5.2/../../../../powerpc64-ps3-elf/lib\libc.a(lib_a-abort.o)
 .debug_ranges  0x0000000000001f50       0x50 f:/psdk3/ps3dev/ppu/bin/../lib/gcc/powerpc64-ps3-elf/4.5.2/../../../../powerpc64-ps3-elf/lib\libc.a(lib_a-callocr.o)
 .debug_ranges  0x0000000000001fa0       0x20 f:/psdk3/ps3dev/ppu/bin/../lib/gcc/powerpc64-ps3-elf/4.5.2/../../../../powerpc64-ps3-elf/lib\libc.a(lib_a-memmove.o)
 .debug_ranges  0x0000000000001fc0       0x90 f:/psdk3/ps3dev/ppu/bin/../lib/gcc/powerpc64-ps3-elf/4.5.2/../../../../powerpc64-ps3-elf/lib\libc.a(lib_a-signal.o)
 .debug_ranges  0x0000000000002050       0x20 f:/psdk3/ps3dev/ppu/bin/../lib/gcc/powerpc64-ps3-elf/4.5.2/../../../../powerpc64-ps3-elf/lib\libsysbase.a(close.o)
 .debug_ranges  0x0000000000002070       0x20 f:/psdk3/ps3dev/ppu/bin/../lib/gcc/powerpc64-ps3-elf/4.5.2/../../../../powerpc64-ps3-elf/lib\libsysbase.a(sbrk.o)
 .debug_ranges  0x0000000000002090       0x20 f:/psdk3/ps3dev/ppu/bin/../lib/gcc/powerpc64-ps3-elf/4.5.2/../../../../powerpc64-ps3-elf/lib\libsysbase.a(_exit.o)
 .debug_ranges  0x00000000000020b0       0x20 f:/psdk3/ps3dev/ppu/bin/../lib/gcc/powerpc64-ps3-elf/4.5.2/../../../../powerpc64-ps3-elf/lib\libsysbase.a(lseek.o)
 .debug_ranges  0x00000000000020d0       0x20 f:/psdk3/ps3dev/ppu/bin/../lib/gcc/powerpc64-ps3-elf/4.5.2/../../../../powerpc64-ps3-elf/lib\libsysbase.a(read.o)
 .debug_ranges  0x00000000000020f0       0x20 f:/psdk3/ps3dev/ppu/bin/../lib/gcc/powerpc64-ps3-elf/4.5.2/../../../../powerpc64-ps3-elf/lib\libsysbase.a(write.o)
 .debug_ranges  0x0000000000002110       0x60 f:/psdk3/ps3dev/ppu/bin/../lib/gcc/powerpc64-ps3-elf/4.5.2/../../../../powerpc64-ps3-elf/lib\libsysbase.a(lock.o)
 .debug_ranges  0x0000000000002170       0x20 f:/psdk3/ps3dev/ppu/bin/../lib/gcc/powerpc64-ps3-elf/4.5.2/../../../../powerpc64-ps3-elf/lib\libsysbase.a(getpid.o)
 .debug_ranges  0x0000000000002190       0x20 f:/psdk3/ps3dev/ppu/bin/../lib/gcc/powerpc64-ps3-elf/4.5.2/../../../../powerpc64-ps3-elf/lib\libsysbase.a(kill.o)

.gnu.attributes
 *(.gnu.attributes)

/DISCARD/
 *(.note.GNU-stack)
 *(.gnu_debuglink)
LOAD f:/psdk3/ps3dev/ppu/bin/../lib/gcc/powerpc64-ps3-elf/4.5.2/../../../../powerpc64-ps3-elf/lib/lv2-crti.o
LOAD f:/psdk3/ps3dev/ppu/bin/../lib/gcc/powerpc64-ps3-elf/4.5.2/crtbegin.o
LOAD f:/psdk3/ps3dev/ppu/bin/../lib/gcc/powerpc64-ps3-elf/4.5.2/../../../../powerpc64-ps3-elf/lib/lv2-crt0.o
LOAD f:/psdk3/ps3dev/ppu/bin/../lib/gcc/powerpc64-ps3-elf/4.5.2/../../../../powerpc64-ps3-elf/lib/lv2-sprx.o
LOAD picture_png.bin.o
LOAD main.o
LOAD msxfont.o
LOAD f:/PSDK3/ps3dev/portlibs/ppu/lib\libfont.a
LOAD f:/PSDK3/ps3dev/portlibs/ppu/lib\libtiny3d.a
LOAD f:/PSDK3/psl1ght/ppu/lib\libsimdmath.a
LOAD f:/PSDK3/psl1ght/ppu/lib\libgcm_sys.a
LOAD f:/PSDK3/psl1ght/ppu/lib\libio.a
LOAD f:/PSDK3/psl1ght/ppu/lib\libsysutil.a
LOAD f:/PSDK3/psl1ght/ppu/lib\librt.a
LOAD f:/PSDK3/psl1ght/ppu/lib\liblv2.a
LOAD f:/PSDK3/psl1ght/ppu/lib\libpngdec.a
LOAD f:/PSDK3/psl1ght/ppu/lib\libsysmodule.a
LOAD f:/psdk3/ps3dev/ppu/bin/../lib/gcc/powerpc64-ps3-elf/4.5.2/../../../../powerpc64-ps3-elf/lib\libm.a
LOAD f:/psdk3/ps3dev/ppu/bin/../lib/gcc/powerpc64-ps3-elf/4.5.2\libgcc.a
START GROUP
LOAD f:/psdk3/ps3dev/ppu/bin/../lib/gcc/powerpc64-ps3-elf/4.5.2/../../../../powerpc64-ps3-elf/lib\libsysbase.a
LOAD f:/psdk3/ps3dev/ppu/bin/../lib/gcc/powerpc64-ps3-elf/4.5.2/../../../../powerpc64-ps3-elf/lib\libc.a
LOAD f:/PSDK3/psl1ght/ppu/lib\librt.a
LOAD f:/PSDK3/psl1ght/ppu/lib\liblv2.a
END GROUP
LOAD f:/psdk3/ps3dev/ppu/bin/../lib/gcc/powerpc64-ps3-elf/4.5.2\libgcc.a
LOAD f:/psdk3/ps3dev/ppu/bin/../lib/gcc/powerpc64-ps3-elf/4.5.2/crtend.o
LOAD f:/psdk3/ps3dev/ppu/bin/../lib/gcc/powerpc64-ps3-elf/4.5.2/../../../../powerpc64-ps3-elf/lib/lv2-crtn.o
OUTPUT(f:/PSDK3/projects/samples/yuv/yuv.elf elf64-powerpc)
